---
triple:          'arm64-apple-darwin'
binary-path:     'bin/prog'
relocations:
  - { offsetInCU: 0x39, offset: 0x39, size: 0x8, addend: 0x0, symName: __ZN5dgrad6Tensor6nogradE, symObjAddr: 0x4D785, symBinAddr: 0x10002C000, symSize: 0x0 }
  - { offsetInCU: 0x117, offset: 0x117, size: 0x8, addend: 0x0, symName: __ZN5dgradlsERNSt3__113basic_ostreamIcNS0_11char_traitsIcEEEERKNS_6TensorE, symObjAddr: 0x608, symBinAddr: 0x100004504, symSize: 0x1EC }
  - { offsetInCU: 0xB50, offset: 0xB50, size: 0x8, addend: 0x0, symName: __ZNSt3__110__function10__not_nullB8ue170006IZN5dgrad6TensorC1ESt16initializer_listIdEEUlvE_EEbRKT_, symObjAddr: 0xC88, symBinAddr: 0x100004B84, symSize: 0x18 }
  - { offsetInCU: 0xB81, offset: 0xB81, size: 0x8, addend: 0x0, symName: __ZNSt3__110__function10__not_nullB8ue170006IZN5dgrad6TensorC1ESt16initializer_listIdEEUlvE0_EEbRKT_, symObjAddr: 0x2798, symBinAddr: 0x100006694, symSize: 0x18 }
  - { offsetInCU: 0x2AD8, offset: 0x2AD8, size: 0x8, addend: 0x0, symName: __ZNSt3__1L19piecewise_constructE, symObjAddr: 0x6D0E, symBinAddr: 0x100026406, symSize: 0x0 }
  - { offsetInCU: 0x7A46, offset: 0x7A46, size: 0x8, addend: 0x0, symName: __ZNSt3__124__put_character_sequenceB8ue170006IcNS_11char_traitsIcEEEERNS_13basic_ostreamIT_T0_EES7_PKS4_m, symObjAddr: 0x5E20, symBinAddr: 0x100009D1C, symSize: 0x1EC }
  - { offsetInCU: 0x95B8, offset: 0x95B8, size: 0x8, addend: 0x0, symName: __ZNSt3__1lsB8ue170006INS_11char_traitsIcEEEERNS_13basic_ostreamIcT_EES6_c, symObjAddr: 0x5D4, symBinAddr: 0x1000044D0, symSize: 0x34 }
  - { offsetInCU: 0x9761, offset: 0x9761, size: 0x8, addend: 0x0, symName: __ZNSt3__116forward_as_tupleB8ue170006IJZN5dgrad6TensorC1ESt16initializer_listIdEEUlvE_EEENS_5tupleIJDpOT_EEES9_, symObjAddr: 0x1200, symBinAddr: 0x1000050FC, symSize: 0x2C }
  - { offsetInCU: 0x979A, offset: 0x979A, size: 0x8, addend: 0x0, symName: __ZNSt3__116forward_as_tupleB8ue170006IJNS_9allocatorIZN5dgrad6TensorC1ESt16initializer_listIdEEUlvE_EEEEENS_5tupleIJDpOT_EEESB_, symObjAddr: 0x122C, symBinAddr: 0x100005128, symSize: 0x2C }
  - { offsetInCU: 0x9817, offset: 0x9817, size: 0x8, addend: 0x0, symName: __ZNSt3__13getB8ue170006ILm0EJOZN5dgrad6TensorC1ESt16initializer_listIdEEUlvE_EEERNS_13tuple_elementIXT_ENS_5tupleIJDpT0_EEEE4typeERSB_, symObjAddr: 0x1544, symBinAddr: 0x100005440, symSize: 0x24 }
  - { offsetInCU: 0x9859, offset: 0x9859, size: 0x8, addend: 0x0, symName: __ZNSt3__13getB8ue170006ILm0EJONS_9allocatorIZN5dgrad6TensorC1ESt16initializer_listIdEEUlvE_EEEEERNS_13tuple_elementIXT_ENS_5tupleIJDpT0_EEEE4typeERSD_, symObjAddr: 0x1580, symBinAddr: 0x10000547C, symSize: 0x24 }
  - { offsetInCU: 0x9D7F, offset: 0x9D7F, size: 0x8, addend: 0x0, symName: __ZNSt3__117__libcpp_allocateB8ue170006Emm, symObjAddr: 0x1864, symBinAddr: 0x100005760, symSize: 0x28 }
  - { offsetInCU: 0x9DBC, offset: 0x9DBC, size: 0x8, addend: 0x0, symName: __ZNSt3__121__libcpp_operator_newB8ue170006IJmEEEPvDpT_, symObjAddr: 0x18A0, symBinAddr: 0x10000579C, symSize: 0x24 }
  - { offsetInCU: 0x9DF5, offset: 0x9DF5, size: 0x8, addend: 0x0, symName: __ZNSt3__116forward_as_tupleB8ue170006IJRKZN5dgrad6TensorC1ESt16initializer_listIdEEUlvE_EEENS_5tupleIJDpOT_EEESB_, symObjAddr: 0x1BA0, symBinAddr: 0x100005A9C, symSize: 0x2C }
  - { offsetInCU: 0x9E43, offset: 0x9E43, size: 0x8, addend: 0x0, symName: __ZNSt3__13getB8ue170006ILm0EJRKZN5dgrad6TensorC1ESt16initializer_listIdEEUlvE_EEERNS_13tuple_elementIXT_ENS_5tupleIJDpT0_EEEE4typeERSC_, symObjAddr: 0x1D90, symBinAddr: 0x100005C8C, symSize: 0x24 }
  - { offsetInCU: 0x9E85, offset: 0x9E85, size: 0x8, addend: 0x0, symName: __ZNSt3__119__libcpp_deallocateB8ue170006EPvmm, symObjAddr: 0x1F90, symBinAddr: 0x100005E8C, symSize: 0x30 }
  - { offsetInCU: 0x9ECD, offset: 0x9ECD, size: 0x8, addend: 0x0, symName: __ZNSt3__127__do_deallocate_handle_sizeB8ue170006IJEEEvPvmDpT_, symObjAddr: 0x1FC0, symBinAddr: 0x100005EBC, symSize: 0x28 }
  - { offsetInCU: 0x9F0B, offset: 0x9F0B, size: 0x8, addend: 0x0, symName: __ZNSt3__124__libcpp_operator_deleteB8ue170006IJPvEEEvDpT_, symObjAddr: 0x1FE8, symBinAddr: 0x100005EE4, symSize: 0x24 }
  - { offsetInCU: 0x9F40, offset: 0x9F40, size: 0x8, addend: 0x0, symName: __ZNSt3__116forward_as_tupleB8ue170006IJRKNS_9allocatorIZN5dgrad6TensorC1ESt16initializer_listIdEEUlvE_EEEEENS_5tupleIJDpOT_EEESD_, symObjAddr: 0x2168, symBinAddr: 0x100006064, symSize: 0x2C }
  - { offsetInCU: 0x9F8E, offset: 0x9F8E, size: 0x8, addend: 0x0, symName: __ZNSt3__13getB8ue170006ILm0EJRKNS_9allocatorIZN5dgrad6TensorC1ESt16initializer_listIdEEUlvE_EEEEERNS_13tuple_elementIXT_ENS_5tupleIJDpT0_EEEE4typeERSE_, symObjAddr: 0x234C, symBinAddr: 0x100006248, symSize: 0x24 }
  - { offsetInCU: 0xA020, offset: 0xA020, size: 0x8, addend: 0x0, symName: __ZNSt3__18__invokeB8ue170006IRZN5dgrad6TensorC1ESt16initializer_listIdEEUlvE_JEEEDTclclsr3stdE7declvalIT_EEspclsr3stdE7declvalIT0_EEEEOS7_DpOS8_, symObjAddr: 0x2408, symBinAddr: 0x100006304, symSize: 0x24 }
  - { offsetInCU: 0xA1BB, offset: 0xA1BB, size: 0x8, addend: 0x0, symName: __ZNSt3__116forward_as_tupleB8ue170006IJZN5dgrad6TensorC1ESt16initializer_listIdEEUlvE0_EEENS_5tupleIJDpOT_EEES9_, symObjAddr: 0x2CB8, symBinAddr: 0x100006BB4, symSize: 0x2C }
  - { offsetInCU: 0xA1F4, offset: 0xA1F4, size: 0x8, addend: 0x0, symName: __ZNSt3__116forward_as_tupleB8ue170006IJNS_9allocatorIZN5dgrad6TensorC1ESt16initializer_listIdEEUlvE0_EEEEENS_5tupleIJDpOT_EEESB_, symObjAddr: 0x2CE4, symBinAddr: 0x100006BE0, symSize: 0x2C }
  - { offsetInCU: 0xA257, offset: 0xA257, size: 0x8, addend: 0x0, symName: __ZNSt3__13getB8ue170006ILm0EJOZN5dgrad6TensorC1ESt16initializer_listIdEEUlvE0_EEERNS_13tuple_elementIXT_ENS_5tupleIJDpT0_EEEE4typeERSB_, symObjAddr: 0x2FF0, symBinAddr: 0x100006EEC, symSize: 0x24 }
  - { offsetInCU: 0xA299, offset: 0xA299, size: 0x8, addend: 0x0, symName: __ZNSt3__13getB8ue170006ILm0EJONS_9allocatorIZN5dgrad6TensorC1ESt16initializer_listIdEEUlvE0_EEEEERNS_13tuple_elementIXT_ENS_5tupleIJDpT0_EEEE4typeERSD_, symObjAddr: 0x302C, symBinAddr: 0x100006F28, symSize: 0x24 }
  - { offsetInCU: 0xA7BF, offset: 0xA7BF, size: 0x8, addend: 0x0, symName: __ZNSt3__116forward_as_tupleB8ue170006IJRKZN5dgrad6TensorC1ESt16initializer_listIdEEUlvE0_EEENS_5tupleIJDpOT_EEESB_, symObjAddr: 0x35C0, symBinAddr: 0x1000074BC, symSize: 0x2C }
  - { offsetInCU: 0xA80D, offset: 0xA80D, size: 0x8, addend: 0x0, symName: __ZNSt3__13getB8ue170006ILm0EJRKZN5dgrad6TensorC1ESt16initializer_listIdEEUlvE0_EEERNS_13tuple_elementIXT_ENS_5tupleIJDpT0_EEEE4typeERSC_, symObjAddr: 0x37A4, symBinAddr: 0x1000076A0, symSize: 0x24 }
  - { offsetInCU: 0xA84F, offset: 0xA84F, size: 0x8, addend: 0x0, symName: __ZNSt3__116forward_as_tupleB8ue170006IJRKNS_9allocatorIZN5dgrad6TensorC1ESt16initializer_listIdEEUlvE0_EEEEENS_5tupleIJDpOT_EEESD_, symObjAddr: 0x3B00, symBinAddr: 0x1000079FC, symSize: 0x2C }
  - { offsetInCU: 0xA89D, offset: 0xA89D, size: 0x8, addend: 0x0, symName: __ZNSt3__13getB8ue170006ILm0EJRKNS_9allocatorIZN5dgrad6TensorC1ESt16initializer_listIdEEUlvE0_EEEEERNS_13tuple_elementIXT_ENS_5tupleIJDpT0_EEEE4typeERSE_, symObjAddr: 0x3CE4, symBinAddr: 0x100007BE0, symSize: 0x24 }
  - { offsetInCU: 0xA8DF, offset: 0xA8DF, size: 0x8, addend: 0x0, symName: __ZNSt3__18__invokeB8ue170006IRZN5dgrad6TensorC1ESt16initializer_listIdEEUlvE0_JEEEDTclclsr3stdE7declvalIT_EEspclsr3stdE7declvalIT0_EEEEOS7_DpOS8_, symObjAddr: 0x3DA0, symBinAddr: 0x100007C9C, symSize: 0x24 }
  - { offsetInCU: 0xA917, offset: 0xA917, size: 0x8, addend: 0x0, symName: __ZNSt3__122__make_exception_guardB8ue170006INS_6vectorIdNS_9allocatorIdEEE16__destroy_vectorEEENS_28__exception_guard_exceptionsIT_EES7_, symObjAddr: 0x4094, symBinAddr: 0x100007F90, symSize: 0x40 }
  - { offsetInCU: 0xA94C, offset: 0xA94C, size: 0x8, addend: 0x0, symName: __ZNSt3__119__allocate_at_leastB8ue170006INS_9allocatorIdEEEENS_19__allocation_resultINS_16allocator_traitsIT_E7pointerEEERS5_m, symObjAddr: 0x447C, symBinAddr: 0x100008378, symSize: 0x40 }
  - { offsetInCU: 0xA98F, offset: 0xA98F, size: 0x8, addend: 0x0, symName: __ZNSt3__13minB8ue170006ImEERKT_S3_S3_, symObjAddr: 0x45B8, symBinAddr: 0x1000084B4, symSize: 0x2C }
  - { offsetInCU: 0xABD3, offset: 0xABD3, size: 0x8, addend: 0x0, symName: __ZNSt3__13minB8ue170006ImNS_6__lessIvvEEEERKT_S5_S5_T0_, symObjAddr: 0x4644, symBinAddr: 0x100008540, symSize: 0x54 }
  - { offsetInCU: 0xAC72, offset: 0xAC72, size: 0x8, addend: 0x0, symName: __ZNSt3__120__throw_length_errorB8ue170006EPKc, symObjAddr: 0x4720, symBinAddr: 0x10000861C, symSize: 0x64 }
  - { offsetInCU: 0xAC9C, offset: 0xAC9C, size: 0x8, addend: 0x0, symName: __ZNSt3__112__to_addressB8ue170006IdEEPT_S2_, symObjAddr: 0x4954, symBinAddr: 0x100008850, symSize: 0x14 }
  - { offsetInCU: 0xACD1, offset: 0xACD1, size: 0x8, addend: 0x0, symName: __ZNSt3__130__uninitialized_allocator_copyB8ue170006INS_9allocatorIdEEPKdS4_PdEET2_RT_T0_T1_S6_, symObjAddr: 0x4A04, symBinAddr: 0x100008900, symSize: 0x80 }
  - { offsetInCU: 0xAD6E, offset: 0xAD6E, size: 0x8, addend: 0x0, symName: __ZNSt3__114__unwrap_rangeB8ue170006IPKdS2_EENS_4pairIT0_S4_EET_S6_, symObjAddr: 0x4AF4, symBinAddr: 0x1000089F0, symSize: 0x60 }
  - { offsetInCU: 0xADBA, offset: 0xADBA, size: 0x8, addend: 0x0, symName: __ZNSt3__135__uninitialized_allocator_copy_implB8ue170006INS_9allocatorIdEEKdddLPv0EEEPT2_RT_PT0_SA_S6_, symObjAddr: 0x4B54, symBinAddr: 0x100008A50, symSize: 0x38 }
  - { offsetInCU: 0xAE3B, offset: 0xAE3B, size: 0x8, addend: 0x0, symName: __ZNSt3__113__unwrap_iterB8ue170006IPdNS_18__unwrap_iter_implIS1_Lb1EEELi0EEEDTclsrT0_8__unwrapclsr3stdE7declvalIT_EEEES5_, symObjAddr: 0x4B8C, symBinAddr: 0x100008A88, symSize: 0x24 }
  - { offsetInCU: 0xAE7F, offset: 0xAE7F, size: 0x8, addend: 0x0, symName: __ZNSt3__113__rewrap_iterB8ue170006IPdS1_NS_18__unwrap_iter_implIS1_Lb1EEEEET_S4_T0_, symObjAddr: 0x4BB0, symBinAddr: 0x100008AAC, symSize: 0x3C }
  - { offsetInCU: 0xAED4, offset: 0xAED4, size: 0x8, addend: 0x0, symName: __ZNSt3__19make_pairB8ue170006IPKdS2_EENS_4pairINS_18__unwrap_ref_decayIT_E4typeENS4_IT0_E4typeEEEOS5_OS8_, symObjAddr: 0x4BEC, symBinAddr: 0x100008AE8, symSize: 0x38 }
  - { offsetInCU: 0xAF23, offset: 0xAF23, size: 0x8, addend: 0x0, symName: __ZNSt3__113__unwrap_iterB8ue170006IPKdNS_18__unwrap_iter_implIS2_Lb1EEELi0EEEDTclsrT0_8__unwrapclsr3stdE7declvalIT_EEEES6_, symObjAddr: 0x4C24, symBinAddr: 0x100008B20, symSize: 0x24 }
  - { offsetInCU: 0xB08E, offset: 0xB08E, size: 0x8, addend: 0x0, symName: __ZNSt3__112__to_addressB8ue170006IKdEEPT_S3_, symObjAddr: 0x4CDC, symBinAddr: 0x100008BD8, symSize: 0x14 }
  - { offsetInCU: 0xB0C3, offset: 0xB0C3, size: 0x8, addend: 0x0, symName: __ZNSt3__14copyB8ue170006IPKdPdEET0_T_S5_S4_, symObjAddr: 0x4CF0, symBinAddr: 0x100008BEC, symSize: 0x40 }
  - { offsetInCU: 0xB11D, offset: 0xB11D, size: 0x8, addend: 0x0, symName: __ZNSt3__16__copyB8ue170006INS_17_ClassicAlgPolicyEPKdS3_PdEENS_4pairIT0_T2_EES6_T1_S7_, symObjAddr: 0x4D30, symBinAddr: 0x100008C2C, symSize: 0x44 }
  - { offsetInCU: 0xB189, offset: 0xB189, size: 0x8, addend: 0x0, symName: __ZNSt3__123__dispatch_copy_or_moveB8ue170006INS_17_ClassicAlgPolicyENS_11__copy_loopIS1_EENS_14__copy_trivialEPKdS6_PdEENS_4pairIT2_T4_EES9_T3_SA_, symObjAddr: 0x4D74, symBinAddr: 0x100008C70, symSize: 0x44 }
  - { offsetInCU: 0xB207, offset: 0xB207, size: 0x8, addend: 0x0, symName: __ZNSt3__121__unwrap_and_dispatchB8ue170006INS_10__overloadINS_11__copy_loopINS_17_ClassicAlgPolicyEEENS_14__copy_trivialEEEPKdS8_PdLi0EEENS_4pairIT0_T2_EESB_T1_SC_, symObjAddr: 0x4DB8, symBinAddr: 0x100008CB4, symSize: 0xB4 }
  - { offsetInCU: 0xB3DE, offset: 0xB3DE, size: 0x8, addend: 0x0, symName: __ZNSt3__19make_pairB8ue170006IPKdPdEENS_4pairINS_18__unwrap_ref_decayIT_E4typeENS5_IT0_E4typeEEEOS6_OS9_, symObjAddr: 0x4EB4, symBinAddr: 0x100008DB0, symSize: 0x38 }
  - { offsetInCU: 0xB42D, offset: 0xB42D, size: 0x8, addend: 0x0, symName: __ZNSt3__114__rewrap_rangeB8ue170006IPKdS2_EET_S3_T0_, symObjAddr: 0x4EEC, symBinAddr: 0x100008DE8, symSize: 0x2C }
  - { offsetInCU: 0xB479, offset: 0xB479, size: 0x8, addend: 0x0, symName: __ZNSt3__119__copy_trivial_implB8ue170006IKddEENS_4pairIPT_PT0_EES4_S4_S6_, symObjAddr: 0x4F18, symBinAddr: 0x100008E14, symSize: 0x80 }
  - { offsetInCU: 0xB4E1, offset: 0xB4E1, size: 0x8, addend: 0x0, symName: __ZNSt3__119__constexpr_memmoveB8ue170006IdKdLi0EEEPT_S3_PT0_NS_15__element_countE, symObjAddr: 0x4F98, symBinAddr: 0x100008E94, symSize: 0x64 }
  - { offsetInCU: 0xB54F, offset: 0xB54F, size: 0x8, addend: 0x0, symName: __ZNSt3__19make_pairB8ue170006IRPKdPdEENS_4pairINS_18__unwrap_ref_decayIT_E4typeENS6_IT0_E4typeEEEOS7_OSA_, symObjAddr: 0x4FFC, symBinAddr: 0x100008EF8, symSize: 0x38 }
  - { offsetInCU: 0xB59E, offset: 0xB59E, size: 0x8, addend: 0x0, symName: __ZNSt3__113__rewrap_iterB8ue170006IPKdS2_NS_18__unwrap_iter_implIS2_Lb1EEEEET_S5_T0_, symObjAddr: 0x5114, symBinAddr: 0x100009010, symSize: 0x3C }
  - { offsetInCU: 0xB646, offset: 0xB646, size: 0x8, addend: 0x0, symName: __ZNSt3__112__to_addressB8ue170006IPN5dgrad6TensorEEEPT_S5_, symObjAddr: 0x5B00, symBinAddr: 0x1000099FC, symSize: 0x14 }
  - { offsetInCU: 0xB67B, offset: 0xB67B, size: 0x8, addend: 0x0, symName: __ZNSt3__1lsB8ue170006INS_11char_traitsIcEEEERNS_13basic_ostreamIcT_EES6_PKc, symObjAddr: 0x5DB4, symBinAddr: 0x100009CB0, symSize: 0x48 }
  - { offsetInCU: 0xB6C1, offset: 0xB6C1, size: 0x8, addend: 0x0, symName: __ZNSt3__116__pad_and_outputB8ue170006IcNS_11char_traitsIcEEEENS_19ostreambuf_iteratorIT_T0_EES6_PKS4_S8_S8_RNS_8ios_baseES4_, symObjAddr: 0x605C, symBinAddr: 0x100009F58, symSize: 0x240 }
  - { offsetInCU: 0xB790, offset: 0xB790, size: 0x8, addend: 0x0, symName: __ZNSt3__112__to_addressB8ue170006IKcEEPT_S3_, symObjAddr: 0x65C4, symBinAddr: 0x10000A4C0, symSize: 0x14 }
  - { offsetInCU: 0xB7F8, offset: 0xB7F8, size: 0x8, addend: 0x0, symName: __ZNSt3__19use_facetB8ue170006INS_5ctypeIcEEEERKT_RKNS_6localeE, symObjAddr: 0x6844, symBinAddr: 0x10000A740, symSize: 0x2C }
  - { offsetInCU: 0xBCC5, offset: 0xBCC5, size: 0x8, addend: 0x0, symName: __ZNSt3__118__constexpr_strlenB8ue170006EPKc, symObjAddr: 0x68DC, symBinAddr: 0x10000A7D8, symSize: 0x24 }
  - { offsetInCU: 0xC34C, offset: 0xC34C, size: 0x8, addend: 0x0, symName: __ZSt28__throw_bad_array_new_lengthB8ue170006v, symObjAddr: 0x1830, symBinAddr: 0x10000572C, symSize: 0x34 }
  - { offsetInCU: 0xC902, offset: 0xC902, size: 0x8, addend: 0x0, symName: __ZN5dgrad6TensorC2ESt16initializer_listIdE, symObjAddr: 0x7F4, symBinAddr: 0x1000046F0, symSize: 0x130 }
  - { offsetInCU: 0xF22E, offset: 0xF22E, size: 0x8, addend: 0x0, symName: __Z4lossN5dgrad6TensorES0_, symObjAddr: 0x0, symBinAddr: 0x100003EFC, symSize: 0x17C }
  - { offsetInCU: 0xF2AA, offset: 0xF2AA, size: 0x8, addend: 0x0, symName: __ZN5dgrad6TensorC1ESt16initializer_listIdE, symObjAddr: 0x17C, symBinAddr: 0x100004078, symSize: 0x3C }
  - { offsetInCU: 0xF2E2, offset: 0xF2E2, size: 0x8, addend: 0x0, symName: __ZN5dgrad6TensorD1Ev, symObjAddr: 0x1B8, symBinAddr: 0x1000040B4, symSize: 0x2C }
  - { offsetInCU: 0xF30E, offset: 0xF30E, size: 0x8, addend: 0x0, symName: _main, symObjAddr: 0x1E4, symBinAddr: 0x1000040E0, symSize: 0x3C8 }
  - { offsetInCU: 0xF3A1, offset: 0xF3A1, size: 0x8, addend: 0x0, symName: __ZN5dgrad6Tensor10set_nogradEb, symObjAddr: 0x5AC, symBinAddr: 0x1000044A8, symSize: 0x28 }
  - { offsetInCU: 0xF3C4, offset: 0xF3C4, size: 0x8, addend: 0x0, symName: __ZNSt3__18functionIFvvEEC1IZN5dgrad6TensorC1ESt16initializer_listIdEEUlvE_vEET_, symObjAddr: 0x924, symBinAddr: 0x100004820, symSize: 0x34 }
  - { offsetInCU: 0xF409, offset: 0xF409, size: 0x8, addend: 0x0, symName: __ZNSt3__18functionIFvvEEC1IZN5dgrad6TensorC1ESt16initializer_listIdEEUlvE0_vEET_, symObjAddr: 0x958, symBinAddr: 0x100004854, symSize: 0x2C }
  - { offsetInCU: 0xF44E, offset: 0xF44E, size: 0x8, addend: 0x0, symName: __ZNSt3__16vectorIPN5dgrad6TensorENS_9allocatorIS3_EEEC1B8ue170006Ev, symObjAddr: 0x984, symBinAddr: 0x100004880, symSize: 0x2C }
  - { offsetInCU: 0xF478, offset: 0xF478, size: 0x8, addend: 0x0, symName: __ZNSt3__16vectorIdNS_9allocatorIdEEEC1B8ue170006ESt16initializer_listIdE, symObjAddr: 0x9B0, symBinAddr: 0x1000048AC, symSize: 0x3C }
  - { offsetInCU: 0xF4B3, offset: 0xF4B3, size: 0x8, addend: 0x0, symName: __ZNKSt16initializer_listIdE4sizeB8ue170006Ev, symObjAddr: 0x9EC, symBinAddr: 0x1000048E8, symSize: 0x18 }
  - { offsetInCU: 0xF4D9, offset: 0xF4D9, size: 0x8, addend: 0x0, symName: __ZNSt3__16vectorIdNS_9allocatorIdEEEC1EmRKd, symObjAddr: 0xA04, symBinAddr: 0x100004900, symSize: 0x3C }
  - { offsetInCU: 0xF523, offset: 0xF523, size: 0x8, addend: 0x0, symName: __ZNSt3__16vectorIdNS_9allocatorIdEEED1B8ue170006Ev, symObjAddr: 0xA40, symBinAddr: 0x10000493C, symSize: 0x2C }
  - { offsetInCU: 0xF54D, offset: 0xF54D, size: 0x8, addend: 0x0, symName: __ZNSt3__16vectorIPN5dgrad6TensorENS_9allocatorIS3_EEED1B8ue170006Ev, symObjAddr: 0xA6C, symBinAddr: 0x100004968, symSize: 0x2C }
  - { offsetInCU: 0xF577, offset: 0xF577, size: 0x8, addend: 0x0, symName: __ZNSt3__18functionIFvvEED1Ev, symObjAddr: 0xA98, symBinAddr: 0x100004994, symSize: 0x2C }
  - { offsetInCU: 0xF5A3, offset: 0xF5A3, size: 0x8, addend: 0x0, symName: __ZNSt3__18functionIFvvEEC2IZN5dgrad6TensorC1ESt16initializer_listIdEEUlvE_vEET_, symObjAddr: 0xAC4, symBinAddr: 0x1000049C0, symSize: 0x38 }
  - { offsetInCU: 0xF5E8, offset: 0xF5E8, size: 0x8, addend: 0x0, symName: __ZNSt3__110__function12__value_funcIFvvEEC1B8ue170006IZN5dgrad6TensorC1ESt16initializer_listIdEEUlvE_vEEOT_, symObjAddr: 0xAFC, symBinAddr: 0x1000049F8, symSize: 0x50 }
  - { offsetInCU: 0xF62B, offset: 0xF62B, size: 0x8, addend: 0x0, symName: __ZNSt3__19allocatorIZN5dgrad6TensorC1ESt16initializer_listIdEEUlvE_EC1B8ue170006Ev, symObjAddr: 0xB4C, symBinAddr: 0x100004A48, symSize: 0x2C }
  - { offsetInCU: 0xF655, offset: 0xF655, size: 0x8, addend: 0x0, symName: __ZNSt3__110__function12__value_funcIFvvEEC1B8ue170006IZN5dgrad6TensorC1ESt16initializer_listIdEEUlvE_NS_9allocatorIS9_EEEEOT_RKT0_, symObjAddr: 0xB78, symBinAddr: 0x100004A74, symSize: 0x3C }
  - { offsetInCU: 0xF6AF, offset: 0xF6AF, size: 0x8, addend: 0x0, symName: __ZNSt3__19allocatorIZN5dgrad6TensorC1ESt16initializer_listIdEEUlvE_EC2B8ue170006Ev, symObjAddr: 0xBB4, symBinAddr: 0x100004AB0, symSize: 0x2C }
  - { offsetInCU: 0xF6D9, offset: 0xF6D9, size: 0x8, addend: 0x0, symName: __ZNSt3__116__non_trivial_ifILb1ENS_9allocatorIZN5dgrad6TensorC1ESt16initializer_listIdEEUlvE_EEEC2B8ue170006Ev, symObjAddr: 0xBE0, symBinAddr: 0x100004ADC, symSize: 0x14 }
  - { offsetInCU: 0xF703, offset: 0xF703, size: 0x8, addend: 0x0, symName: __ZNSt3__110__function12__value_funcIFvvEEC2B8ue170006IZN5dgrad6TensorC1ESt16initializer_listIdEEUlvE_NS_9allocatorIS9_EEEEOT_RKT0_, symObjAddr: 0xBF4, symBinAddr: 0x100004AF0, symSize: 0x94 }
  - { offsetInCU: 0xF7A9, offset: 0xF7A9, size: 0x8, addend: 0x0, symName: __ZNSt3__19allocatorINS_10__function6__funcIZN5dgrad6TensorC1ESt16initializer_listIdEEUlvE_NS0_IS7_EEFvvEEEEC1B8ue170006IS7_EERKNS0_IT_EE, symObjAddr: 0xCA0, symBinAddr: 0x100004B9C, symSize: 0x34 }
  - { offsetInCU: 0xF7EB, offset: 0xF7EB, size: 0x8, addend: 0x0, symName: __ZNSt3__19allocatorIZN5dgrad6TensorC1ESt16initializer_listIdEEUlvE_EC1B8ue170006INS_10__function6__funcIS5_S6_FvvEEEEERKNS0_IT_EE, symObjAddr: 0xCD4, symBinAddr: 0x100004BD0, symSize: 0x34 }
  - { offsetInCU: 0xF828, offset: 0xF828, size: 0x8, addend: 0x0, symName: __ZNSt3__110__function6__funcIZN5dgrad6TensorC1ESt16initializer_listIdEEUlvE_NS_9allocatorIS6_EEFvvEEC1B8ue170006EOS6_OS8_, symObjAddr: 0xD08, symBinAddr: 0x100004C04, symSize: 0x3C }
  - { offsetInCU: 0xF870, offset: 0xF870, size: 0x8, addend: 0x0, symName: __ZNSt3__19allocatorINS_10__function6__funcIZN5dgrad6TensorC1ESt16initializer_listIdEEUlvE_NS0_IS7_EEFvvEEEEC2B8ue170006IS7_EERKNS0_IT_EE, symObjAddr: 0xD44, symBinAddr: 0x100004C40, symSize: 0x30 }
  - { offsetInCU: 0xF8AD, offset: 0xF8AD, size: 0x8, addend: 0x0, symName: __ZNSt3__116__non_trivial_ifILb1ENS_9allocatorINS_10__function6__funcIZN5dgrad6TensorC1ESt16initializer_listIdEEUlvE_NS1_IS8_EEFvvEEEEEEC2B8ue170006Ev, symObjAddr: 0xD74, symBinAddr: 0x100004C70, symSize: 0x14 }
  - { offsetInCU: 0xF8D7, offset: 0xF8D7, size: 0x8, addend: 0x0, symName: __ZNSt3__19allocatorIZN5dgrad6TensorC1ESt16initializer_listIdEEUlvE_EC2B8ue170006INS_10__function6__funcIS5_S6_FvvEEEEERKNS0_IT_EE, symObjAddr: 0xD88, symBinAddr: 0x100004C84, symSize: 0x30 }
  - { offsetInCU: 0xF914, offset: 0xF914, size: 0x8, addend: 0x0, symName: __ZNSt3__110__function6__funcIZN5dgrad6TensorC1ESt16initializer_listIdEEUlvE_NS_9allocatorIS6_EEFvvEEC2B8ue170006EOS6_OS8_, symObjAddr: 0xDB8, symBinAddr: 0x100004CB4, symSize: 0x88 }
  - { offsetInCU: 0xF95C, offset: 0xF95C, size: 0x8, addend: 0x0, symName: __ZNSt3__110__function6__baseIFvvEEC2B8ue170006Ev, symObjAddr: 0xE40, symBinAddr: 0x100004D3C, symSize: 0x24 }
  - { offsetInCU: 0xF986, offset: 0xF986, size: 0x8, addend: 0x0, symName: __ZNSt3__110__function12__alloc_funcIZN5dgrad6TensorC1ESt16initializer_listIdEEUlvE_NS_9allocatorIS6_EEFvvEEC1B8ue170006EOS6_OS8_, symObjAddr: 0xE64, symBinAddr: 0x100004D60, symSize: 0x3C }
  - { offsetInCU: 0xF9CC, offset: 0xF9CC, size: 0x8, addend: 0x0, symName: __ZNSt3__110__function6__baseIFvvEED2Ev, symObjAddr: 0xEA0, symBinAddr: 0x100004D9C, symSize: 0x14 }
  - { offsetInCU: 0xF9F6, offset: 0xF9F6, size: 0x8, addend: 0x0, symName: __ZNSt3__110__function6__funcIZN5dgrad6TensorC1ESt16initializer_listIdEEUlvE_NS_9allocatorIS6_EEFvvEED1Ev, symObjAddr: 0xEB4, symBinAddr: 0x100004DB0, symSize: 0x2C }
  - { offsetInCU: 0xFA23, offset: 0xFA23, size: 0x8, addend: 0x0, symName: __ZNSt3__110__function6__funcIZN5dgrad6TensorC1ESt16initializer_listIdEEUlvE_NS_9allocatorIS6_EEFvvEED0Ev, symObjAddr: 0xEE0, symBinAddr: 0x100004DDC, symSize: 0x30 }
  - { offsetInCU: 0xFA50, offset: 0xFA50, size: 0x8, addend: 0x0, symName: __ZNKSt3__110__function6__funcIZN5dgrad6TensorC1ESt16initializer_listIdEEUlvE_NS_9allocatorIS6_EEFvvEE7__cloneEv, symObjAddr: 0xF10, symBinAddr: 0x100004E0C, symSize: 0xFC }
  - { offsetInCU: 0xFAA2, offset: 0xFAA2, size: 0x8, addend: 0x0, symName: __ZNKSt3__110__function6__funcIZN5dgrad6TensorC1ESt16initializer_listIdEEUlvE_NS_9allocatorIS6_EEFvvEE7__cloneEPNS0_6__baseIS9_EE, symObjAddr: 0x100C, symBinAddr: 0x100004F08, symSize: 0x58 }
  - { offsetInCU: 0xFAD9, offset: 0xFAD9, size: 0x8, addend: 0x0, symName: __ZNSt3__110__function6__funcIZN5dgrad6TensorC1ESt16initializer_listIdEEUlvE_NS_9allocatorIS6_EEFvvEE7destroyEv, symObjAddr: 0x1064, symBinAddr: 0x100004F60, symSize: 0x28 }
  - { offsetInCU: 0xFB01, offset: 0xFB01, size: 0x8, addend: 0x0, symName: __ZNSt3__110__function6__funcIZN5dgrad6TensorC1ESt16initializer_listIdEEUlvE_NS_9allocatorIS6_EEFvvEE18destroy_deallocateEv, symObjAddr: 0x108C, symBinAddr: 0x100004F88, symSize: 0x58 }
  - { offsetInCU: 0xFB44, offset: 0xFB44, size: 0x8, addend: 0x0, symName: __ZNSt3__110__function6__funcIZN5dgrad6TensorC1ESt16initializer_listIdEEUlvE_NS_9allocatorIS6_EEFvvEEclEv, symObjAddr: 0x10E4, symBinAddr: 0x100004FE0, symSize: 0x28 }
  - { offsetInCU: 0xFB6C, offset: 0xFB6C, size: 0x8, addend: 0x0, symName: __ZNKSt3__110__function6__funcIZN5dgrad6TensorC1ESt16initializer_listIdEEUlvE_NS_9allocatorIS6_EEFvvEE6targetERKSt9type_info, symObjAddr: 0x110C, symBinAddr: 0x100005008, symSize: 0x60 }
  - { offsetInCU: 0xFBA3, offset: 0xFBA3, size: 0x8, addend: 0x0, symName: __ZNKSt3__110__function6__funcIZN5dgrad6TensorC1ESt16initializer_listIdEEUlvE_NS_9allocatorIS6_EEFvvEE11target_typeEv, symObjAddr: 0x116C, symBinAddr: 0x100005068, symSize: 0x18 }
  - { offsetInCU: 0xFBCB, offset: 0xFBCB, size: 0x8, addend: 0x0, symName: __ZNSt3__110__function6__baseIFvvEED1Ev, symObjAddr: 0x1184, symBinAddr: 0x100005080, symSize: 0x14 }
  - { offsetInCU: 0xFBF5, offset: 0xFBF5, size: 0x8, addend: 0x0, symName: __ZNSt3__110__function6__baseIFvvEED0Ev, symObjAddr: 0x1198, symBinAddr: 0x100005094, symSize: 0xC }
  - { offsetInCU: 0xFC1F, offset: 0xFC1F, size: 0x8, addend: 0x0, symName: __ZNSt3__110__function12__alloc_funcIZN5dgrad6TensorC1ESt16initializer_listIdEEUlvE_NS_9allocatorIS6_EEFvvEEC2B8ue170006EOS6_OS8_, symObjAddr: 0x11A4, symBinAddr: 0x1000050A0, symSize: 0x5C }
  - { offsetInCU: 0xFC65, offset: 0xFC65, size: 0x8, addend: 0x0, symName: __ZNSt3__117__compressed_pairIZN5dgrad6TensorC1ESt16initializer_listIdEEUlvE_NS_9allocatorIS5_EEEC1B8ue170006IJOS5_EJOS7_EEENS_21piecewise_construct_tENS_5tupleIJDpT_EEENSD_IJDpT0_EEE, symObjAddr: 0x1258, symBinAddr: 0x100005154, symSize: 0x3C }
  - { offsetInCU: 0xFCCF, offset: 0xFCCF, size: 0x8, addend: 0x0, symName: __ZNSt3__15tupleIJOZN5dgrad6TensorC1ESt16initializer_listIdEEUlvE_EEC1B8ue170006IJS5_ELi0EEEDpOT_, symObjAddr: 0x1294, symBinAddr: 0x100005190, symSize: 0x34 }
  - { offsetInCU: 0xFD19, offset: 0xFD19, size: 0x8, addend: 0x0, symName: __ZNSt3__15tupleIJOZN5dgrad6TensorC1ESt16initializer_listIdEEUlvE_EEC2B8ue170006IJS5_ELi0EEEDpOT_, symObjAddr: 0x12C8, symBinAddr: 0x1000051C4, symSize: 0x34 }
  - { offsetInCU: 0xFD63, offset: 0xFD63, size: 0x8, addend: 0x0, symName: __ZNSt3__112__tuple_implINS_15__tuple_indicesIJLm0EEEEJOZN5dgrad6TensorC1ESt16initializer_listIdEEUlvE_EEC1B8ue170006IJLm0EEJS8_EJEJEJS7_EEENS1_IJXspT_EEEENS_13__tuple_typesIJDpT0_EEENS1_IJXspT1_EEEENSC_IJDpT2_EEEDpOT3_, symObjAddr: 0x12FC, symBinAddr: 0x1000051F8, symSize: 0x34 }
  - { offsetInCU: 0xFDF4, offset: 0xFDF4, size: 0x8, addend: 0x0, symName: __ZNSt3__112__tuple_implINS_15__tuple_indicesIJLm0EEEEJOZN5dgrad6TensorC1ESt16initializer_listIdEEUlvE_EEC2B8ue170006IJLm0EEJS8_EJEJEJS7_EEENS1_IJXspT_EEEENS_13__tuple_typesIJDpT0_EEENS1_IJXspT1_EEEENSC_IJDpT2_EEEDpOT3_, symObjAddr: 0x1330, symBinAddr: 0x10000522C, symSize: 0x34 }
  - { offsetInCU: 0xFE85, offset: 0xFE85, size: 0x8, addend: 0x0, symName: __ZNSt3__112__tuple_leafILm0EOZN5dgrad6TensorC1ESt16initializer_listIdEEUlvE_Lb0EEC2B8ue170006IS5_vEEOT_, symObjAddr: 0x1364, symBinAddr: 0x100005260, symSize: 0x20 }
  - { offsetInCU: 0xFEC8, offset: 0xFEC8, size: 0x8, addend: 0x0, symName: __ZNSt3__15tupleIJONS_9allocatorIZN5dgrad6TensorC1ESt16initializer_listIdEEUlvE_EEEEC1B8ue170006IJS7_ELi0EEEDpOT_, symObjAddr: 0x1384, symBinAddr: 0x100005280, symSize: 0x34 }
  - { offsetInCU: 0xFF12, offset: 0xFF12, size: 0x8, addend: 0x0, symName: __ZNSt3__15tupleIJONS_9allocatorIZN5dgrad6TensorC1ESt16initializer_listIdEEUlvE_EEEEC2B8ue170006IJS7_ELi0EEEDpOT_, symObjAddr: 0x13B8, symBinAddr: 0x1000052B4, symSize: 0x34 }
  - { offsetInCU: 0xFF5C, offset: 0xFF5C, size: 0x8, addend: 0x0, symName: __ZNSt3__112__tuple_implINS_15__tuple_indicesIJLm0EEEEJONS_9allocatorIZN5dgrad6TensorC1ESt16initializer_listIdEEUlvE_EEEEC1B8ue170006IJLm0EEJSA_EJEJEJS9_EEENS1_IJXspT_EEEENS_13__tuple_typesIJDpT0_EEENS1_IJXspT1_EEEENSE_IJDpT2_EEEDpOT3_, symObjAddr: 0x13EC, symBinAddr: 0x1000052E8, symSize: 0x34 }
  - { offsetInCU: 0xFFED, offset: 0xFFED, size: 0x8, addend: 0x0, symName: __ZNSt3__112__tuple_implINS_15__tuple_indicesIJLm0EEEEJONS_9allocatorIZN5dgrad6TensorC1ESt16initializer_listIdEEUlvE_EEEEC2B8ue170006IJLm0EEJSA_EJEJEJS9_EEENS1_IJXspT_EEEENS_13__tuple_typesIJDpT0_EEENS1_IJXspT1_EEEENSE_IJDpT2_EEEDpOT3_, symObjAddr: 0x1420, symBinAddr: 0x10000531C, symSize: 0x34 }
  - { offsetInCU: 0x1007E, offset: 0x1007E, size: 0x8, addend: 0x0, symName: __ZNSt3__112__tuple_leafILm0EONS_9allocatorIZN5dgrad6TensorC1ESt16initializer_listIdEEUlvE_EELb0EEC2B8ue170006IS7_vEEOT_, symObjAddr: 0x1454, symBinAddr: 0x100005350, symSize: 0x20 }
  - { offsetInCU: 0x100C1, offset: 0x100C1, size: 0x8, addend: 0x0, symName: __ZNSt3__117__compressed_pairIZN5dgrad6TensorC1ESt16initializer_listIdEEUlvE_NS_9allocatorIS5_EEEC2B8ue170006IJOS5_EJOS7_EEENS_21piecewise_construct_tENS_5tupleIJDpT_EEENSD_IJDpT0_EEE, symObjAddr: 0x1474, symBinAddr: 0x100005370, symSize: 0x54 }
  - { offsetInCU: 0x1012B, offset: 0x1012B, size: 0x8, addend: 0x0, symName: __ZNSt3__122__compressed_pair_elemIZN5dgrad6TensorC1ESt16initializer_listIdEEUlvE_Li0ELb0EEC2B8ue170006IJOS5_EJLm0EEEENS_21piecewise_construct_tENS_5tupleIJDpT_EEENS_15__tuple_indicesIJXspT0_EEEE, symObjAddr: 0x14C8, symBinAddr: 0x1000053C4, symSize: 0x44 }
  - { offsetInCU: 0x1018E, offset: 0x1018E, size: 0x8, addend: 0x0, symName: __ZNSt3__122__compressed_pair_elemINS_9allocatorIZN5dgrad6TensorC1ESt16initializer_listIdEEUlvE_EELi1ELb1EEC2B8ue170006IJOS7_EJLm0EEEENS_21piecewise_construct_tENS_5tupleIJDpT_EEENS_15__tuple_indicesIJXspT0_EEEE, symObjAddr: 0x150C, symBinAddr: 0x100005408, symSize: 0x38 }
  - { offsetInCU: 0x101F1, offset: 0x101F1, size: 0x8, addend: 0x0, symName: __ZNSt3__112__tuple_leafILm0EOZN5dgrad6TensorC1ESt16initializer_listIdEEUlvE_Lb0EE3getB8ue170006Ev, symObjAddr: 0x1568, symBinAddr: 0x100005464, symSize: 0x18 }
  - { offsetInCU: 0x10217, offset: 0x10217, size: 0x8, addend: 0x0, symName: __ZNSt3__112__tuple_leafILm0EONS_9allocatorIZN5dgrad6TensorC1ESt16initializer_listIdEEUlvE_EELb0EE3getB8ue170006Ev, symObjAddr: 0x15A4, symBinAddr: 0x1000054A0, symSize: 0x18 }
  - { offsetInCU: 0x1023D, offset: 0x1023D, size: 0x8, addend: 0x0, symName: __ZNSt3__110__function6__funcIZN5dgrad6TensorC1ESt16initializer_listIdEEUlvE_NS_9allocatorIS6_EEFvvEED2Ev, symObjAddr: 0x15BC, symBinAddr: 0x1000054B8, symSize: 0x2C }
  - { offsetInCU: 0x1026A, offset: 0x1026A, size: 0x8, addend: 0x0, symName: __ZNKSt3__110__function12__alloc_funcIZN5dgrad6TensorC1ESt16initializer_listIdEEUlvE_NS_9allocatorIS6_EEFvvEE15__get_allocatorB8ue170006Ev, symObjAddr: 0x15E8, symBinAddr: 0x1000054E4, symSize: 0x24 }
  - { offsetInCU: 0x10290, offset: 0x10290, size: 0x8, addend: 0x0, symName: __ZNSt3__19allocatorINS_10__function6__funcIZN5dgrad6TensorC1ESt16initializer_listIdEEUlvE_NS0_IS7_EEFvvEEEE8allocateB8ue170006Em, symObjAddr: 0x160C, symBinAddr: 0x100005508, symSize: 0x58 }
  - { offsetInCU: 0x102D3, offset: 0x102D3, size: 0x8, addend: 0x0, symName: __ZNSt3__122__allocator_destructorINS_9allocatorINS_10__function6__funcIZN5dgrad6TensorC1ESt16initializer_listIdEEUlvE_NS1_IS8_EEFvvEEEEEEC1B8ue170006ERSC_m, symObjAddr: 0x1664, symBinAddr: 0x100005560, symSize: 0x3C }
  - { offsetInCU: 0x103A7, offset: 0x103A7, size: 0x8, addend: 0x0, symName: __ZNSt3__110unique_ptrINS_10__function6__funcIZN5dgrad6TensorC1ESt16initializer_listIdEEUlvE_NS_9allocatorIS7_EEFvvEEENS_22__allocator_destructorINS8_ISB_EEEEEC1B8ue170006ILb1EvEEPSB_NS_16__dependent_typeINS_27__unique_ptr_deleter_sfinaeISE_EEXT_EE20__good_rval_ref_typeE, symObjAddr: 0x16A0, symBinAddr: 0x10000559C, symSize: 0x3C }
  - { offsetInCU: 0x103F8, offset: 0x103F8, size: 0x8, addend: 0x0, symName: __ZNKSt3__110unique_ptrINS_10__function6__funcIZN5dgrad6TensorC1ESt16initializer_listIdEEUlvE_NS_9allocatorIS7_EEFvvEEENS_22__allocator_destructorINS8_ISB_EEEEE3getB8ue170006Ev, symObjAddr: 0x16DC, symBinAddr: 0x1000055D8, symSize: 0x28 }
  - { offsetInCU: 0x1041E, offset: 0x1041E, size: 0x8, addend: 0x0, symName: __ZNKSt3__110__function12__alloc_funcIZN5dgrad6TensorC1ESt16initializer_listIdEEUlvE_NS_9allocatorIS6_EEFvvEE8__targetB8ue170006Ev, symObjAddr: 0x1704, symBinAddr: 0x100005600, symSize: 0x24 }
  - { offsetInCU: 0x10444, offset: 0x10444, size: 0x8, addend: 0x0, symName: __ZNSt3__110__function6__funcIZN5dgrad6TensorC1ESt16initializer_listIdEEUlvE_NS_9allocatorIS6_EEFvvEEC1B8ue170006ERKS6_OS8_, symObjAddr: 0x1728, symBinAddr: 0x100005624, symSize: 0x3C }
  - { offsetInCU: 0x1048C, offset: 0x1048C, size: 0x8, addend: 0x0, symName: __ZNSt3__110unique_ptrINS_10__function6__funcIZN5dgrad6TensorC1ESt16initializer_listIdEEUlvE_NS_9allocatorIS7_EEFvvEEENS_22__allocator_destructorINS8_ISB_EEEEE7releaseB8ue170006Ev, symObjAddr: 0x1764, symBinAddr: 0x100005660, symSize: 0x44 }
  - { offsetInCU: 0x104C1, offset: 0x104C1, size: 0x8, addend: 0x0, symName: __ZNSt3__110unique_ptrINS_10__function6__funcIZN5dgrad6TensorC1ESt16initializer_listIdEEUlvE_NS_9allocatorIS7_EEFvvEEENS_22__allocator_destructorINS8_ISB_EEEEED1B8ue170006Ev, symObjAddr: 0x17A8, symBinAddr: 0x1000056A4, symSize: 0x2C }
  - { offsetInCU: 0x104EB, offset: 0x104EB, size: 0x8, addend: 0x0, symName: __ZNKSt3__117__compressed_pairIZN5dgrad6TensorC1ESt16initializer_listIdEEUlvE_NS_9allocatorIS5_EEE6secondB8ue170006Ev, symObjAddr: 0x17D4, symBinAddr: 0x1000056D0, symSize: 0x24 }
  - { offsetInCU: 0x10511, offset: 0x10511, size: 0x8, addend: 0x0, symName: __ZNKSt3__122__compressed_pair_elemINS_9allocatorIZN5dgrad6TensorC1ESt16initializer_listIdEEUlvE_EELi1ELb1EE5__getB8ue170006Ev, symObjAddr: 0x17F8, symBinAddr: 0x1000056F4, symSize: 0x14 }
  - { offsetInCU: 0x10541, offset: 0x10541, size: 0x8, addend: 0x0, symName: __ZNSt3__116allocator_traitsINS_9allocatorINS_10__function6__funcIZN5dgrad6TensorC1ESt16initializer_listIdEEUlvE_NS1_IS8_EEFvvEEEEEE8max_sizeB8ue170006ISC_vEEmRKSC_, symObjAddr: 0x180C, symBinAddr: 0x100005708, symSize: 0x24 }
  - { offsetInCU: 0x1056F, offset: 0x1056F, size: 0x8, addend: 0x0, symName: __ZNKSt3__19allocatorINS_10__function6__funcIZN5dgrad6TensorC1ESt16initializer_listIdEEUlvE_NS0_IS7_EEFvvEEEE8max_sizeB8ue170006Ev, symObjAddr: 0x188C, symBinAddr: 0x100005788, symSize: 0x14 }
  - { offsetInCU: 0x10595, offset: 0x10595, size: 0x8, addend: 0x0, symName: __ZNSt3__122__allocator_destructorINS_9allocatorINS_10__function6__funcIZN5dgrad6TensorC1ESt16initializer_listIdEEUlvE_NS1_IS8_EEFvvEEEEEEC2B8ue170006ERSC_m, symObjAddr: 0x18C4, symBinAddr: 0x1000057C0, symSize: 0x2C }
  - { offsetInCU: 0x105DB, offset: 0x105DB, size: 0x8, addend: 0x0, symName: __ZNSt3__110unique_ptrINS_10__function6__funcIZN5dgrad6TensorC1ESt16initializer_listIdEEUlvE_NS_9allocatorIS7_EEFvvEEENS_22__allocator_destructorINS8_ISB_EEEEEC2B8ue170006ILb1EvEEPSB_NS_16__dependent_typeINS_27__unique_ptr_deleter_sfinaeISE_EEXT_EE20__good_rval_ref_typeE, symObjAddr: 0x18F0, symBinAddr: 0x1000057EC, symSize: 0x48 }
  - { offsetInCU: 0x1062C, offset: 0x1062C, size: 0x8, addend: 0x0, symName: __ZNSt3__117__compressed_pairIPNS_10__function6__funcIZN5dgrad6TensorC1ESt16initializer_listIdEEUlvE_NS_9allocatorIS7_EEFvvEEENS_22__allocator_destructorINS8_ISB_EEEEEC1B8ue170006IRSC_SF_EEOT_OT0_, symObjAddr: 0x1938, symBinAddr: 0x100005834, symSize: 0x3C }
  - { offsetInCU: 0x10684, offset: 0x10684, size: 0x8, addend: 0x0, symName: __ZNSt3__117__compressed_pairIPNS_10__function6__funcIZN5dgrad6TensorC1ESt16initializer_listIdEEUlvE_NS_9allocatorIS7_EEFvvEEENS_22__allocator_destructorINS8_ISB_EEEEEC2B8ue170006IRSC_SF_EEOT_OT0_, symObjAddr: 0x1980, symBinAddr: 0x10000587C, symSize: 0x48 }
  - { offsetInCU: 0x106DC, offset: 0x106DC, size: 0x8, addend: 0x0, symName: __ZNSt3__122__compressed_pair_elemIPNS_10__function6__funcIZN5dgrad6TensorC1ESt16initializer_listIdEEUlvE_NS_9allocatorIS7_EEFvvEEELi0ELb0EEC2B8ue170006IRSC_vEEOT_, symObjAddr: 0x19C8, symBinAddr: 0x1000058C4, symSize: 0x24 }
  - { offsetInCU: 0x1071E, offset: 0x1071E, size: 0x8, addend: 0x0, symName: __ZNSt3__122__compressed_pair_elemINS_22__allocator_destructorINS_9allocatorINS_10__function6__funcIZN5dgrad6TensorC1ESt16initializer_listIdEEUlvE_NS2_IS9_EEFvvEEEEEEELi1ELb0EEC2B8ue170006ISE_vEEOT_, symObjAddr: 0x19EC, symBinAddr: 0x1000058E8, symSize: 0x24 }
  - { offsetInCU: 0x10760, offset: 0x10760, size: 0x8, addend: 0x0, symName: __ZNKSt3__117__compressed_pairIPNS_10__function6__funcIZN5dgrad6TensorC1ESt16initializer_listIdEEUlvE_NS_9allocatorIS7_EEFvvEEENS_22__allocator_destructorINS8_ISB_EEEEE5firstB8ue170006Ev, symObjAddr: 0x1A10, symBinAddr: 0x10000590C, symSize: 0x24 }
  - { offsetInCU: 0x10786, offset: 0x10786, size: 0x8, addend: 0x0, symName: __ZNKSt3__122__compressed_pair_elemIPNS_10__function6__funcIZN5dgrad6TensorC1ESt16initializer_listIdEEUlvE_NS_9allocatorIS7_EEFvvEEELi0ELb0EE5__getB8ue170006Ev, symObjAddr: 0x1A34, symBinAddr: 0x100005930, symSize: 0x14 }
  - { offsetInCU: 0x107AC, offset: 0x107AC, size: 0x8, addend: 0x0, symName: __ZNKSt3__117__compressed_pairIZN5dgrad6TensorC1ESt16initializer_listIdEEUlvE_NS_9allocatorIS5_EEE5firstB8ue170006Ev, symObjAddr: 0x1A48, symBinAddr: 0x100005944, symSize: 0x24 }
  - { offsetInCU: 0x107D2, offset: 0x107D2, size: 0x8, addend: 0x0, symName: __ZNKSt3__122__compressed_pair_elemIZN5dgrad6TensorC1ESt16initializer_listIdEEUlvE_Li0ELb0EE5__getB8ue170006Ev, symObjAddr: 0x1A6C, symBinAddr: 0x100005968, symSize: 0x14 }
  - { offsetInCU: 0x107F8, offset: 0x107F8, size: 0x8, addend: 0x0, symName: __ZNSt3__110__function6__funcIZN5dgrad6TensorC1ESt16initializer_listIdEEUlvE_NS_9allocatorIS6_EEFvvEEC2B8ue170006ERKS6_OS8_, symObjAddr: 0x1A80, symBinAddr: 0x10000597C, symSize: 0x88 }
  - { offsetInCU: 0x10840, offset: 0x10840, size: 0x8, addend: 0x0, symName: __ZNSt3__110__function12__alloc_funcIZN5dgrad6TensorC1ESt16initializer_listIdEEUlvE_NS_9allocatorIS6_EEFvvEEC1B8ue170006ERKS6_OS8_, symObjAddr: 0x1B08, symBinAddr: 0x100005A04, symSize: 0x3C }
  - { offsetInCU: 0x10886, offset: 0x10886, size: 0x8, addend: 0x0, symName: __ZNSt3__110__function12__alloc_funcIZN5dgrad6TensorC1ESt16initializer_listIdEEUlvE_NS_9allocatorIS6_EEFvvEEC2B8ue170006ERKS6_OS8_, symObjAddr: 0x1B44, symBinAddr: 0x100005A40, symSize: 0x5C }
  - { offsetInCU: 0x108CC, offset: 0x108CC, size: 0x8, addend: 0x0, symName: __ZNSt3__117__compressed_pairIZN5dgrad6TensorC1ESt16initializer_listIdEEUlvE_NS_9allocatorIS5_EEEC1B8ue170006IJRKS5_EJOS7_EEENS_21piecewise_construct_tENS_5tupleIJDpT_EEENSE_IJDpT0_EEE, symObjAddr: 0x1BCC, symBinAddr: 0x100005AC8, symSize: 0x3C }
  - { offsetInCU: 0x10936, offset: 0x10936, size: 0x8, addend: 0x0, symName: __ZNSt3__15tupleIJRKZN5dgrad6TensorC1ESt16initializer_listIdEEUlvE_EEC1B8ue170006INS_4_AndELi0EEES7_, symObjAddr: 0x1C08, symBinAddr: 0x100005B04, symSize: 0x34 }
  - { offsetInCU: 0x1097E, offset: 0x1097E, size: 0x8, addend: 0x0, symName: __ZNSt3__15tupleIJRKZN5dgrad6TensorC1ESt16initializer_listIdEEUlvE_EEC2B8ue170006INS_4_AndELi0EEES7_, symObjAddr: 0x1C3C, symBinAddr: 0x100005B38, symSize: 0x34 }
  - { offsetInCU: 0x109C6, offset: 0x109C6, size: 0x8, addend: 0x0, symName: __ZNSt3__112__tuple_implINS_15__tuple_indicesIJLm0EEEEJRKZN5dgrad6TensorC1ESt16initializer_listIdEEUlvE_EEC1B8ue170006IJLm0EEJS9_EJEJEJS9_EEENS1_IJXspT_EEEENS_13__tuple_typesIJDpT0_EEENS1_IJXspT1_EEEENSD_IJDpT2_EEEDpOT3_, symObjAddr: 0x1C70, symBinAddr: 0x100005B6C, symSize: 0x34 }
  - { offsetInCU: 0x10A57, offset: 0x10A57, size: 0x8, addend: 0x0, symName: __ZNSt3__112__tuple_implINS_15__tuple_indicesIJLm0EEEEJRKZN5dgrad6TensorC1ESt16initializer_listIdEEUlvE_EEC2B8ue170006IJLm0EEJS9_EJEJEJS9_EEENS1_IJXspT_EEEENS_13__tuple_typesIJDpT0_EEENS1_IJXspT1_EEEENSD_IJDpT2_EEEDpOT3_, symObjAddr: 0x1CA4, symBinAddr: 0x100005BA0, symSize: 0x34 }
  - { offsetInCU: 0x10AE8, offset: 0x10AE8, size: 0x8, addend: 0x0, symName: __ZNSt3__112__tuple_leafILm0ERKZN5dgrad6TensorC1ESt16initializer_listIdEEUlvE_Lb0EEC2B8ue170006IS7_vEEOT_, symObjAddr: 0x1CD8, symBinAddr: 0x100005BD4, symSize: 0x20 }
  - { offsetInCU: 0x10B2B, offset: 0x10B2B, size: 0x8, addend: 0x0, symName: __ZNSt3__117__compressed_pairIZN5dgrad6TensorC1ESt16initializer_listIdEEUlvE_NS_9allocatorIS5_EEEC2B8ue170006IJRKS5_EJOS7_EEENS_21piecewise_construct_tENS_5tupleIJDpT_EEENSE_IJDpT0_EEE, symObjAddr: 0x1CF8, symBinAddr: 0x100005BF4, symSize: 0x54 }
  - { offsetInCU: 0x10B95, offset: 0x10B95, size: 0x8, addend: 0x0, symName: __ZNSt3__122__compressed_pair_elemIZN5dgrad6TensorC1ESt16initializer_listIdEEUlvE_Li0ELb0EEC2B8ue170006IJRKS5_EJLm0EEEENS_21piecewise_construct_tENS_5tupleIJDpT_EEENS_15__tuple_indicesIJXspT0_EEEE, symObjAddr: 0x1D4C, symBinAddr: 0x100005C48, symSize: 0x44 }
  - { offsetInCU: 0x10BF8, offset: 0x10BF8, size: 0x8, addend: 0x0, symName: __ZNSt3__112__tuple_leafILm0ERKZN5dgrad6TensorC1ESt16initializer_listIdEEUlvE_Lb0EE3getB8ue170006Ev, symObjAddr: 0x1DB4, symBinAddr: 0x100005CB0, symSize: 0x18 }
  - { offsetInCU: 0x10C1E, offset: 0x10C1E, size: 0x8, addend: 0x0, symName: __ZNSt3__117__compressed_pairIPNS_10__function6__funcIZN5dgrad6TensorC1ESt16initializer_listIdEEUlvE_NS_9allocatorIS7_EEFvvEEENS_22__allocator_destructorINS8_ISB_EEEEE5firstB8ue170006Ev, symObjAddr: 0x1DCC, symBinAddr: 0x100005CC8, symSize: 0x24 }
  - { offsetInCU: 0x10C44, offset: 0x10C44, size: 0x8, addend: 0x0, symName: __ZNSt3__122__compressed_pair_elemIPNS_10__function6__funcIZN5dgrad6TensorC1ESt16initializer_listIdEEUlvE_NS_9allocatorIS7_EEFvvEEELi0ELb0EE5__getB8ue170006Ev, symObjAddr: 0x1DF0, symBinAddr: 0x100005CEC, symSize: 0x14 }
  - { offsetInCU: 0x10C6A, offset: 0x10C6A, size: 0x8, addend: 0x0, symName: __ZNSt3__110unique_ptrINS_10__function6__funcIZN5dgrad6TensorC1ESt16initializer_listIdEEUlvE_NS_9allocatorIS7_EEFvvEEENS_22__allocator_destructorINS8_ISB_EEEEED2B8ue170006Ev, symObjAddr: 0x1E04, symBinAddr: 0x100005D00, symSize: 0x30 }
  - { offsetInCU: 0x10C94, offset: 0x10C94, size: 0x8, addend: 0x0, symName: __ZNSt3__110unique_ptrINS_10__function6__funcIZN5dgrad6TensorC1ESt16initializer_listIdEEUlvE_NS_9allocatorIS7_EEFvvEEENS_22__allocator_destructorINS8_ISB_EEEEE5resetB8ue170006EPSB_, symObjAddr: 0x1E34, symBinAddr: 0x100005D30, symSize: 0x78 }
  - { offsetInCU: 0x10CD8, offset: 0x10CD8, size: 0x8, addend: 0x0, symName: __ZNSt3__117__compressed_pairIPNS_10__function6__funcIZN5dgrad6TensorC1ESt16initializer_listIdEEUlvE_NS_9allocatorIS7_EEFvvEEENS_22__allocator_destructorINS8_ISB_EEEEE6secondB8ue170006Ev, symObjAddr: 0x1EAC, symBinAddr: 0x100005DA8, symSize: 0x28 }
  - { offsetInCU: 0x10CFE, offset: 0x10CFE, size: 0x8, addend: 0x0, symName: __ZNSt3__122__allocator_destructorINS_9allocatorINS_10__function6__funcIZN5dgrad6TensorC1ESt16initializer_listIdEEUlvE_NS1_IS8_EEFvvEEEEEEclB8ue170006EPSB_, symObjAddr: 0x1ED4, symBinAddr: 0x100005DD0, symSize: 0x34 }
  - { offsetInCU: 0x10D32, offset: 0x10D32, size: 0x8, addend: 0x0, symName: __ZNSt3__122__compressed_pair_elemINS_22__allocator_destructorINS_9allocatorINS_10__function6__funcIZN5dgrad6TensorC1ESt16initializer_listIdEEUlvE_NS2_IS9_EEFvvEEEEEEELi1ELb0EE5__getB8ue170006Ev, symObjAddr: 0x1F08, symBinAddr: 0x100005E04, symSize: 0x14 }
  - { offsetInCU: 0x10D58, offset: 0x10D58, size: 0x8, addend: 0x0, symName: __ZNSt3__116allocator_traitsINS_9allocatorINS_10__function6__funcIZN5dgrad6TensorC1ESt16initializer_listIdEEUlvE_NS1_IS8_EEFvvEEEEEE10deallocateB8ue170006ERSC_PSB_m, symObjAddr: 0x1F1C, symBinAddr: 0x100005E18, symSize: 0x34 }
  - { offsetInCU: 0x10D9A, offset: 0x10D9A, size: 0x8, addend: 0x0, symName: __ZNSt3__19allocatorINS_10__function6__funcIZN5dgrad6TensorC1ESt16initializer_listIdEEUlvE_NS0_IS7_EEFvvEEEE10deallocateB8ue170006EPSA_m, symObjAddr: 0x1F50, symBinAddr: 0x100005E4C, symSize: 0x40 }
  - { offsetInCU: 0x10DDC, offset: 0x10DDC, size: 0x8, addend: 0x0, symName: __ZNSt3__110__function6__funcIZN5dgrad6TensorC1ESt16initializer_listIdEEUlvE_NS_9allocatorIS6_EEFvvEEC1B8ue170006ERKS6_RKS8_, symObjAddr: 0x200C, symBinAddr: 0x100005F08, symSize: 0x3C }
  - { offsetInCU: 0x10E24, offset: 0x10E24, size: 0x8, addend: 0x0, symName: __ZNSt3__110__function6__funcIZN5dgrad6TensorC1ESt16initializer_listIdEEUlvE_NS_9allocatorIS6_EEFvvEEC2B8ue170006ERKS6_RKS8_, symObjAddr: 0x2048, symBinAddr: 0x100005F44, symSize: 0x88 }
  - { offsetInCU: 0x10E6C, offset: 0x10E6C, size: 0x8, addend: 0x0, symName: __ZNSt3__110__function12__alloc_funcIZN5dgrad6TensorC1ESt16initializer_listIdEEUlvE_NS_9allocatorIS6_EEFvvEEC1B8ue170006ERKS6_RKS8_, symObjAddr: 0x20D0, symBinAddr: 0x100005FCC, symSize: 0x3C }
  - { offsetInCU: 0x10EB2, offset: 0x10EB2, size: 0x8, addend: 0x0, symName: __ZNSt3__110__function12__alloc_funcIZN5dgrad6TensorC1ESt16initializer_listIdEEUlvE_NS_9allocatorIS6_EEFvvEEC2B8ue170006ERKS6_RKS8_, symObjAddr: 0x210C, symBinAddr: 0x100006008, symSize: 0x5C }
  - { offsetInCU: 0x10EF8, offset: 0x10EF8, size: 0x8, addend: 0x0, symName: __ZNSt3__117__compressed_pairIZN5dgrad6TensorC1ESt16initializer_listIdEEUlvE_NS_9allocatorIS5_EEEC1B8ue170006IJRKS5_EJRKS7_EEENS_21piecewise_construct_tENS_5tupleIJDpT_EEENSF_IJDpT0_EEE, symObjAddr: 0x2194, symBinAddr: 0x100006090, symSize: 0x3C }
  - { offsetInCU: 0x10F62, offset: 0x10F62, size: 0x8, addend: 0x0, symName: __ZNSt3__15tupleIJRKNS_9allocatorIZN5dgrad6TensorC1ESt16initializer_listIdEEUlvE_EEEEC1B8ue170006INS_4_AndELi0EEES9_, symObjAddr: 0x21D0, symBinAddr: 0x1000060CC, symSize: 0x34 }
  - { offsetInCU: 0x10FAA, offset: 0x10FAA, size: 0x8, addend: 0x0, symName: __ZNSt3__15tupleIJRKNS_9allocatorIZN5dgrad6TensorC1ESt16initializer_listIdEEUlvE_EEEEC2B8ue170006INS_4_AndELi0EEES9_, symObjAddr: 0x2204, symBinAddr: 0x100006100, symSize: 0x34 }
  - { offsetInCU: 0x10FF2, offset: 0x10FF2, size: 0x8, addend: 0x0, symName: __ZNSt3__112__tuple_implINS_15__tuple_indicesIJLm0EEEEJRKNS_9allocatorIZN5dgrad6TensorC1ESt16initializer_listIdEEUlvE_EEEEC1B8ue170006IJLm0EEJSB_EJEJEJSB_EEENS1_IJXspT_EEEENS_13__tuple_typesIJDpT0_EEENS1_IJXspT1_EEEENSF_IJDpT2_EEEDpOT3_, symObjAddr: 0x2238, symBinAddr: 0x100006134, symSize: 0x34 }
  - { offsetInCU: 0x11083, offset: 0x11083, size: 0x8, addend: 0x0, symName: __ZNSt3__112__tuple_implINS_15__tuple_indicesIJLm0EEEEJRKNS_9allocatorIZN5dgrad6TensorC1ESt16initializer_listIdEEUlvE_EEEEC2B8ue170006IJLm0EEJSB_EJEJEJSB_EEENS1_IJXspT_EEEENS_13__tuple_typesIJDpT0_EEENS1_IJXspT1_EEEENSF_IJDpT2_EEEDpOT3_, symObjAddr: 0x226C, symBinAddr: 0x100006168, symSize: 0x34 }
  - { offsetInCU: 0x11114, offset: 0x11114, size: 0x8, addend: 0x0, symName: __ZNSt3__112__tuple_leafILm0ERKNS_9allocatorIZN5dgrad6TensorC1ESt16initializer_listIdEEUlvE_EELb0EEC2B8ue170006IS9_vEEOT_, symObjAddr: 0x22A0, symBinAddr: 0x10000619C, symSize: 0x20 }
  - { offsetInCU: 0x11157, offset: 0x11157, size: 0x8, addend: 0x0, symName: __ZNSt3__117__compressed_pairIZN5dgrad6TensorC1ESt16initializer_listIdEEUlvE_NS_9allocatorIS5_EEEC2B8ue170006IJRKS5_EJRKS7_EEENS_21piecewise_construct_tENS_5tupleIJDpT_EEENSF_IJDpT0_EEE, symObjAddr: 0x22C0, symBinAddr: 0x1000061BC, symSize: 0x54 }
  - { offsetInCU: 0x111C1, offset: 0x111C1, size: 0x8, addend: 0x0, symName: __ZNSt3__122__compressed_pair_elemINS_9allocatorIZN5dgrad6TensorC1ESt16initializer_listIdEEUlvE_EELi1ELb1EEC2B8ue170006IJRKS7_EJLm0EEEENS_21piecewise_construct_tENS_5tupleIJDpT_EEENS_15__tuple_indicesIJXspT0_EEEE, symObjAddr: 0x2314, symBinAddr: 0x100006210, symSize: 0x38 }
  - { offsetInCU: 0x11224, offset: 0x11224, size: 0x8, addend: 0x0, symName: __ZNSt3__112__tuple_leafILm0ERKNS_9allocatorIZN5dgrad6TensorC1ESt16initializer_listIdEEUlvE_EELb0EE3getB8ue170006Ev, symObjAddr: 0x2370, symBinAddr: 0x10000626C, symSize: 0x18 }
  - { offsetInCU: 0x1124A, offset: 0x1124A, size: 0x8, addend: 0x0, symName: __ZNSt3__110__function12__alloc_funcIZN5dgrad6TensorC1ESt16initializer_listIdEEUlvE_NS_9allocatorIS6_EEFvvEE7destroyB8ue170006Ev, symObjAddr: 0x2388, symBinAddr: 0x100006284, symSize: 0x10 }
  - { offsetInCU: 0x11270, offset: 0x11270, size: 0x8, addend: 0x0, symName: __ZNSt3__110__function12__alloc_funcIZN5dgrad6TensorC1ESt16initializer_listIdEEUlvE_NS_9allocatorIS6_EEFvvEEclB8ue170006Ev, symObjAddr: 0x2398, symBinAddr: 0x100006294, symSize: 0x28 }
  - { offsetInCU: 0x11296, offset: 0x11296, size: 0x8, addend: 0x0, symName: __ZNSt3__128__invoke_void_return_wrapperIvLb1EE6__callB8ue170006IJRZN5dgrad6TensorC1ESt16initializer_listIdEEUlvE_EEEvDpOT_, symObjAddr: 0x23C0, symBinAddr: 0x1000062BC, symSize: 0x24 }
  - { offsetInCU: 0x112C5, offset: 0x112C5, size: 0x8, addend: 0x0, symName: __ZNSt3__117__compressed_pairIZN5dgrad6TensorC1ESt16initializer_listIdEEUlvE_NS_9allocatorIS5_EEE5firstB8ue170006Ev, symObjAddr: 0x23E4, symBinAddr: 0x1000062E0, symSize: 0x24 }
  - { offsetInCU: 0x112F0, offset: 0x112F0, size: 0x8, addend: 0x0, symName: __ZZN5dgrad6TensorC1ESt16initializer_listIdEENKUlvE_clEv, symObjAddr: 0x242C, symBinAddr: 0x100006328, symSize: 0x7C }
  - { offsetInCU: 0x11336, offset: 0x11336, size: 0x8, addend: 0x0, symName: __ZNSt3__16vectorIdNS_9allocatorIdEEEixB8ue170006Em, symObjAddr: 0x24A8, symBinAddr: 0x1000063A4, symSize: 0x24 }
  - { offsetInCU: 0x1136D, offset: 0x1136D, size: 0x8, addend: 0x0, symName: __ZNSt3__122__compressed_pair_elemIZN5dgrad6TensorC1ESt16initializer_listIdEEUlvE_Li0ELb0EE5__getB8ue170006Ev, symObjAddr: 0x24CC, symBinAddr: 0x1000063C8, symSize: 0x14 }
  - { offsetInCU: 0x113C9, offset: 0x113C9, size: 0x8, addend: 0x0, symName: __ZNKSt9type_infoeqB8ue170006ERKS_, symObjAddr: 0x24E0, symBinAddr: 0x1000063DC, symSize: 0xDC }
  - { offsetInCU: 0x11467, offset: 0x11467, size: 0x8, addend: 0x0, symName: __ZNSt27__type_info_implementations30__non_unique_arm_rtti_bit_impl21__is_type_name_uniqueB8ue170006Em, symObjAddr: 0x25BC, symBinAddr: 0x1000064B8, symSize: 0x20 }
  - { offsetInCU: 0x1148B, offset: 0x1148B, size: 0x8, addend: 0x0, symName: __ZNSt3__18functionIFvvEEC2IZN5dgrad6TensorC1ESt16initializer_listIdEEUlvE0_vEET_, symObjAddr: 0x25DC, symBinAddr: 0x1000064D8, symSize: 0x30 }
  - { offsetInCU: 0x114D0, offset: 0x114D0, size: 0x8, addend: 0x0, symName: __ZNSt3__110__function12__value_funcIFvvEEC1B8ue170006IZN5dgrad6TensorC1ESt16initializer_listIdEEUlvE0_vEEOT_, symObjAddr: 0x260C, symBinAddr: 0x100006508, symSize: 0x50 }
  - { offsetInCU: 0x11513, offset: 0x11513, size: 0x8, addend: 0x0, symName: __ZNSt3__19allocatorIZN5dgrad6TensorC1ESt16initializer_listIdEEUlvE0_EC1B8ue170006Ev, symObjAddr: 0x265C, symBinAddr: 0x100006558, symSize: 0x2C }
  - { offsetInCU: 0x1153D, offset: 0x1153D, size: 0x8, addend: 0x0, symName: __ZNSt3__110__function12__value_funcIFvvEEC1B8ue170006IZN5dgrad6TensorC1ESt16initializer_listIdEEUlvE0_NS_9allocatorIS9_EEEEOT_RKT0_, symObjAddr: 0x2688, symBinAddr: 0x100006584, symSize: 0x3C }
  - { offsetInCU: 0x11597, offset: 0x11597, size: 0x8, addend: 0x0, symName: __ZNSt3__19allocatorIZN5dgrad6TensorC1ESt16initializer_listIdEEUlvE0_EC2B8ue170006Ev, symObjAddr: 0x26C4, symBinAddr: 0x1000065C0, symSize: 0x2C }
  - { offsetInCU: 0x115C1, offset: 0x115C1, size: 0x8, addend: 0x0, symName: __ZNSt3__116__non_trivial_ifILb1ENS_9allocatorIZN5dgrad6TensorC1ESt16initializer_listIdEEUlvE0_EEEC2B8ue170006Ev, symObjAddr: 0x26F0, symBinAddr: 0x1000065EC, symSize: 0x14 }
  - { offsetInCU: 0x115EB, offset: 0x115EB, size: 0x8, addend: 0x0, symName: __ZNSt3__110__function12__value_funcIFvvEEC2B8ue170006IZN5dgrad6TensorC1ESt16initializer_listIdEEUlvE0_NS_9allocatorIS9_EEEEOT_RKT0_, symObjAddr: 0x2704, symBinAddr: 0x100006600, symSize: 0x94 }
  - { offsetInCU: 0x11691, offset: 0x11691, size: 0x8, addend: 0x0, symName: __ZNSt3__19allocatorINS_10__function6__funcIZN5dgrad6TensorC1ESt16initializer_listIdEEUlvE0_NS0_IS7_EEFvvEEEEC1B8ue170006IS7_EERKNS0_IT_EE, symObjAddr: 0x27B0, symBinAddr: 0x1000066AC, symSize: 0x34 }
  - { offsetInCU: 0x116D3, offset: 0x116D3, size: 0x8, addend: 0x0, symName: __ZNSt3__19allocatorIZN5dgrad6TensorC1ESt16initializer_listIdEEUlvE0_EC1B8ue170006INS_10__function6__funcIS5_S6_FvvEEEEERKNS0_IT_EE, symObjAddr: 0x27E4, symBinAddr: 0x1000066E0, symSize: 0x34 }
  - { offsetInCU: 0x11710, offset: 0x11710, size: 0x8, addend: 0x0, symName: __ZNSt3__110__function6__funcIZN5dgrad6TensorC1ESt16initializer_listIdEEUlvE0_NS_9allocatorIS6_EEFvvEEC1B8ue170006EOS6_OS8_, symObjAddr: 0x2818, symBinAddr: 0x100006714, symSize: 0x3C }
  - { offsetInCU: 0x11758, offset: 0x11758, size: 0x8, addend: 0x0, symName: __ZNSt3__19allocatorINS_10__function6__funcIZN5dgrad6TensorC1ESt16initializer_listIdEEUlvE0_NS0_IS7_EEFvvEEEEC2B8ue170006IS7_EERKNS0_IT_EE, symObjAddr: 0x2854, symBinAddr: 0x100006750, symSize: 0x30 }
  - { offsetInCU: 0x11795, offset: 0x11795, size: 0x8, addend: 0x0, symName: __ZNSt3__116__non_trivial_ifILb1ENS_9allocatorINS_10__function6__funcIZN5dgrad6TensorC1ESt16initializer_listIdEEUlvE0_NS1_IS8_EEFvvEEEEEEC2B8ue170006Ev, symObjAddr: 0x2884, symBinAddr: 0x100006780, symSize: 0x14 }
  - { offsetInCU: 0x117BF, offset: 0x117BF, size: 0x8, addend: 0x0, symName: __ZNSt3__19allocatorIZN5dgrad6TensorC1ESt16initializer_listIdEEUlvE0_EC2B8ue170006INS_10__function6__funcIS5_S6_FvvEEEEERKNS0_IT_EE, symObjAddr: 0x2898, symBinAddr: 0x100006794, symSize: 0x30 }
  - { offsetInCU: 0x117FC, offset: 0x117FC, size: 0x8, addend: 0x0, symName: __ZNSt3__110__function6__funcIZN5dgrad6TensorC1ESt16initializer_listIdEEUlvE0_NS_9allocatorIS6_EEFvvEEC2B8ue170006EOS6_OS8_, symObjAddr: 0x28C8, symBinAddr: 0x1000067C4, symSize: 0x88 }
  - { offsetInCU: 0x11844, offset: 0x11844, size: 0x8, addend: 0x0, symName: __ZNSt3__110__function12__alloc_funcIZN5dgrad6TensorC1ESt16initializer_listIdEEUlvE0_NS_9allocatorIS6_EEFvvEEC1B8ue170006EOS6_OS8_, symObjAddr: 0x2950, symBinAddr: 0x10000684C, symSize: 0x3C }
  - { offsetInCU: 0x1188A, offset: 0x1188A, size: 0x8, addend: 0x0, symName: __ZNSt3__110__function6__funcIZN5dgrad6TensorC1ESt16initializer_listIdEEUlvE0_NS_9allocatorIS6_EEFvvEED1Ev, symObjAddr: 0x298C, symBinAddr: 0x100006888, symSize: 0x2C }
  - { offsetInCU: 0x118B7, offset: 0x118B7, size: 0x8, addend: 0x0, symName: __ZNSt3__110__function6__funcIZN5dgrad6TensorC1ESt16initializer_listIdEEUlvE0_NS_9allocatorIS6_EEFvvEED0Ev, symObjAddr: 0x29B8, symBinAddr: 0x1000068B4, symSize: 0x30 }
  - { offsetInCU: 0x118E4, offset: 0x118E4, size: 0x8, addend: 0x0, symName: __ZNKSt3__110__function6__funcIZN5dgrad6TensorC1ESt16initializer_listIdEEUlvE0_NS_9allocatorIS6_EEFvvEE7__cloneEv, symObjAddr: 0x29E8, symBinAddr: 0x1000068E4, symSize: 0xFC }
  - { offsetInCU: 0x11936, offset: 0x11936, size: 0x8, addend: 0x0, symName: __ZNKSt3__110__function6__funcIZN5dgrad6TensorC1ESt16initializer_listIdEEUlvE0_NS_9allocatorIS6_EEFvvEE7__cloneEPNS0_6__baseIS9_EE, symObjAddr: 0x2AE4, symBinAddr: 0x1000069E0, symSize: 0x58 }
  - { offsetInCU: 0x1196D, offset: 0x1196D, size: 0x8, addend: 0x0, symName: __ZNSt3__110__function6__funcIZN5dgrad6TensorC1ESt16initializer_listIdEEUlvE0_NS_9allocatorIS6_EEFvvEE7destroyEv, symObjAddr: 0x2B3C, symBinAddr: 0x100006A38, symSize: 0x28 }
  - { offsetInCU: 0x11995, offset: 0x11995, size: 0x8, addend: 0x0, symName: __ZNSt3__110__function6__funcIZN5dgrad6TensorC1ESt16initializer_listIdEEUlvE0_NS_9allocatorIS6_EEFvvEE18destroy_deallocateEv, symObjAddr: 0x2B64, symBinAddr: 0x100006A60, symSize: 0x58 }
  - { offsetInCU: 0x119D8, offset: 0x119D8, size: 0x8, addend: 0x0, symName: __ZNSt3__110__function6__funcIZN5dgrad6TensorC1ESt16initializer_listIdEEUlvE0_NS_9allocatorIS6_EEFvvEEclEv, symObjAddr: 0x2BBC, symBinAddr: 0x100006AB8, symSize: 0x28 }
  - { offsetInCU: 0x11A00, offset: 0x11A00, size: 0x8, addend: 0x0, symName: __ZNKSt3__110__function6__funcIZN5dgrad6TensorC1ESt16initializer_listIdEEUlvE0_NS_9allocatorIS6_EEFvvEE6targetERKSt9type_info, symObjAddr: 0x2BE4, symBinAddr: 0x100006AE0, symSize: 0x60 }
  - { offsetInCU: 0x11A37, offset: 0x11A37, size: 0x8, addend: 0x0, symName: __ZNKSt3__110__function6__funcIZN5dgrad6TensorC1ESt16initializer_listIdEEUlvE0_NS_9allocatorIS6_EEFvvEE11target_typeEv, symObjAddr: 0x2C44, symBinAddr: 0x100006B40, symSize: 0x18 }
  - { offsetInCU: 0x11A5F, offset: 0x11A5F, size: 0x8, addend: 0x0, symName: __ZNSt3__110__function12__alloc_funcIZN5dgrad6TensorC1ESt16initializer_listIdEEUlvE0_NS_9allocatorIS6_EEFvvEEC2B8ue170006EOS6_OS8_, symObjAddr: 0x2C5C, symBinAddr: 0x100006B58, symSize: 0x5C }
  - { offsetInCU: 0x11AA5, offset: 0x11AA5, size: 0x8, addend: 0x0, symName: __ZNSt3__117__compressed_pairIZN5dgrad6TensorC1ESt16initializer_listIdEEUlvE0_NS_9allocatorIS5_EEEC1B8ue170006IJOS5_EJOS7_EEENS_21piecewise_construct_tENS_5tupleIJDpT_EEENSD_IJDpT0_EEE, symObjAddr: 0x2D10, symBinAddr: 0x100006C0C, symSize: 0x3C }
  - { offsetInCU: 0x11B0F, offset: 0x11B0F, size: 0x8, addend: 0x0, symName: __ZNSt3__15tupleIJOZN5dgrad6TensorC1ESt16initializer_listIdEEUlvE0_EEC1B8ue170006IJS5_ELi0EEEDpOT_, symObjAddr: 0x2D4C, symBinAddr: 0x100006C48, symSize: 0x34 }
  - { offsetInCU: 0x11B59, offset: 0x11B59, size: 0x8, addend: 0x0, symName: __ZNSt3__15tupleIJOZN5dgrad6TensorC1ESt16initializer_listIdEEUlvE0_EEC2B8ue170006IJS5_ELi0EEEDpOT_, symObjAddr: 0x2D80, symBinAddr: 0x100006C7C, symSize: 0x34 }
  - { offsetInCU: 0x11BA3, offset: 0x11BA3, size: 0x8, addend: 0x0, symName: __ZNSt3__112__tuple_implINS_15__tuple_indicesIJLm0EEEEJOZN5dgrad6TensorC1ESt16initializer_listIdEEUlvE0_EEC1B8ue170006IJLm0EEJS8_EJEJEJS7_EEENS1_IJXspT_EEEENS_13__tuple_typesIJDpT0_EEENS1_IJXspT1_EEEENSC_IJDpT2_EEEDpOT3_, symObjAddr: 0x2DB4, symBinAddr: 0x100006CB0, symSize: 0x34 }
  - { offsetInCU: 0x11C34, offset: 0x11C34, size: 0x8, addend: 0x0, symName: __ZNSt3__112__tuple_implINS_15__tuple_indicesIJLm0EEEEJOZN5dgrad6TensorC1ESt16initializer_listIdEEUlvE0_EEC2B8ue170006IJLm0EEJS8_EJEJEJS7_EEENS1_IJXspT_EEEENS_13__tuple_typesIJDpT0_EEENS1_IJXspT1_EEEENSC_IJDpT2_EEEDpOT3_, symObjAddr: 0x2DE8, symBinAddr: 0x100006CE4, symSize: 0x34 }
  - { offsetInCU: 0x11CC5, offset: 0x11CC5, size: 0x8, addend: 0x0, symName: __ZNSt3__112__tuple_leafILm0EOZN5dgrad6TensorC1ESt16initializer_listIdEEUlvE0_Lb0EEC2B8ue170006IS5_vEEOT_, symObjAddr: 0x2E1C, symBinAddr: 0x100006D18, symSize: 0x20 }
  - { offsetInCU: 0x11D08, offset: 0x11D08, size: 0x8, addend: 0x0, symName: __ZNSt3__15tupleIJONS_9allocatorIZN5dgrad6TensorC1ESt16initializer_listIdEEUlvE0_EEEEC1B8ue170006IJS7_ELi0EEEDpOT_, symObjAddr: 0x2E3C, symBinAddr: 0x100006D38, symSize: 0x34 }
  - { offsetInCU: 0x11D52, offset: 0x11D52, size: 0x8, addend: 0x0, symName: __ZNSt3__15tupleIJONS_9allocatorIZN5dgrad6TensorC1ESt16initializer_listIdEEUlvE0_EEEEC2B8ue170006IJS7_ELi0EEEDpOT_, symObjAddr: 0x2E70, symBinAddr: 0x100006D6C, symSize: 0x34 }
  - { offsetInCU: 0x11D9C, offset: 0x11D9C, size: 0x8, addend: 0x0, symName: __ZNSt3__112__tuple_implINS_15__tuple_indicesIJLm0EEEEJONS_9allocatorIZN5dgrad6TensorC1ESt16initializer_listIdEEUlvE0_EEEEC1B8ue170006IJLm0EEJSA_EJEJEJS9_EEENS1_IJXspT_EEEENS_13__tuple_typesIJDpT0_EEENS1_IJXspT1_EEEENSE_IJDpT2_EEEDpOT3_, symObjAddr: 0x2EA4, symBinAddr: 0x100006DA0, symSize: 0x34 }
  - { offsetInCU: 0x11E2D, offset: 0x11E2D, size: 0x8, addend: 0x0, symName: __ZNSt3__112__tuple_implINS_15__tuple_indicesIJLm0EEEEJONS_9allocatorIZN5dgrad6TensorC1ESt16initializer_listIdEEUlvE0_EEEEC2B8ue170006IJLm0EEJSA_EJEJEJS9_EEENS1_IJXspT_EEEENS_13__tuple_typesIJDpT0_EEENS1_IJXspT1_EEEENSE_IJDpT2_EEEDpOT3_, symObjAddr: 0x2ED8, symBinAddr: 0x100006DD4, symSize: 0x34 }
  - { offsetInCU: 0x11EBE, offset: 0x11EBE, size: 0x8, addend: 0x0, symName: __ZNSt3__112__tuple_leafILm0EONS_9allocatorIZN5dgrad6TensorC1ESt16initializer_listIdEEUlvE0_EELb0EEC2B8ue170006IS7_vEEOT_, symObjAddr: 0x2F0C, symBinAddr: 0x100006E08, symSize: 0x20 }
  - { offsetInCU: 0x11F01, offset: 0x11F01, size: 0x8, addend: 0x0, symName: __ZNSt3__117__compressed_pairIZN5dgrad6TensorC1ESt16initializer_listIdEEUlvE0_NS_9allocatorIS5_EEEC2B8ue170006IJOS5_EJOS7_EEENS_21piecewise_construct_tENS_5tupleIJDpT_EEENSD_IJDpT0_EEE, symObjAddr: 0x2F2C, symBinAddr: 0x100006E28, symSize: 0x54 }
  - { offsetInCU: 0x11F6B, offset: 0x11F6B, size: 0x8, addend: 0x0, symName: __ZNSt3__122__compressed_pair_elemIZN5dgrad6TensorC1ESt16initializer_listIdEEUlvE0_Li0ELb1EEC2B8ue170006IJOS5_EJLm0EEEENS_21piecewise_construct_tENS_5tupleIJDpT_EEENS_15__tuple_indicesIJXspT0_EEEE, symObjAddr: 0x2F80, symBinAddr: 0x100006E7C, symSize: 0x38 }
  - { offsetInCU: 0x11FCE, offset: 0x11FCE, size: 0x8, addend: 0x0, symName: __ZNSt3__122__compressed_pair_elemINS_9allocatorIZN5dgrad6TensorC1ESt16initializer_listIdEEUlvE0_EELi1ELb1EEC2B8ue170006IJOS7_EJLm0EEEENS_21piecewise_construct_tENS_5tupleIJDpT_EEENS_15__tuple_indicesIJXspT0_EEEE, symObjAddr: 0x2FB8, symBinAddr: 0x100006EB4, symSize: 0x38 }
  - { offsetInCU: 0x12031, offset: 0x12031, size: 0x8, addend: 0x0, symName: __ZNSt3__112__tuple_leafILm0EOZN5dgrad6TensorC1ESt16initializer_listIdEEUlvE0_Lb0EE3getB8ue170006Ev, symObjAddr: 0x3014, symBinAddr: 0x100006F10, symSize: 0x18 }
  - { offsetInCU: 0x12057, offset: 0x12057, size: 0x8, addend: 0x0, symName: __ZNSt3__112__tuple_leafILm0EONS_9allocatorIZN5dgrad6TensorC1ESt16initializer_listIdEEUlvE0_EELb0EE3getB8ue170006Ev, symObjAddr: 0x3050, symBinAddr: 0x100006F4C, symSize: 0x18 }
  - { offsetInCU: 0x1207D, offset: 0x1207D, size: 0x8, addend: 0x0, symName: __ZNSt3__110__function6__funcIZN5dgrad6TensorC1ESt16initializer_listIdEEUlvE0_NS_9allocatorIS6_EEFvvEED2Ev, symObjAddr: 0x3068, symBinAddr: 0x100006F64, symSize: 0x2C }
  - { offsetInCU: 0x120AA, offset: 0x120AA, size: 0x8, addend: 0x0, symName: __ZNKSt3__110__function12__alloc_funcIZN5dgrad6TensorC1ESt16initializer_listIdEEUlvE0_NS_9allocatorIS6_EEFvvEE15__get_allocatorB8ue170006Ev, symObjAddr: 0x3094, symBinAddr: 0x100006F90, symSize: 0x24 }
  - { offsetInCU: 0x120D0, offset: 0x120D0, size: 0x8, addend: 0x0, symName: __ZNSt3__19allocatorINS_10__function6__funcIZN5dgrad6TensorC1ESt16initializer_listIdEEUlvE0_NS0_IS7_EEFvvEEEE8allocateB8ue170006Em, symObjAddr: 0x30B8, symBinAddr: 0x100006FB4, symSize: 0x58 }
  - { offsetInCU: 0x12113, offset: 0x12113, size: 0x8, addend: 0x0, symName: __ZNSt3__122__allocator_destructorINS_9allocatorINS_10__function6__funcIZN5dgrad6TensorC1ESt16initializer_listIdEEUlvE0_NS1_IS8_EEFvvEEEEEEC1B8ue170006ERSC_m, symObjAddr: 0x3110, symBinAddr: 0x10000700C, symSize: 0x3C }
  - { offsetInCU: 0x121E7, offset: 0x121E7, size: 0x8, addend: 0x0, symName: __ZNSt3__110unique_ptrINS_10__function6__funcIZN5dgrad6TensorC1ESt16initializer_listIdEEUlvE0_NS_9allocatorIS7_EEFvvEEENS_22__allocator_destructorINS8_ISB_EEEEEC1B8ue170006ILb1EvEEPSB_NS_16__dependent_typeINS_27__unique_ptr_deleter_sfinaeISE_EEXT_EE20__good_rval_ref_typeE, symObjAddr: 0x314C, symBinAddr: 0x100007048, symSize: 0x3C }
  - { offsetInCU: 0x12238, offset: 0x12238, size: 0x8, addend: 0x0, symName: __ZNKSt3__110unique_ptrINS_10__function6__funcIZN5dgrad6TensorC1ESt16initializer_listIdEEUlvE0_NS_9allocatorIS7_EEFvvEEENS_22__allocator_destructorINS8_ISB_EEEEE3getB8ue170006Ev, symObjAddr: 0x3188, symBinAddr: 0x100007084, symSize: 0x28 }
  - { offsetInCU: 0x1225E, offset: 0x1225E, size: 0x8, addend: 0x0, symName: __ZNKSt3__110__function12__alloc_funcIZN5dgrad6TensorC1ESt16initializer_listIdEEUlvE0_NS_9allocatorIS6_EEFvvEE8__targetB8ue170006Ev, symObjAddr: 0x31B0, symBinAddr: 0x1000070AC, symSize: 0x24 }
  - { offsetInCU: 0x12284, offset: 0x12284, size: 0x8, addend: 0x0, symName: __ZNSt3__110__function6__funcIZN5dgrad6TensorC1ESt16initializer_listIdEEUlvE0_NS_9allocatorIS6_EEFvvEEC1B8ue170006ERKS6_OS8_, symObjAddr: 0x31D4, symBinAddr: 0x1000070D0, symSize: 0x3C }
  - { offsetInCU: 0x122CC, offset: 0x122CC, size: 0x8, addend: 0x0, symName: __ZNSt3__110unique_ptrINS_10__function6__funcIZN5dgrad6TensorC1ESt16initializer_listIdEEUlvE0_NS_9allocatorIS7_EEFvvEEENS_22__allocator_destructorINS8_ISB_EEEEE7releaseB8ue170006Ev, symObjAddr: 0x3210, symBinAddr: 0x10000710C, symSize: 0x44 }
  - { offsetInCU: 0x12301, offset: 0x12301, size: 0x8, addend: 0x0, symName: __ZNSt3__110unique_ptrINS_10__function6__funcIZN5dgrad6TensorC1ESt16initializer_listIdEEUlvE0_NS_9allocatorIS7_EEFvvEEENS_22__allocator_destructorINS8_ISB_EEEEED1B8ue170006Ev, symObjAddr: 0x3254, symBinAddr: 0x100007150, symSize: 0x2C }
  - { offsetInCU: 0x1232B, offset: 0x1232B, size: 0x8, addend: 0x0, symName: __ZNKSt3__117__compressed_pairIZN5dgrad6TensorC1ESt16initializer_listIdEEUlvE0_NS_9allocatorIS5_EEE6secondB8ue170006Ev, symObjAddr: 0x3280, symBinAddr: 0x10000717C, symSize: 0x24 }
  - { offsetInCU: 0x12351, offset: 0x12351, size: 0x8, addend: 0x0, symName: __ZNKSt3__122__compressed_pair_elemINS_9allocatorIZN5dgrad6TensorC1ESt16initializer_listIdEEUlvE0_EELi1ELb1EE5__getB8ue170006Ev, symObjAddr: 0x32A4, symBinAddr: 0x1000071A0, symSize: 0x14 }
  - { offsetInCU: 0x12381, offset: 0x12381, size: 0x8, addend: 0x0, symName: __ZNSt3__116allocator_traitsINS_9allocatorINS_10__function6__funcIZN5dgrad6TensorC1ESt16initializer_listIdEEUlvE0_NS1_IS8_EEFvvEEEEEE8max_sizeB8ue170006ISC_vEEmRKSC_, symObjAddr: 0x32B8, symBinAddr: 0x1000071B4, symSize: 0x24 }
  - { offsetInCU: 0x123AF, offset: 0x123AF, size: 0x8, addend: 0x0, symName: __ZNKSt3__19allocatorINS_10__function6__funcIZN5dgrad6TensorC1ESt16initializer_listIdEEUlvE0_NS0_IS7_EEFvvEEEE8max_sizeB8ue170006Ev, symObjAddr: 0x32DC, symBinAddr: 0x1000071D8, symSize: 0x14 }
  - { offsetInCU: 0x123D5, offset: 0x123D5, size: 0x8, addend: 0x0, symName: __ZNSt3__122__allocator_destructorINS_9allocatorINS_10__function6__funcIZN5dgrad6TensorC1ESt16initializer_listIdEEUlvE0_NS1_IS8_EEFvvEEEEEEC2B8ue170006ERSC_m, symObjAddr: 0x32F0, symBinAddr: 0x1000071EC, symSize: 0x2C }
  - { offsetInCU: 0x1241B, offset: 0x1241B, size: 0x8, addend: 0x0, symName: __ZNSt3__110unique_ptrINS_10__function6__funcIZN5dgrad6TensorC1ESt16initializer_listIdEEUlvE0_NS_9allocatorIS7_EEFvvEEENS_22__allocator_destructorINS8_ISB_EEEEEC2B8ue170006ILb1EvEEPSB_NS_16__dependent_typeINS_27__unique_ptr_deleter_sfinaeISE_EEXT_EE20__good_rval_ref_typeE, symObjAddr: 0x331C, symBinAddr: 0x100007218, symSize: 0x48 }
  - { offsetInCU: 0x1246C, offset: 0x1246C, size: 0x8, addend: 0x0, symName: __ZNSt3__117__compressed_pairIPNS_10__function6__funcIZN5dgrad6TensorC1ESt16initializer_listIdEEUlvE0_NS_9allocatorIS7_EEFvvEEENS_22__allocator_destructorINS8_ISB_EEEEEC1B8ue170006IRSC_SF_EEOT_OT0_, symObjAddr: 0x3364, symBinAddr: 0x100007260, symSize: 0x3C }
  - { offsetInCU: 0x124C4, offset: 0x124C4, size: 0x8, addend: 0x0, symName: __ZNSt3__117__compressed_pairIPNS_10__function6__funcIZN5dgrad6TensorC1ESt16initializer_listIdEEUlvE0_NS_9allocatorIS7_EEFvvEEENS_22__allocator_destructorINS8_ISB_EEEEEC2B8ue170006IRSC_SF_EEOT_OT0_, symObjAddr: 0x33A0, symBinAddr: 0x10000729C, symSize: 0x48 }
  - { offsetInCU: 0x1251C, offset: 0x1251C, size: 0x8, addend: 0x0, symName: __ZNSt3__122__compressed_pair_elemIPNS_10__function6__funcIZN5dgrad6TensorC1ESt16initializer_listIdEEUlvE0_NS_9allocatorIS7_EEFvvEEELi0ELb0EEC2B8ue170006IRSC_vEEOT_, symObjAddr: 0x33E8, symBinAddr: 0x1000072E4, symSize: 0x24 }
  - { offsetInCU: 0x1255E, offset: 0x1255E, size: 0x8, addend: 0x0, symName: __ZNSt3__122__compressed_pair_elemINS_22__allocator_destructorINS_9allocatorINS_10__function6__funcIZN5dgrad6TensorC1ESt16initializer_listIdEEUlvE0_NS2_IS9_EEFvvEEEEEEELi1ELb0EEC2B8ue170006ISE_vEEOT_, symObjAddr: 0x340C, symBinAddr: 0x100007308, symSize: 0x24 }
  - { offsetInCU: 0x125A0, offset: 0x125A0, size: 0x8, addend: 0x0, symName: __ZNKSt3__117__compressed_pairIPNS_10__function6__funcIZN5dgrad6TensorC1ESt16initializer_listIdEEUlvE0_NS_9allocatorIS7_EEFvvEEENS_22__allocator_destructorINS8_ISB_EEEEE5firstB8ue170006Ev, symObjAddr: 0x3430, symBinAddr: 0x10000732C, symSize: 0x24 }
  - { offsetInCU: 0x125C6, offset: 0x125C6, size: 0x8, addend: 0x0, symName: __ZNKSt3__122__compressed_pair_elemIPNS_10__function6__funcIZN5dgrad6TensorC1ESt16initializer_listIdEEUlvE0_NS_9allocatorIS7_EEFvvEEELi0ELb0EE5__getB8ue170006Ev, symObjAddr: 0x3454, symBinAddr: 0x100007350, symSize: 0x14 }
  - { offsetInCU: 0x125EC, offset: 0x125EC, size: 0x8, addend: 0x0, symName: __ZNKSt3__117__compressed_pairIZN5dgrad6TensorC1ESt16initializer_listIdEEUlvE0_NS_9allocatorIS5_EEE5firstB8ue170006Ev, symObjAddr: 0x3468, symBinAddr: 0x100007364, symSize: 0x24 }
  - { offsetInCU: 0x12612, offset: 0x12612, size: 0x8, addend: 0x0, symName: __ZNKSt3__122__compressed_pair_elemIZN5dgrad6TensorC1ESt16initializer_listIdEEUlvE0_Li0ELb1EE5__getB8ue170006Ev, symObjAddr: 0x348C, symBinAddr: 0x100007388, symSize: 0x14 }
  - { offsetInCU: 0x12638, offset: 0x12638, size: 0x8, addend: 0x0, symName: __ZNSt3__110__function6__funcIZN5dgrad6TensorC1ESt16initializer_listIdEEUlvE0_NS_9allocatorIS6_EEFvvEEC2B8ue170006ERKS6_OS8_, symObjAddr: 0x34A0, symBinAddr: 0x10000739C, symSize: 0x88 }
  - { offsetInCU: 0x12680, offset: 0x12680, size: 0x8, addend: 0x0, symName: __ZNSt3__110__function12__alloc_funcIZN5dgrad6TensorC1ESt16initializer_listIdEEUlvE0_NS_9allocatorIS6_EEFvvEEC1B8ue170006ERKS6_OS8_, symObjAddr: 0x3528, symBinAddr: 0x100007424, symSize: 0x3C }
  - { offsetInCU: 0x126C6, offset: 0x126C6, size: 0x8, addend: 0x0, symName: __ZNSt3__110__function12__alloc_funcIZN5dgrad6TensorC1ESt16initializer_listIdEEUlvE0_NS_9allocatorIS6_EEFvvEEC2B8ue170006ERKS6_OS8_, symObjAddr: 0x3564, symBinAddr: 0x100007460, symSize: 0x5C }
  - { offsetInCU: 0x1270C, offset: 0x1270C, size: 0x8, addend: 0x0, symName: __ZNSt3__117__compressed_pairIZN5dgrad6TensorC1ESt16initializer_listIdEEUlvE0_NS_9allocatorIS5_EEEC1B8ue170006IJRKS5_EJOS7_EEENS_21piecewise_construct_tENS_5tupleIJDpT_EEENSE_IJDpT0_EEE, symObjAddr: 0x35EC, symBinAddr: 0x1000074E8, symSize: 0x3C }
  - { offsetInCU: 0x12776, offset: 0x12776, size: 0x8, addend: 0x0, symName: __ZNSt3__15tupleIJRKZN5dgrad6TensorC1ESt16initializer_listIdEEUlvE0_EEC1B8ue170006INS_4_AndELi0EEES7_, symObjAddr: 0x3628, symBinAddr: 0x100007524, symSize: 0x34 }
  - { offsetInCU: 0x127BE, offset: 0x127BE, size: 0x8, addend: 0x0, symName: __ZNSt3__15tupleIJRKZN5dgrad6TensorC1ESt16initializer_listIdEEUlvE0_EEC2B8ue170006INS_4_AndELi0EEES7_, symObjAddr: 0x365C, symBinAddr: 0x100007558, symSize: 0x34 }
  - { offsetInCU: 0x12806, offset: 0x12806, size: 0x8, addend: 0x0, symName: __ZNSt3__112__tuple_implINS_15__tuple_indicesIJLm0EEEEJRKZN5dgrad6TensorC1ESt16initializer_listIdEEUlvE0_EEC1B8ue170006IJLm0EEJS9_EJEJEJS9_EEENS1_IJXspT_EEEENS_13__tuple_typesIJDpT0_EEENS1_IJXspT1_EEEENSD_IJDpT2_EEEDpOT3_, symObjAddr: 0x3690, symBinAddr: 0x10000758C, symSize: 0x34 }
  - { offsetInCU: 0x12897, offset: 0x12897, size: 0x8, addend: 0x0, symName: __ZNSt3__112__tuple_implINS_15__tuple_indicesIJLm0EEEEJRKZN5dgrad6TensorC1ESt16initializer_listIdEEUlvE0_EEC2B8ue170006IJLm0EEJS9_EJEJEJS9_EEENS1_IJXspT_EEEENS_13__tuple_typesIJDpT0_EEENS1_IJXspT1_EEEENSD_IJDpT2_EEEDpOT3_, symObjAddr: 0x36C4, symBinAddr: 0x1000075C0, symSize: 0x34 }
  - { offsetInCU: 0x12928, offset: 0x12928, size: 0x8, addend: 0x0, symName: __ZNSt3__112__tuple_leafILm0ERKZN5dgrad6TensorC1ESt16initializer_listIdEEUlvE0_Lb0EEC2B8ue170006IS7_vEEOT_, symObjAddr: 0x36F8, symBinAddr: 0x1000075F4, symSize: 0x20 }
  - { offsetInCU: 0x1296B, offset: 0x1296B, size: 0x8, addend: 0x0, symName: __ZNSt3__117__compressed_pairIZN5dgrad6TensorC1ESt16initializer_listIdEEUlvE0_NS_9allocatorIS5_EEEC2B8ue170006IJRKS5_EJOS7_EEENS_21piecewise_construct_tENS_5tupleIJDpT_EEENSE_IJDpT0_EEE, symObjAddr: 0x3718, symBinAddr: 0x100007614, symSize: 0x54 }
  - { offsetInCU: 0x129D5, offset: 0x129D5, size: 0x8, addend: 0x0, symName: __ZNSt3__122__compressed_pair_elemIZN5dgrad6TensorC1ESt16initializer_listIdEEUlvE0_Li0ELb1EEC2B8ue170006IJRKS5_EJLm0EEEENS_21piecewise_construct_tENS_5tupleIJDpT_EEENS_15__tuple_indicesIJXspT0_EEEE, symObjAddr: 0x376C, symBinAddr: 0x100007668, symSize: 0x38 }
  - { offsetInCU: 0x12A38, offset: 0x12A38, size: 0x8, addend: 0x0, symName: __ZNSt3__112__tuple_leafILm0ERKZN5dgrad6TensorC1ESt16initializer_listIdEEUlvE0_Lb0EE3getB8ue170006Ev, symObjAddr: 0x37C8, symBinAddr: 0x1000076C4, symSize: 0x18 }
  - { offsetInCU: 0x12A5E, offset: 0x12A5E, size: 0x8, addend: 0x0, symName: __ZNSt3__117__compressed_pairIPNS_10__function6__funcIZN5dgrad6TensorC1ESt16initializer_listIdEEUlvE0_NS_9allocatorIS7_EEFvvEEENS_22__allocator_destructorINS8_ISB_EEEEE5firstB8ue170006Ev, symObjAddr: 0x37E0, symBinAddr: 0x1000076DC, symSize: 0x24 }
  - { offsetInCU: 0x12A84, offset: 0x12A84, size: 0x8, addend: 0x0, symName: __ZNSt3__122__compressed_pair_elemIPNS_10__function6__funcIZN5dgrad6TensorC1ESt16initializer_listIdEEUlvE0_NS_9allocatorIS7_EEFvvEEELi0ELb0EE5__getB8ue170006Ev, symObjAddr: 0x3804, symBinAddr: 0x100007700, symSize: 0x14 }
  - { offsetInCU: 0x12AAA, offset: 0x12AAA, size: 0x8, addend: 0x0, symName: __ZNSt3__110unique_ptrINS_10__function6__funcIZN5dgrad6TensorC1ESt16initializer_listIdEEUlvE0_NS_9allocatorIS7_EEFvvEEENS_22__allocator_destructorINS8_ISB_EEEEED2B8ue170006Ev, symObjAddr: 0x3818, symBinAddr: 0x100007714, symSize: 0x30 }
  - { offsetInCU: 0x12AD4, offset: 0x12AD4, size: 0x8, addend: 0x0, symName: __ZNSt3__110unique_ptrINS_10__function6__funcIZN5dgrad6TensorC1ESt16initializer_listIdEEUlvE0_NS_9allocatorIS7_EEFvvEEENS_22__allocator_destructorINS8_ISB_EEEEE5resetB8ue170006EPSB_, symObjAddr: 0x3848, symBinAddr: 0x100007744, symSize: 0x78 }
  - { offsetInCU: 0x12B18, offset: 0x12B18, size: 0x8, addend: 0x0, symName: __ZNSt3__117__compressed_pairIPNS_10__function6__funcIZN5dgrad6TensorC1ESt16initializer_listIdEEUlvE0_NS_9allocatorIS7_EEFvvEEENS_22__allocator_destructorINS8_ISB_EEEEE6secondB8ue170006Ev, symObjAddr: 0x38C0, symBinAddr: 0x1000077BC, symSize: 0x28 }
  - { offsetInCU: 0x12B3E, offset: 0x12B3E, size: 0x8, addend: 0x0, symName: __ZNSt3__122__allocator_destructorINS_9allocatorINS_10__function6__funcIZN5dgrad6TensorC1ESt16initializer_listIdEEUlvE0_NS1_IS8_EEFvvEEEEEEclB8ue170006EPSB_, symObjAddr: 0x38E8, symBinAddr: 0x1000077E4, symSize: 0x34 }
  - { offsetInCU: 0x12B72, offset: 0x12B72, size: 0x8, addend: 0x0, symName: __ZNSt3__122__compressed_pair_elemINS_22__allocator_destructorINS_9allocatorINS_10__function6__funcIZN5dgrad6TensorC1ESt16initializer_listIdEEUlvE0_NS2_IS9_EEFvvEEEEEEELi1ELb0EE5__getB8ue170006Ev, symObjAddr: 0x391C, symBinAddr: 0x100007818, symSize: 0x14 }
  - { offsetInCU: 0x12B98, offset: 0x12B98, size: 0x8, addend: 0x0, symName: __ZNSt3__116allocator_traitsINS_9allocatorINS_10__function6__funcIZN5dgrad6TensorC1ESt16initializer_listIdEEUlvE0_NS1_IS8_EEFvvEEEEEE10deallocateB8ue170006ERSC_PSB_m, symObjAddr: 0x3930, symBinAddr: 0x10000782C, symSize: 0x34 }
  - { offsetInCU: 0x12BDA, offset: 0x12BDA, size: 0x8, addend: 0x0, symName: __ZNSt3__19allocatorINS_10__function6__funcIZN5dgrad6TensorC1ESt16initializer_listIdEEUlvE0_NS0_IS7_EEFvvEEEE10deallocateB8ue170006EPSA_m, symObjAddr: 0x3964, symBinAddr: 0x100007860, symSize: 0x40 }
  - { offsetInCU: 0x12C1C, offset: 0x12C1C, size: 0x8, addend: 0x0, symName: __ZNSt3__110__function6__funcIZN5dgrad6TensorC1ESt16initializer_listIdEEUlvE0_NS_9allocatorIS6_EEFvvEEC1B8ue170006ERKS6_RKS8_, symObjAddr: 0x39A4, symBinAddr: 0x1000078A0, symSize: 0x3C }
  - { offsetInCU: 0x12C64, offset: 0x12C64, size: 0x8, addend: 0x0, symName: __ZNSt3__110__function6__funcIZN5dgrad6TensorC1ESt16initializer_listIdEEUlvE0_NS_9allocatorIS6_EEFvvEEC2B8ue170006ERKS6_RKS8_, symObjAddr: 0x39E0, symBinAddr: 0x1000078DC, symSize: 0x88 }
  - { offsetInCU: 0x12CAC, offset: 0x12CAC, size: 0x8, addend: 0x0, symName: __ZNSt3__110__function12__alloc_funcIZN5dgrad6TensorC1ESt16initializer_listIdEEUlvE0_NS_9allocatorIS6_EEFvvEEC1B8ue170006ERKS6_RKS8_, symObjAddr: 0x3A68, symBinAddr: 0x100007964, symSize: 0x3C }
  - { offsetInCU: 0x12CF2, offset: 0x12CF2, size: 0x8, addend: 0x0, symName: __ZNSt3__110__function12__alloc_funcIZN5dgrad6TensorC1ESt16initializer_listIdEEUlvE0_NS_9allocatorIS6_EEFvvEEC2B8ue170006ERKS6_RKS8_, symObjAddr: 0x3AA4, symBinAddr: 0x1000079A0, symSize: 0x5C }
  - { offsetInCU: 0x12D38, offset: 0x12D38, size: 0x8, addend: 0x0, symName: __ZNSt3__117__compressed_pairIZN5dgrad6TensorC1ESt16initializer_listIdEEUlvE0_NS_9allocatorIS5_EEEC1B8ue170006IJRKS5_EJRKS7_EEENS_21piecewise_construct_tENS_5tupleIJDpT_EEENSF_IJDpT0_EEE, symObjAddr: 0x3B2C, symBinAddr: 0x100007A28, symSize: 0x3C }
  - { offsetInCU: 0x12DA2, offset: 0x12DA2, size: 0x8, addend: 0x0, symName: __ZNSt3__15tupleIJRKNS_9allocatorIZN5dgrad6TensorC1ESt16initializer_listIdEEUlvE0_EEEEC1B8ue170006INS_4_AndELi0EEES9_, symObjAddr: 0x3B68, symBinAddr: 0x100007A64, symSize: 0x34 }
  - { offsetInCU: 0x12DEA, offset: 0x12DEA, size: 0x8, addend: 0x0, symName: __ZNSt3__15tupleIJRKNS_9allocatorIZN5dgrad6TensorC1ESt16initializer_listIdEEUlvE0_EEEEC2B8ue170006INS_4_AndELi0EEES9_, symObjAddr: 0x3B9C, symBinAddr: 0x100007A98, symSize: 0x34 }
  - { offsetInCU: 0x12E32, offset: 0x12E32, size: 0x8, addend: 0x0, symName: __ZNSt3__112__tuple_implINS_15__tuple_indicesIJLm0EEEEJRKNS_9allocatorIZN5dgrad6TensorC1ESt16initializer_listIdEEUlvE0_EEEEC1B8ue170006IJLm0EEJSB_EJEJEJSB_EEENS1_IJXspT_EEEENS_13__tuple_typesIJDpT0_EEENS1_IJXspT1_EEEENSF_IJDpT2_EEEDpOT3_, symObjAddr: 0x3BD0, symBinAddr: 0x100007ACC, symSize: 0x34 }
  - { offsetInCU: 0x12EC3, offset: 0x12EC3, size: 0x8, addend: 0x0, symName: __ZNSt3__112__tuple_implINS_15__tuple_indicesIJLm0EEEEJRKNS_9allocatorIZN5dgrad6TensorC1ESt16initializer_listIdEEUlvE0_EEEEC2B8ue170006IJLm0EEJSB_EJEJEJSB_EEENS1_IJXspT_EEEENS_13__tuple_typesIJDpT0_EEENS1_IJXspT1_EEEENSF_IJDpT2_EEEDpOT3_, symObjAddr: 0x3C04, symBinAddr: 0x100007B00, symSize: 0x34 }
  - { offsetInCU: 0x12F54, offset: 0x12F54, size: 0x8, addend: 0x0, symName: __ZNSt3__112__tuple_leafILm0ERKNS_9allocatorIZN5dgrad6TensorC1ESt16initializer_listIdEEUlvE0_EELb0EEC2B8ue170006IS9_vEEOT_, symObjAddr: 0x3C38, symBinAddr: 0x100007B34, symSize: 0x20 }
  - { offsetInCU: 0x12F97, offset: 0x12F97, size: 0x8, addend: 0x0, symName: __ZNSt3__117__compressed_pairIZN5dgrad6TensorC1ESt16initializer_listIdEEUlvE0_NS_9allocatorIS5_EEEC2B8ue170006IJRKS5_EJRKS7_EEENS_21piecewise_construct_tENS_5tupleIJDpT_EEENSF_IJDpT0_EEE, symObjAddr: 0x3C58, symBinAddr: 0x100007B54, symSize: 0x54 }
  - { offsetInCU: 0x13001, offset: 0x13001, size: 0x8, addend: 0x0, symName: __ZNSt3__122__compressed_pair_elemINS_9allocatorIZN5dgrad6TensorC1ESt16initializer_listIdEEUlvE0_EELi1ELb1EEC2B8ue170006IJRKS7_EJLm0EEEENS_21piecewise_construct_tENS_5tupleIJDpT_EEENS_15__tuple_indicesIJXspT0_EEEE, symObjAddr: 0x3CAC, symBinAddr: 0x100007BA8, symSize: 0x38 }
  - { offsetInCU: 0x13064, offset: 0x13064, size: 0x8, addend: 0x0, symName: __ZNSt3__112__tuple_leafILm0ERKNS_9allocatorIZN5dgrad6TensorC1ESt16initializer_listIdEEUlvE0_EELb0EE3getB8ue170006Ev, symObjAddr: 0x3D08, symBinAddr: 0x100007C04, symSize: 0x18 }
  - { offsetInCU: 0x1308A, offset: 0x1308A, size: 0x8, addend: 0x0, symName: __ZNSt3__110__function12__alloc_funcIZN5dgrad6TensorC1ESt16initializer_listIdEEUlvE0_NS_9allocatorIS6_EEFvvEE7destroyB8ue170006Ev, symObjAddr: 0x3D20, symBinAddr: 0x100007C1C, symSize: 0x10 }
  - { offsetInCU: 0x130B0, offset: 0x130B0, size: 0x8, addend: 0x0, symName: __ZNSt3__110__function12__alloc_funcIZN5dgrad6TensorC1ESt16initializer_listIdEEUlvE0_NS_9allocatorIS6_EEFvvEEclB8ue170006Ev, symObjAddr: 0x3D30, symBinAddr: 0x100007C2C, symSize: 0x28 }
  - { offsetInCU: 0x130D6, offset: 0x130D6, size: 0x8, addend: 0x0, symName: __ZNSt3__128__invoke_void_return_wrapperIvLb1EE6__callB8ue170006IJRZN5dgrad6TensorC1ESt16initializer_listIdEEUlvE0_EEEvDpOT_, symObjAddr: 0x3D58, symBinAddr: 0x100007C54, symSize: 0x24 }
  - { offsetInCU: 0x13105, offset: 0x13105, size: 0x8, addend: 0x0, symName: __ZNSt3__117__compressed_pairIZN5dgrad6TensorC1ESt16initializer_listIdEEUlvE0_NS_9allocatorIS5_EEE5firstB8ue170006Ev, symObjAddr: 0x3D7C, symBinAddr: 0x100007C78, symSize: 0x24 }
  - { offsetInCU: 0x13130, offset: 0x13130, size: 0x8, addend: 0x0, symName: __ZZN5dgrad6TensorC1ESt16initializer_listIdEENKUlvE0_clEv, symObjAddr: 0x3DC4, symBinAddr: 0x100007CC0, symSize: 0x10 }
  - { offsetInCU: 0x1315A, offset: 0x1315A, size: 0x8, addend: 0x0, symName: __ZNSt3__122__compressed_pair_elemIZN5dgrad6TensorC1ESt16initializer_listIdEEUlvE0_Li0ELb1EE5__getB8ue170006Ev, symObjAddr: 0x3DD4, symBinAddr: 0x100007CD0, symSize: 0x14 }
  - { offsetInCU: 0x13180, offset: 0x13180, size: 0x8, addend: 0x0, symName: __ZNSt3__16vectorIPN5dgrad6TensorENS_9allocatorIS3_EEEC2B8ue170006Ev, symObjAddr: 0x3DE8, symBinAddr: 0x100007CE4, symSize: 0x4C }
  - { offsetInCU: 0x131B6, offset: 0x131B6, size: 0x8, addend: 0x0, symName: __ZNSt3__117__compressed_pairIPPN5dgrad6TensorENS_9allocatorIS3_EEEC1B8ue170006IDnNS_18__default_init_tagEEEOT_OT0_, symObjAddr: 0x3E34, symBinAddr: 0x100007D30, symSize: 0x3C }
  - { offsetInCU: 0x1320E, offset: 0x1320E, size: 0x8, addend: 0x0, symName: __ZNSt3__117__compressed_pairIPPN5dgrad6TensorENS_9allocatorIS3_EEEC2B8ue170006IDnNS_18__default_init_tagEEEOT_OT0_, symObjAddr: 0x3E70, symBinAddr: 0x100007D6C, symSize: 0x40 }
  - { offsetInCU: 0x13266, offset: 0x13266, size: 0x8, addend: 0x0, symName: __ZNSt3__122__compressed_pair_elemIPPN5dgrad6TensorELi0ELb0EEC2B8ue170006IDnvEEOT_, symObjAddr: 0x3EB0, symBinAddr: 0x100007DAC, symSize: 0x1C }
  - { offsetInCU: 0x132A8, offset: 0x132A8, size: 0x8, addend: 0x0, symName: __ZNSt3__122__compressed_pair_elemINS_9allocatorIPN5dgrad6TensorEEELi1ELb1EEC2B8ue170006ENS_18__default_init_tagE, symObjAddr: 0x3ECC, symBinAddr: 0x100007DC8, symSize: 0x2C }
  - { offsetInCU: 0x132DC, offset: 0x132DC, size: 0x8, addend: 0x0, symName: __ZNSt3__19allocatorIPN5dgrad6TensorEEC2B8ue170006Ev, symObjAddr: 0x3EF8, symBinAddr: 0x100007DF4, symSize: 0x2C }
  - { offsetInCU: 0x13306, offset: 0x13306, size: 0x8, addend: 0x0, symName: __ZNSt3__116__non_trivial_ifILb1ENS_9allocatorIPN5dgrad6TensorEEEEC2B8ue170006Ev, symObjAddr: 0x3F24, symBinAddr: 0x100007E20, symSize: 0x14 }
  - { offsetInCU: 0x13330, offset: 0x13330, size: 0x8, addend: 0x0, symName: __ZNSt3__16vectorIdNS_9allocatorIdEEEC2B8ue170006ESt16initializer_listIdE, symObjAddr: 0x3F38, symBinAddr: 0x100007E34, symSize: 0x120 }
  - { offsetInCU: 0x13380, offset: 0x13380, size: 0x8, addend: 0x0, symName: __ZNSt3__117__compressed_pairIPdNS_9allocatorIdEEEC1B8ue170006IDnNS_18__default_init_tagEEEOT_OT0_, symObjAddr: 0x4058, symBinAddr: 0x100007F54, symSize: 0x3C }
  - { offsetInCU: 0x133D8, offset: 0x133D8, size: 0x8, addend: 0x0, symName: __ZNSt3__16vectorIdNS_9allocatorIdEEE16__destroy_vectorC1B8ue170006ERS3_, symObjAddr: 0x40D4, symBinAddr: 0x100007FD0, symSize: 0x34 }
  - { offsetInCU: 0x13411, offset: 0x13411, size: 0x8, addend: 0x0, symName: __ZNSt3__16vectorIdNS_9allocatorIdEEE11__vallocateB8ue170006Em, symObjAddr: 0x4108, symBinAddr: 0x100008004, symSize: 0xAC }
  - { offsetInCU: 0x13455, offset: 0x13455, size: 0x8, addend: 0x0, symName: __ZNSt3__16vectorIdNS_9allocatorIdEEE18__construct_at_endIPKdS6_EEvT_T0_m, symObjAddr: 0x41B4, symBinAddr: 0x1000080B0, symSize: 0x8C }
  - { offsetInCU: 0x134CB, offset: 0x134CB, size: 0x8, addend: 0x0, symName: __ZNKSt16initializer_listIdE5beginB8ue170006Ev, symObjAddr: 0x4240, symBinAddr: 0x10000813C, symSize: 0x18 }
  - { offsetInCU: 0x134F1, offset: 0x134F1, size: 0x8, addend: 0x0, symName: __ZNKSt16initializer_listIdE3endB8ue170006Ev, symObjAddr: 0x4258, symBinAddr: 0x100008154, symSize: 0x20 }
  - { offsetInCU: 0x13517, offset: 0x13517, size: 0x8, addend: 0x0, symName: __ZNSt3__128__exception_guard_exceptionsINS_6vectorIdNS_9allocatorIdEEE16__destroy_vectorEE10__completeB8ue170006Ev, symObjAddr: 0x4278, symBinAddr: 0x100008174, symSize: 0x1C }
  - { offsetInCU: 0x1353D, offset: 0x1353D, size: 0x8, addend: 0x0, symName: __ZNSt3__128__exception_guard_exceptionsINS_6vectorIdNS_9allocatorIdEEE16__destroy_vectorEED1B8ue170006Ev, symObjAddr: 0x4294, symBinAddr: 0x100008190, symSize: 0x2C }
  - { offsetInCU: 0x13567, offset: 0x13567, size: 0x8, addend: 0x0, symName: __ZNSt3__117__compressed_pairIPdNS_9allocatorIdEEEC2B8ue170006IDnNS_18__default_init_tagEEEOT_OT0_, symObjAddr: 0x42C0, symBinAddr: 0x1000081BC, symSize: 0x40 }
  - { offsetInCU: 0x135BF, offset: 0x135BF, size: 0x8, addend: 0x0, symName: __ZNSt3__122__compressed_pair_elemIPdLi0ELb0EEC2B8ue170006IDnvEEOT_, symObjAddr: 0x4300, symBinAddr: 0x1000081FC, symSize: 0x1C }
  - { offsetInCU: 0x13601, offset: 0x13601, size: 0x8, addend: 0x0, symName: __ZNSt3__122__compressed_pair_elemINS_9allocatorIdEELi1ELb1EEC2B8ue170006ENS_18__default_init_tagE, symObjAddr: 0x431C, symBinAddr: 0x100008218, symSize: 0x2C }
  - { offsetInCU: 0x13635, offset: 0x13635, size: 0x8, addend: 0x0, symName: __ZNSt3__19allocatorIdEC2B8ue170006Ev, symObjAddr: 0x4348, symBinAddr: 0x100008244, symSize: 0x2C }
  - { offsetInCU: 0x1365F, offset: 0x1365F, size: 0x8, addend: 0x0, symName: __ZNSt3__116__non_trivial_ifILb1ENS_9allocatorIdEEEC2B8ue170006Ev, symObjAddr: 0x4374, symBinAddr: 0x100008270, symSize: 0x14 }
  - { offsetInCU: 0x13689, offset: 0x13689, size: 0x8, addend: 0x0, symName: __ZNSt3__128__exception_guard_exceptionsINS_6vectorIdNS_9allocatorIdEEE16__destroy_vectorEEC1B8ue170006ES5_, symObjAddr: 0x4388, symBinAddr: 0x100008284, symSize: 0x34 }
  - { offsetInCU: 0x136C1, offset: 0x136C1, size: 0x8, addend: 0x0, symName: __ZNSt3__128__exception_guard_exceptionsINS_6vectorIdNS_9allocatorIdEEE16__destroy_vectorEEC2B8ue170006ES5_, symObjAddr: 0x43BC, symBinAddr: 0x1000082B8, symSize: 0x24 }
  - { offsetInCU: 0x136F9, offset: 0x136F9, size: 0x8, addend: 0x0, symName: __ZNSt3__16vectorIdNS_9allocatorIdEEE16__destroy_vectorC2B8ue170006ERS3_, symObjAddr: 0x43E0, symBinAddr: 0x1000082DC, symSize: 0x20 }
  - { offsetInCU: 0x13732, offset: 0x13732, size: 0x8, addend: 0x0, symName: __ZNKSt3__16vectorIdNS_9allocatorIdEEE8max_sizeEv, symObjAddr: 0x4400, symBinAddr: 0x1000082FC, symSize: 0x60 }
  - { offsetInCU: 0x1375A, offset: 0x1375A, size: 0x8, addend: 0x0, symName: __ZNKSt3__16vectorIdNS_9allocatorIdEEE20__throw_length_errorB8ue170006Ev, symObjAddr: 0x4460, symBinAddr: 0x10000835C, symSize: 0x1C }
  - { offsetInCU: 0x13780, offset: 0x13780, size: 0x8, addend: 0x0, symName: __ZNSt3__16vectorIdNS_9allocatorIdEEE7__allocB8ue170006Ev, symObjAddr: 0x44BC, symBinAddr: 0x1000083B8, symSize: 0x28 }
  - { offsetInCU: 0x137A6, offset: 0x137A6, size: 0x8, addend: 0x0, symName: __ZNSt3__16vectorIdNS_9allocatorIdEEE9__end_capB8ue170006Ev, symObjAddr: 0x44E4, symBinAddr: 0x1000083E0, symSize: 0x28 }
  - { offsetInCU: 0x137CC, offset: 0x137CC, size: 0x8, addend: 0x0, symName: __ZNKSt3__16vectorIdNS_9allocatorIdEEE14__annotate_newB8ue170006Em, symObjAddr: 0x450C, symBinAddr: 0x100008408, symSize: 0xAC }
  - { offsetInCU: 0x1380B, offset: 0x1380B, size: 0x8, addend: 0x0, symName: __ZNSt3__116allocator_traitsINS_9allocatorIdEEE8max_sizeB8ue170006IS2_vEEmRKS2_, symObjAddr: 0x45E4, symBinAddr: 0x1000084E0, symSize: 0x24 }
  - { offsetInCU: 0x13839, offset: 0x13839, size: 0x8, addend: 0x0, symName: __ZNKSt3__16vectorIdNS_9allocatorIdEEE7__allocB8ue170006Ev, symObjAddr: 0x4608, symBinAddr: 0x100008504, symSize: 0x28 }
  - { offsetInCU: 0x1385F, offset: 0x1385F, size: 0x8, addend: 0x0, symName: __ZNSt3__114numeric_limitsIlE3maxB8ue170006Ev, symObjAddr: 0x4630, symBinAddr: 0x10000852C, symSize: 0x14 }
  - { offsetInCU: 0x13882, offset: 0x13882, size: 0x8, addend: 0x0, symName: __ZNKSt3__16__lessIvvEclB8ue170006ImmEEbRKT_RKT0_, symObjAddr: 0x4698, symBinAddr: 0x100008594, symSize: 0x34 }
  - { offsetInCU: 0x138D6, offset: 0x138D6, size: 0x8, addend: 0x0, symName: __ZNKSt3__19allocatorIdE8max_sizeB8ue170006Ev, symObjAddr: 0x46CC, symBinAddr: 0x1000085C8, symSize: 0x14 }
  - { offsetInCU: 0x138FC, offset: 0x138FC, size: 0x8, addend: 0x0, symName: __ZNKSt3__117__compressed_pairIPdNS_9allocatorIdEEE6secondB8ue170006Ev, symObjAddr: 0x46E0, symBinAddr: 0x1000085DC, symSize: 0x24 }
  - { offsetInCU: 0x13922, offset: 0x13922, size: 0x8, addend: 0x0, symName: __ZNKSt3__122__compressed_pair_elemINS_9allocatorIdEELi1ELb1EE5__getB8ue170006Ev, symObjAddr: 0x4704, symBinAddr: 0x100008600, symSize: 0x14 }
  - { offsetInCU: 0x13948, offset: 0x13948, size: 0x8, addend: 0x0, symName: __ZNSt3__123__libcpp_numeric_limitsIlLb1EE3maxB8ue170006Ev, symObjAddr: 0x4718, symBinAddr: 0x100008614, symSize: 0x8 }
  - { offsetInCU: 0x1395C, offset: 0x1395C, size: 0x8, addend: 0x0, symName: __ZNSt12length_errorC1B8ue170006EPKc, symObjAddr: 0x4784, symBinAddr: 0x100008680, symSize: 0x34 }
  - { offsetInCU: 0x13994, offset: 0x13994, size: 0x8, addend: 0x0, symName: __ZNSt12length_errorC2B8ue170006EPKc, symObjAddr: 0x47B8, symBinAddr: 0x1000086B4, symSize: 0x4C }
  - { offsetInCU: 0x139CC, offset: 0x139CC, size: 0x8, addend: 0x0, symName: __ZNSt3__19allocatorIdE8allocateB8ue170006Em, symObjAddr: 0x4804, symBinAddr: 0x100008700, symSize: 0x58 }
  - { offsetInCU: 0x13A00, offset: 0x13A00, size: 0x8, addend: 0x0, symName: __ZNSt3__117__compressed_pairIPdNS_9allocatorIdEEE6secondB8ue170006Ev, symObjAddr: 0x485C, symBinAddr: 0x100008758, symSize: 0x24 }
  - { offsetInCU: 0x13A26, offset: 0x13A26, size: 0x8, addend: 0x0, symName: __ZNSt3__122__compressed_pair_elemINS_9allocatorIdEELi1ELb1EE5__getB8ue170006Ev, symObjAddr: 0x4880, symBinAddr: 0x10000877C, symSize: 0x14 }
  - { offsetInCU: 0x13A4C, offset: 0x13A4C, size: 0x8, addend: 0x0, symName: __ZNSt3__117__compressed_pairIPdNS_9allocatorIdEEE5firstB8ue170006Ev, symObjAddr: 0x4894, symBinAddr: 0x100008790, symSize: 0x24 }
  - { offsetInCU: 0x13A72, offset: 0x13A72, size: 0x8, addend: 0x0, symName: __ZNSt3__122__compressed_pair_elemIPdLi0ELb0EE5__getB8ue170006Ev, symObjAddr: 0x48B8, symBinAddr: 0x1000087B4, symSize: 0x14 }
  - { offsetInCU: 0x13A98, offset: 0x13A98, size: 0x8, addend: 0x0, symName: __ZNKSt3__16vectorIdNS_9allocatorIdEEE31__annotate_contiguous_containerB8ue170006EPKvS5_S5_S5_, symObjAddr: 0x48CC, symBinAddr: 0x1000087C8, symSize: 0x20 }
  - { offsetInCU: 0x13AEA, offset: 0x13AEA, size: 0x8, addend: 0x0, symName: __ZNKSt3__16vectorIdNS_9allocatorIdEEE4dataB8ue170006Ev, symObjAddr: 0x48EC, symBinAddr: 0x1000087E8, symSize: 0x28 }
  - { offsetInCU: 0x13B10, offset: 0x13B10, size: 0x8, addend: 0x0, symName: __ZNKSt3__16vectorIdNS_9allocatorIdEEE8capacityB8ue170006Ev, symObjAddr: 0x4914, symBinAddr: 0x100008810, symSize: 0x40 }
  - { offsetInCU: 0x13B36, offset: 0x13B36, size: 0x8, addend: 0x0, symName: __ZNKSt3__16vectorIdNS_9allocatorIdEEE9__end_capB8ue170006Ev, symObjAddr: 0x4968, symBinAddr: 0x100008864, symSize: 0x28 }
  - { offsetInCU: 0x13B5C, offset: 0x13B5C, size: 0x8, addend: 0x0, symName: __ZNKSt3__117__compressed_pairIPdNS_9allocatorIdEEE5firstB8ue170006Ev, symObjAddr: 0x4990, symBinAddr: 0x10000888C, symSize: 0x24 }
  - { offsetInCU: 0x13B82, offset: 0x13B82, size: 0x8, addend: 0x0, symName: __ZNKSt3__122__compressed_pair_elemIPdLi0ELb0EE5__getB8ue170006Ev, symObjAddr: 0x49B4, symBinAddr: 0x1000088B0, symSize: 0x14 }
  - { offsetInCU: 0x13BC1, offset: 0x13BC1, size: 0x8, addend: 0x0, symName: __ZNSt3__16vectorIdNS_9allocatorIdEEE21_ConstructTransactionC1B8ue170006ERS3_m, symObjAddr: 0x49C8, symBinAddr: 0x1000088C4, symSize: 0x3C }
  - { offsetInCU: 0x13C09, offset: 0x13C09, size: 0x8, addend: 0x0, symName: __ZNSt3__16vectorIdNS_9allocatorIdEEE21_ConstructTransactionD1B8ue170006Ev, symObjAddr: 0x4A84, symBinAddr: 0x100008980, symSize: 0x2C }
  - { offsetInCU: 0x13C33, offset: 0x13C33, size: 0x8, addend: 0x0, symName: __ZNSt3__16vectorIdNS_9allocatorIdEEE21_ConstructTransactionC2B8ue170006ERS3_m, symObjAddr: 0x4AB0, symBinAddr: 0x1000089AC, symSize: 0x44 }
  - { offsetInCU: 0x13C9B, offset: 0x13C9B, size: 0x8, addend: 0x0, symName: __ZNSt3__14pairIPKdS2_EC1B8ue170006IS2_S2_LPv0EEEOT_OT0_, symObjAddr: 0x4C48, symBinAddr: 0x100008B44, symSize: 0x3C }
  - { offsetInCU: 0x13CF9, offset: 0x13CF9, size: 0x8, addend: 0x0, symName: __ZNSt3__14pairIPKdS2_EC2B8ue170006IS2_S2_LPv0EEEOT_OT0_, symObjAddr: 0x4C84, symBinAddr: 0x100008B80, symSize: 0x34 }
  - { offsetInCU: 0x13D57, offset: 0x13D57, size: 0x8, addend: 0x0, symName: __ZNSt3__118__unwrap_iter_implIPKdLb1EE8__unwrapB8ue170006ES2_, symObjAddr: 0x4CB8, symBinAddr: 0x100008BB4, symSize: 0x24 }
  - { offsetInCU: 0x13D9E, offset: 0x13D9E, size: 0x8, addend: 0x0, symName: __ZNKSt3__114__copy_trivialclB8ue170006IKddLi0EEENS_4pairIPT_PT0_EES5_S5_S7_, symObjAddr: 0x4E6C, symBinAddr: 0x100008D68, symSize: 0x48 }
  - { offsetInCU: 0x13E11, offset: 0x13E11, size: 0x8, addend: 0x0, symName: __ZNSt3__14pairIPKdPdEC1B8ue170006IRS2_S3_LPv0EEEOT_OT0_, symObjAddr: 0x5034, symBinAddr: 0x100008F30, symSize: 0x3C }
  - { offsetInCU: 0x13E6F, offset: 0x13E6F, size: 0x8, addend: 0x0, symName: __ZNSt3__14pairIPKdPdEC2B8ue170006IRS2_S3_LPv0EEEOT_OT0_, symObjAddr: 0x5070, symBinAddr: 0x100008F6C, symSize: 0x34 }
  - { offsetInCU: 0x13ECD, offset: 0x13ECD, size: 0x8, addend: 0x0, symName: __ZNSt3__14pairIPKdPdEC1B8ue170006IS2_S3_LPv0EEEOT_OT0_, symObjAddr: 0x50A4, symBinAddr: 0x100008FA0, symSize: 0x3C }
  - { offsetInCU: 0x13F2B, offset: 0x13F2B, size: 0x8, addend: 0x0, symName: __ZNSt3__14pairIPKdPdEC2B8ue170006IS2_S3_LPv0EEEOT_OT0_, symObjAddr: 0x50E0, symBinAddr: 0x100008FDC, symSize: 0x34 }
  - { offsetInCU: 0x13F89, offset: 0x13F89, size: 0x8, addend: 0x0, symName: __ZNSt3__118__unwrap_iter_implIPKdLb1EE8__rewrapB8ue170006ES2_S2_, symObjAddr: 0x5150, symBinAddr: 0x10000904C, symSize: 0x50 }
  - { offsetInCU: 0x13FBA, offset: 0x13FBA, size: 0x8, addend: 0x0, symName: __ZNSt3__118__unwrap_iter_implIPdLb1EE8__unwrapB8ue170006ES1_, symObjAddr: 0x51A0, symBinAddr: 0x10000909C, symSize: 0x24 }
  - { offsetInCU: 0x13FDD, offset: 0x13FDD, size: 0x8, addend: 0x0, symName: __ZNSt3__118__unwrap_iter_implIPdLb1EE8__rewrapB8ue170006ES1_S1_, symObjAddr: 0x51C4, symBinAddr: 0x1000090C0, symSize: 0x50 }
  - { offsetInCU: 0x1400E, offset: 0x1400E, size: 0x8, addend: 0x0, symName: __ZNSt3__16vectorIdNS_9allocatorIdEEE21_ConstructTransactionD2B8ue170006Ev, symObjAddr: 0x5214, symBinAddr: 0x100009110, symSize: 0x20 }
  - { offsetInCU: 0x14038, offset: 0x14038, size: 0x8, addend: 0x0, symName: __ZNSt3__128__exception_guard_exceptionsINS_6vectorIdNS_9allocatorIdEEE16__destroy_vectorEED2B8ue170006Ev, symObjAddr: 0x5234, symBinAddr: 0x100009130, symSize: 0x50 }
  - { offsetInCU: 0x14062, offset: 0x14062, size: 0x8, addend: 0x0, symName: __ZNSt3__16vectorIdNS_9allocatorIdEEE16__destroy_vectorclB8ue170006Ev, symObjAddr: 0x5284, symBinAddr: 0x100009180, symSize: 0x90 }
  - { offsetInCU: 0x14088, offset: 0x14088, size: 0x8, addend: 0x0, symName: __ZNSt3__16vectorIdNS_9allocatorIdEEE7__clearB8ue170006Ev, symObjAddr: 0x5314, symBinAddr: 0x100009210, symSize: 0x28 }
  - { offsetInCU: 0x140AE, offset: 0x140AE, size: 0x8, addend: 0x0, symName: __ZNKSt3__16vectorIdNS_9allocatorIdEEE17__annotate_deleteB8ue170006Ev, symObjAddr: 0x533C, symBinAddr: 0x100009238, symSize: 0xB8 }
  - { offsetInCU: 0x140D4, offset: 0x140D4, size: 0x8, addend: 0x0, symName: __ZNSt3__116allocator_traitsINS_9allocatorIdEEE10deallocateB8ue170006ERS2_Pdm, symObjAddr: 0x53F4, symBinAddr: 0x1000092F0, symSize: 0x34 }
  - { offsetInCU: 0x14116, offset: 0x14116, size: 0x8, addend: 0x0, symName: __ZNSt3__16vectorIdNS_9allocatorIdEEE22__base_destruct_at_endB8ue170006EPd, symObjAddr: 0x5428, symBinAddr: 0x100009324, symSize: 0x8C }
  - { offsetInCU: 0x1415A, offset: 0x1415A, size: 0x8, addend: 0x0, symName: __ZNSt3__116allocator_traitsINS_9allocatorIdEEE7destroyB8ue170006IdvEEvRS2_PT_, symObjAddr: 0x54B4, symBinAddr: 0x1000093B0, symSize: 0x2C }
  - { offsetInCU: 0x14197, offset: 0x14197, size: 0x8, addend: 0x0, symName: __ZNSt3__19allocatorIdE7destroyB8ue170006EPd, symObjAddr: 0x54E0, symBinAddr: 0x1000093DC, symSize: 0x14 }
  - { offsetInCU: 0x141CB, offset: 0x141CB, size: 0x8, addend: 0x0, symName: __ZNKSt3__16vectorIdNS_9allocatorIdEEE4sizeB8ue170006Ev, symObjAddr: 0x54F4, symBinAddr: 0x1000093F0, symSize: 0x28 }
  - { offsetInCU: 0x141F1, offset: 0x141F1, size: 0x8, addend: 0x0, symName: __ZNSt3__19allocatorIdE10deallocateB8ue170006EPdm, symObjAddr: 0x551C, symBinAddr: 0x100009418, symSize: 0x40 }
  - { offsetInCU: 0x14233, offset: 0x14233, size: 0x8, addend: 0x0, symName: __ZNSt3__16vectorIdNS_9allocatorIdEEEC2EmRKd, symObjAddr: 0x555C, symBinAddr: 0x100009458, symSize: 0xDC }
  - { offsetInCU: 0x14292, offset: 0x14292, size: 0x8, addend: 0x0, symName: __ZNSt3__16vectorIdNS_9allocatorIdEEE18__construct_at_endEmRKd, symObjAddr: 0x5638, symBinAddr: 0x100009534, symSize: 0xD0 }
  - { offsetInCU: 0x14313, offset: 0x14313, size: 0x8, addend: 0x0, symName: __ZNSt3__116allocator_traitsINS_9allocatorIdEEE9constructB8ue170006IdJRKdEvEEvRS2_PT_DpOT0_, symObjAddr: 0x5708, symBinAddr: 0x100009604, symSize: 0x34 }
  - { offsetInCU: 0x1436A, offset: 0x1436A, size: 0x8, addend: 0x0, symName: __ZNSt3__19allocatorIdE9constructB8ue170006IdJRKdEEEvPT_DpOT0_, symObjAddr: 0x573C, symBinAddr: 0x100009638, symSize: 0x28 }
  - { offsetInCU: 0x143C0, offset: 0x143C0, size: 0x8, addend: 0x0, symName: __ZNSt3__16vectorIdNS_9allocatorIdEEED2B8ue170006Ev, symObjAddr: 0x5764, symBinAddr: 0x100009660, symSize: 0x40 }
  - { offsetInCU: 0x143EA, offset: 0x143EA, size: 0x8, addend: 0x0, symName: __ZNSt3__16vectorIPN5dgrad6TensorENS_9allocatorIS3_EEED2B8ue170006Ev, symObjAddr: 0x57A4, symBinAddr: 0x1000096A0, symSize: 0x44 }
  - { offsetInCU: 0x14414, offset: 0x14414, size: 0x8, addend: 0x0, symName: __ZNSt3__16vectorIPN5dgrad6TensorENS_9allocatorIS3_EEE16__destroy_vectorC1B8ue170006ERS6_, symObjAddr: 0x57E8, symBinAddr: 0x1000096E4, symSize: 0x34 }
  - { offsetInCU: 0x1444D, offset: 0x1444D, size: 0x8, addend: 0x0, symName: __ZNSt3__16vectorIPN5dgrad6TensorENS_9allocatorIS3_EEE16__destroy_vectorclB8ue170006Ev, symObjAddr: 0x581C, symBinAddr: 0x100009718, symSize: 0x90 }
  - { offsetInCU: 0x14473, offset: 0x14473, size: 0x8, addend: 0x0, symName: __ZNSt3__16vectorIPN5dgrad6TensorENS_9allocatorIS3_EEE16__destroy_vectorC2B8ue170006ERS6_, symObjAddr: 0x58AC, symBinAddr: 0x1000097A8, symSize: 0x20 }
  - { offsetInCU: 0x144AC, offset: 0x144AC, size: 0x8, addend: 0x0, symName: __ZNSt3__16vectorIPN5dgrad6TensorENS_9allocatorIS3_EEE7__clearB8ue170006Ev, symObjAddr: 0x58CC, symBinAddr: 0x1000097C8, symSize: 0x28 }
  - { offsetInCU: 0x144D2, offset: 0x144D2, size: 0x8, addend: 0x0, symName: __ZNKSt3__16vectorIPN5dgrad6TensorENS_9allocatorIS3_EEE17__annotate_deleteB8ue170006Ev, symObjAddr: 0x58F4, symBinAddr: 0x1000097F0, symSize: 0xB8 }
  - { offsetInCU: 0x144F8, offset: 0x144F8, size: 0x8, addend: 0x0, symName: __ZNSt3__116allocator_traitsINS_9allocatorIPN5dgrad6TensorEEEE10deallocateB8ue170006ERS5_PS4_m, symObjAddr: 0x59AC, symBinAddr: 0x1000098A8, symSize: 0x34 }
  - { offsetInCU: 0x1453A, offset: 0x1453A, size: 0x8, addend: 0x0, symName: __ZNSt3__16vectorIPN5dgrad6TensorENS_9allocatorIS3_EEE7__allocB8ue170006Ev, symObjAddr: 0x59E0, symBinAddr: 0x1000098DC, symSize: 0x28 }
  - { offsetInCU: 0x14560, offset: 0x14560, size: 0x8, addend: 0x0, symName: __ZNKSt3__16vectorIPN5dgrad6TensorENS_9allocatorIS3_EEE8capacityB8ue170006Ev, symObjAddr: 0x5A08, symBinAddr: 0x100009904, symSize: 0x40 }
  - { offsetInCU: 0x14586, offset: 0x14586, size: 0x8, addend: 0x0, symName: __ZNSt3__16vectorIPN5dgrad6TensorENS_9allocatorIS3_EEE22__base_destruct_at_endB8ue170006EPS3_, symObjAddr: 0x5A48, symBinAddr: 0x100009944, symSize: 0x8C }
  - { offsetInCU: 0x145CA, offset: 0x145CA, size: 0x8, addend: 0x0, symName: __ZNSt3__116allocator_traitsINS_9allocatorIPN5dgrad6TensorEEEE7destroyB8ue170006IS4_vEEvRS5_PT_, symObjAddr: 0x5AD4, symBinAddr: 0x1000099D0, symSize: 0x2C }
  - { offsetInCU: 0x14607, offset: 0x14607, size: 0x8, addend: 0x0, symName: __ZNSt3__19allocatorIPN5dgrad6TensorEE7destroyB8ue170006EPS3_, symObjAddr: 0x5B14, symBinAddr: 0x100009A10, symSize: 0x14 }
  - { offsetInCU: 0x1463B, offset: 0x1463B, size: 0x8, addend: 0x0, symName: __ZNKSt3__16vectorIPN5dgrad6TensorENS_9allocatorIS3_EEE31__annotate_contiguous_containerB8ue170006EPKvS8_S8_S8_, symObjAddr: 0x5B28, symBinAddr: 0x100009A24, symSize: 0x20 }
  - { offsetInCU: 0x1468D, offset: 0x1468D, size: 0x8, addend: 0x0, symName: __ZNKSt3__16vectorIPN5dgrad6TensorENS_9allocatorIS3_EEE4dataB8ue170006Ev, symObjAddr: 0x5B48, symBinAddr: 0x100009A44, symSize: 0x28 }
  - { offsetInCU: 0x146B3, offset: 0x146B3, size: 0x8, addend: 0x0, symName: __ZNKSt3__16vectorIPN5dgrad6TensorENS_9allocatorIS3_EEE4sizeB8ue170006Ev, symObjAddr: 0x5B70, symBinAddr: 0x100009A6C, symSize: 0x28 }
  - { offsetInCU: 0x146D9, offset: 0x146D9, size: 0x8, addend: 0x0, symName: __ZNSt3__19allocatorIPN5dgrad6TensorEE10deallocateB8ue170006EPS3_m, symObjAddr: 0x5B98, symBinAddr: 0x100009A94, symSize: 0x40 }
  - { offsetInCU: 0x1471B, offset: 0x1471B, size: 0x8, addend: 0x0, symName: __ZNSt3__117__compressed_pairIPPN5dgrad6TensorENS_9allocatorIS3_EEE6secondB8ue170006Ev, symObjAddr: 0x5BD8, symBinAddr: 0x100009AD4, symSize: 0x24 }
  - { offsetInCU: 0x14741, offset: 0x14741, size: 0x8, addend: 0x0, symName: __ZNSt3__122__compressed_pair_elemINS_9allocatorIPN5dgrad6TensorEEELi1ELb1EE5__getB8ue170006Ev, symObjAddr: 0x5BFC, symBinAddr: 0x100009AF8, symSize: 0x14 }
  - { offsetInCU: 0x14767, offset: 0x14767, size: 0x8, addend: 0x0, symName: __ZNKSt3__16vectorIPN5dgrad6TensorENS_9allocatorIS3_EEE9__end_capB8ue170006Ev, symObjAddr: 0x5C10, symBinAddr: 0x100009B0C, symSize: 0x28 }
  - { offsetInCU: 0x1478D, offset: 0x1478D, size: 0x8, addend: 0x0, symName: __ZNKSt3__117__compressed_pairIPPN5dgrad6TensorENS_9allocatorIS3_EEE5firstB8ue170006Ev, symObjAddr: 0x5C38, symBinAddr: 0x100009B34, symSize: 0x24 }
  - { offsetInCU: 0x147B3, offset: 0x147B3, size: 0x8, addend: 0x0, symName: __ZNKSt3__122__compressed_pair_elemIPPN5dgrad6TensorELi0ELb0EE5__getB8ue170006Ev, symObjAddr: 0x5C5C, symBinAddr: 0x100009B58, symSize: 0x14 }
  - { offsetInCU: 0x147D9, offset: 0x147D9, size: 0x8, addend: 0x0, symName: __ZNSt3__18functionIFvvEED2Ev, symObjAddr: 0x5C70, symBinAddr: 0x100009B6C, symSize: 0x2C }
  - { offsetInCU: 0x14805, offset: 0x14805, size: 0x8, addend: 0x0, symName: __ZNSt3__110__function12__value_funcIFvvEED1B8ue170006Ev, symObjAddr: 0x5C9C, symBinAddr: 0x100009B98, symSize: 0x2C }
  - { offsetInCU: 0x1482F, offset: 0x1482F, size: 0x8, addend: 0x0, symName: __ZNSt3__110__function12__value_funcIFvvEED2B8ue170006Ev, symObjAddr: 0x5CC8, symBinAddr: 0x100009BC4, symSize: 0x90 }
  - { offsetInCU: 0x14859, offset: 0x14859, size: 0x8, addend: 0x0, symName: __ZN5dgrad6TensorD2Ev, symObjAddr: 0x5D58, symBinAddr: 0x100009C54, symSize: 0x5C }
  - { offsetInCU: 0x14885, offset: 0x14885, size: 0x8, addend: 0x0, symName: __ZNKSt3__16vectorIdNS_9allocatorIdEEEixB8ue170006Em, symObjAddr: 0x5DFC, symBinAddr: 0x100009CF8, symSize: 0x24 }
  - { offsetInCU: 0x148BC, offset: 0x148BC, size: 0x8, addend: 0x0, symName: __ZNSt3__111char_traitsIcE6lengthB8ue170006EPKc, symObjAddr: 0x600C, symBinAddr: 0x100009F08, symSize: 0x34 }
  - { offsetInCU: 0x148FD, offset: 0x148FD, size: 0x8, addend: 0x0, symName: __ZNKSt3__113basic_ostreamIcNS_11char_traitsIcEEE6sentrycvbB8ue170006Ev, symObjAddr: 0x6040, symBinAddr: 0x100009F3C, symSize: 0x1C }
  - { offsetInCU: 0x14923, offset: 0x14923, size: 0x8, addend: 0x0, symName: __ZNSt3__119ostreambuf_iteratorIcNS_11char_traitsIcEEEC1B8ue170006ERNS_13basic_ostreamIcS2_EE, symObjAddr: 0x629C, symBinAddr: 0x10000A198, symSize: 0x34 }
  - { offsetInCU: 0x1495B, offset: 0x1495B, size: 0x8, addend: 0x0, symName: __ZNKSt3__18ios_base5flagsB8ue170006Ev, symObjAddr: 0x62D0, symBinAddr: 0x10000A1CC, symSize: 0x18 }
  - { offsetInCU: 0x14983, offset: 0x14983, size: 0x8, addend: 0x0, symName: __ZNKSt3__19basic_iosIcNS_11char_traitsIcEEE4fillB8ue170006Ev, symObjAddr: 0x62E8, symBinAddr: 0x10000A1E4, symSize: 0x64 }
  - { offsetInCU: 0x149AB, offset: 0x149AB, size: 0x8, addend: 0x0, symName: __ZNKSt3__119ostreambuf_iteratorIcNS_11char_traitsIcEEE6failedB8ue170006Ev, symObjAddr: 0x634C, symBinAddr: 0x10000A248, symSize: 0x24 }
  - { offsetInCU: 0x149D1, offset: 0x149D1, size: 0x8, addend: 0x0, symName: __ZNSt3__19basic_iosIcNS_11char_traitsIcEEE8setstateB8ue170006Ej, symObjAddr: 0x6370, symBinAddr: 0x10000A26C, symSize: 0x2C }
  - { offsetInCU: 0x14A06, offset: 0x14A06, size: 0x8, addend: 0x0, symName: __ZNKSt3__18ios_base5widthB8ue170006Ev, symObjAddr: 0x639C, symBinAddr: 0x10000A298, symSize: 0x18 }
  - { offsetInCU: 0x14A2E, offset: 0x14A2E, size: 0x8, addend: 0x0, symName: __ZNSt3__115basic_streambufIcNS_11char_traitsIcEEE5sputnB8ue170006EPKcl, symObjAddr: 0x63B4, symBinAddr: 0x10000A2B0, symSize: 0x3C }
  - { offsetInCU: 0x14A70, offset: 0x14A70, size: 0x8, addend: 0x0, symName: __ZNSt3__112basic_stringIcNS_11char_traitsIcEENS_9allocatorIcEEEC1B8ue170006Emc, symObjAddr: 0x63F0, symBinAddr: 0x10000A2EC, symSize: 0x3C }
  - { offsetInCU: 0x14AB8, offset: 0x14AB8, size: 0x8, addend: 0x0, symName: __ZNKSt3__112basic_stringIcNS_11char_traitsIcEENS_9allocatorIcEEE4dataB8ue170006Ev, symObjAddr: 0x642C, symBinAddr: 0x10000A328, symSize: 0x28 }
  - { offsetInCU: 0x14ADE, offset: 0x14ADE, size: 0x8, addend: 0x0, symName: __ZNSt3__18ios_base5widthB8ue170006El, symObjAddr: 0x6454, symBinAddr: 0x10000A350, symSize: 0x2C }
  - { offsetInCU: 0x14B24, offset: 0x14B24, size: 0x8, addend: 0x0, symName: __ZNSt3__112basic_stringIcNS_11char_traitsIcEENS_9allocatorIcEEEC2B8ue170006Emc, symObjAddr: 0x6480, symBinAddr: 0x10000A37C, symSize: 0x4C }
  - { offsetInCU: 0x14B6C, offset: 0x14B6C, size: 0x8, addend: 0x0, symName: __ZNSt3__117__compressed_pairINS_12basic_stringIcNS_11char_traitsIcEENS_9allocatorIcEEE5__repES5_EC1B8ue170006INS_18__default_init_tagESA_EEOT_OT0_, symObjAddr: 0x64CC, symBinAddr: 0x10000A3C8, symSize: 0x3C }
  - { offsetInCU: 0x14BC4, offset: 0x14BC4, size: 0x8, addend: 0x0, symName: __ZNSt3__117__compressed_pairINS_12basic_stringIcNS_11char_traitsIcEENS_9allocatorIcEEE5__repES5_EC2B8ue170006INS_18__default_init_tagESA_EEOT_OT0_, symObjAddr: 0x6508, symBinAddr: 0x10000A404, symSize: 0x3C }
  - { offsetInCU: 0x14C1C, offset: 0x14C1C, size: 0x8, addend: 0x0, symName: __ZNSt3__122__compressed_pair_elemINS_12basic_stringIcNS_11char_traitsIcEENS_9allocatorIcEEE5__repELi0ELb0EEC2B8ue170006ENS_18__default_init_tagE, symObjAddr: 0x6544, symBinAddr: 0x10000A440, symSize: 0x14 }
  - { offsetInCU: 0x14C50, offset: 0x14C50, size: 0x8, addend: 0x0, symName: __ZNSt3__122__compressed_pair_elemINS_9allocatorIcEELi1ELb1EEC2B8ue170006ENS_18__default_init_tagE, symObjAddr: 0x6558, symBinAddr: 0x10000A454, symSize: 0x2C }
  - { offsetInCU: 0x14C84, offset: 0x14C84, size: 0x8, addend: 0x0, symName: __ZNSt3__19allocatorIcEC2B8ue170006Ev, symObjAddr: 0x6584, symBinAddr: 0x10000A480, symSize: 0x2C }
  - { offsetInCU: 0x14CAE, offset: 0x14CAE, size: 0x8, addend: 0x0, symName: __ZNSt3__116__non_trivial_ifILb1ENS_9allocatorIcEEEC2B8ue170006Ev, symObjAddr: 0x65B0, symBinAddr: 0x10000A4AC, symSize: 0x14 }
  - { offsetInCU: 0x14CD8, offset: 0x14CD8, size: 0x8, addend: 0x0, symName: __ZNKSt3__112basic_stringIcNS_11char_traitsIcEENS_9allocatorIcEEE13__get_pointerB8ue170006Ev, symObjAddr: 0x65D8, symBinAddr: 0x10000A4D4, symSize: 0x54 }
  - { offsetInCU: 0x14CFE, offset: 0x14CFE, size: 0x8, addend: 0x0, symName: __ZNKSt3__112basic_stringIcNS_11char_traitsIcEENS_9allocatorIcEEE9__is_longB8ue170006Ev, symObjAddr: 0x662C, symBinAddr: 0x10000A528, symSize: 0x38 }
  - { offsetInCU: 0x14D24, offset: 0x14D24, size: 0x8, addend: 0x0, symName: __ZNKSt3__112basic_stringIcNS_11char_traitsIcEENS_9allocatorIcEEE18__get_long_pointerB8ue170006Ev, symObjAddr: 0x6664, symBinAddr: 0x10000A560, symSize: 0x28 }
  - { offsetInCU: 0x14D4A, offset: 0x14D4A, size: 0x8, addend: 0x0, symName: __ZNKSt3__112basic_stringIcNS_11char_traitsIcEENS_9allocatorIcEEE19__get_short_pointerB8ue170006Ev, symObjAddr: 0x668C, symBinAddr: 0x10000A588, symSize: 0x28 }
  - { offsetInCU: 0x14D70, offset: 0x14D70, size: 0x8, addend: 0x0, symName: __ZNKSt3__117__compressed_pairINS_12basic_stringIcNS_11char_traitsIcEENS_9allocatorIcEEE5__repES5_E5firstB8ue170006Ev, symObjAddr: 0x66B4, symBinAddr: 0x10000A5B0, symSize: 0x24 }
  - { offsetInCU: 0x14D96, offset: 0x14D96, size: 0x8, addend: 0x0, symName: __ZNKSt3__122__compressed_pair_elemINS_12basic_stringIcNS_11char_traitsIcEENS_9allocatorIcEEE5__repELi0ELb0EE5__getB8ue170006Ev, symObjAddr: 0x66D8, symBinAddr: 0x10000A5D4, symSize: 0x14 }
  - { offsetInCU: 0x14DBC, offset: 0x14DBC, size: 0x8, addend: 0x0, symName: __ZNSt3__114pointer_traitsIPKcE10pointer_toB8ue170006ERS1_, symObjAddr: 0x66EC, symBinAddr: 0x10000A5E8, symSize: 0x14 }
  - { offsetInCU: 0x14DDF, offset: 0x14DDF, size: 0x8, addend: 0x0, symName: __ZNSt3__119ostreambuf_iteratorIcNS_11char_traitsIcEEEC2B8ue170006ERNS_13basic_ostreamIcS2_EE, symObjAddr: 0x6700, symBinAddr: 0x10000A5FC, symSize: 0x54 }
  - { offsetInCU: 0x14E17, offset: 0x14E17, size: 0x8, addend: 0x0, symName: __ZNKSt3__19basic_iosIcNS_11char_traitsIcEEE5rdbufB8ue170006Ev, symObjAddr: 0x6754, symBinAddr: 0x10000A650, symSize: 0x24 }
  - { offsetInCU: 0x14E3F, offset: 0x14E3F, size: 0x8, addend: 0x0, symName: __ZNKSt3__18ios_base5rdbufB8ue170006Ev, symObjAddr: 0x6778, symBinAddr: 0x10000A674, symSize: 0x18 }
  - { offsetInCU: 0x14E65, offset: 0x14E65, size: 0x8, addend: 0x0, symName: __ZNSt3__111char_traitsIcE11eq_int_typeB8ue170006Eii, symObjAddr: 0x6790, symBinAddr: 0x10000A68C, symSize: 0x28 }
  - { offsetInCU: 0x14E98, offset: 0x14E98, size: 0x8, addend: 0x0, symName: __ZNSt3__111char_traitsIcE3eofB8ue170006Ev, symObjAddr: 0x67B8, symBinAddr: 0x10000A6B4, symSize: 0x8 }
  - { offsetInCU: 0x14EAC, offset: 0x14EAC, size: 0x8, addend: 0x0, symName: __ZNKSt3__19basic_iosIcNS_11char_traitsIcEEE5widenB8ue170006Ec, symObjAddr: 0x67C0, symBinAddr: 0x10000A6BC, symSize: 0x84 }
  - { offsetInCU: 0x14F15, offset: 0x14F15, size: 0x8, addend: 0x0, symName: __ZNKSt3__15ctypeIcE5widenB8ue170006Ec, symObjAddr: 0x6870, symBinAddr: 0x10000A76C, symSize: 0x38 }
  - { offsetInCU: 0x14F4A, offset: 0x14F4A, size: 0x8, addend: 0x0, symName: __ZNSt3__18ios_base8setstateB8ue170006Ej, symObjAddr: 0x68A8, symBinAddr: 0x10000A7A4, symSize: 0x34 }
  - { offsetInCU: 0x5C, offset: 0x151CB, size: 0x8, addend: 0x0, symName: __ZNSt3__1L19piecewise_constructE, symObjAddr: 0x1E12D, symBinAddr: 0x100026530, symSize: 0x0 }
  - { offsetInCU: 0x2248, offset: 0x173B7, size: 0x8, addend: 0x0, symName: __ZNSt3__110__function10__not_nullB8ue170006IZN5dgrad6TensorC1ENS_6vectorIdNS_9allocatorIdEEEEEUlvE_EEbRKT_, symObjAddr: 0x40B8, symBinAddr: 0x10000DE24, symSize: 0x18 }
  - { offsetInCU: 0x2279, offset: 0x173E8, size: 0x8, addend: 0x0, symName: __ZNSt3__110__function10__not_nullB8ue170006IZN5dgrad6TensorC1ENS_6vectorIdNS_9allocatorIdEEEEEUlvE0_EEbRKT_, symObjAddr: 0x5A9C, symBinAddr: 0x10000F6B4, symSize: 0x18 }
  - { offsetInCU: 0x22AA, offset: 0x17419, size: 0x8, addend: 0x0, symName: '__ZNSt3__110__function10__not_nullB8ue170006IZN5dgrad3addEPNS2_6TensorES4_E3$_0EEbRKT_', symObjAddr: 0xDD50, symBinAddr: 0x100015F74, symSize: 0x18 }
  - { offsetInCU: 0x22DC, offset: 0x1744B, size: 0x8, addend: 0x0, symName: '__ZNSt3__110__function10__not_nullB8ue170006IZN5dgrad4subsEPNS2_6TensorES4_E3$_1EEbRKT_', symObjAddr: 0xFB9C, symBinAddr: 0x100017DC0, symSize: 0x18 }
  - { offsetInCU: 0x230E, offset: 0x1747D, size: 0x8, addend: 0x0, symName: '__ZNSt3__110__function10__not_nullB8ue170006IZN5dgrad4multEPNS2_6TensorES4_E3$_2EEbRKT_', symObjAddr: 0x11700, symBinAddr: 0x100019924, symSize: 0x18 }
  - { offsetInCU: 0x2340, offset: 0x174AF, size: 0x8, addend: 0x0, symName: '__ZNSt3__110__function10__not_nullB8ue170006IZN5dgrad3divEPNS2_6TensorES4_E3$_3EEbRKT_', symObjAddr: 0x1329C, symBinAddr: 0x10001B4C0, symSize: 0x18 }
  - { offsetInCU: 0x2372, offset: 0x174E1, size: 0x8, addend: 0x0, symName: '__ZNSt3__110__function10__not_nullB8ue170006IZN5dgrad3dotEPNS2_6TensorES4_E3$_4EEbRKT_', symObjAddr: 0x14E88, symBinAddr: 0x10001D0AC, symSize: 0x18 }
  - { offsetInCU: 0x23A4, offset: 0x17513, size: 0x8, addend: 0x0, symName: '__ZNSt3__110__function10__not_nullB8ue170006IZN5dgrad3expEPNS2_6TensorEE3$_5EEbRKT_', symObjAddr: 0x16AB0, symBinAddr: 0x10001ECD4, symSize: 0x18 }
  - { offsetInCU: 0x23D6, offset: 0x17545, size: 0x8, addend: 0x0, symName: '__ZNSt3__110__function10__not_nullB8ue170006IZN5dgrad4tanhEPNS2_6TensorEE3$_6EEbRKT_', symObjAddr: 0x18880, symBinAddr: 0x100020A80, symSize: 0x18 }
  - { offsetInCU: 0x2408, offset: 0x17577, size: 0x8, addend: 0x0, symName: '__ZNSt3__110__function10__not_nullB8ue170006IZN5dgrad4reluEPNS2_6TensorEE3$_7EEbRKT_', symObjAddr: 0x1A584, symBinAddr: 0x100022784, symSize: 0x18 }
  - { offsetInCU: 0x1326E, offset: 0x283DD, size: 0x8, addend: 0x0, symName: __ZNSt3__1eqB8ue170006ERKNS_21__tree_const_iteratorINS_6vectorIdNS_9allocatorIdEEEEPNS_11__tree_nodeIS4_PvEElEESB_, symObjAddr: 0x174, symBinAddr: 0x10000A970, symSize: 0x30 }
  - { offsetInCU: 0x13990, offset: 0x28AFF, size: 0x8, addend: 0x0, symName: __ZNSt3__1neB8ue170006IPPN5dgrad6TensorEEEbRKNS_11__wrap_iterIT_EES9_, symObjAddr: 0x2C8, symBinAddr: 0x10000AAC4, symSize: 0x34 }
  - { offsetInCU: 0x139D3, offset: 0x28B42, size: 0x8, addend: 0x0, symName: __ZNSt3__17reverseB8ue170006INS_11__wrap_iterIPN5dgrad6TensorEEEEEvT_S6_, symObjAddr: 0x1F44, symBinAddr: 0x10000C640, symSize: 0x3C }
  - { offsetInCU: 0x13A13, offset: 0x28B82, size: 0x8, addend: 0x0, symName: __ZNSt3__1neB8ue170006IPN5dgrad6TensorEEEbRKNS_11__wrap_iterIT_EES8_, symObjAddr: 0x1FE0, symBinAddr: 0x10000C6DC, symSize: 0x34 }
  - { offsetInCU: 0x13A56, offset: 0x28BC5, size: 0x8, addend: 0x0, symName: __ZNSt3__1eqB8ue170006IPPN5dgrad6TensorEEEbRKNS_11__wrap_iterIT_EES9_, symObjAddr: 0x22C8, symBinAddr: 0x10000C9C4, symSize: 0x48 }
  - { offsetInCU: 0x13A99, offset: 0x28C08, size: 0x8, addend: 0x0, symName: __ZNSt3__122__make_exception_guardB8ue170006INS_6vectorIPN5dgrad6TensorENS_9allocatorIS4_EEE16__destroy_vectorEEENS_28__exception_guard_exceptionsIT_EESA_, symObjAddr: 0x28E0, symBinAddr: 0x10000CF40, symSize: 0x40 }
  - { offsetInCU: 0x13ACE, offset: 0x28C3D, size: 0x8, addend: 0x0, symName: __ZNSt3__119__allocate_at_leastB8ue170006INS_9allocatorIPN5dgrad6TensorEEEEENS_19__allocation_resultINS_16allocator_traitsIT_E7pointerEEERS8_m, symObjAddr: 0x2BC8, symBinAddr: 0x10000D1D4, symSize: 0x40 }
  - { offsetInCU: 0x13B86, offset: 0x28CF5, size: 0x8, addend: 0x0, symName: __ZNSt3__130__uninitialized_allocator_copyB8ue170006INS_9allocatorIPN5dgrad6TensorEEEPS4_S6_S6_EET2_RT_T0_T1_S7_, symObjAddr: 0x317C, symBinAddr: 0x10000D3EC, symSize: 0x80 }
  - { offsetInCU: 0x13C24, offset: 0x28D93, size: 0x8, addend: 0x0, symName: __ZNSt3__114__unwrap_rangeB8ue170006IPPN5dgrad6TensorES4_EENS_4pairIT0_S6_EET_S8_, symObjAddr: 0x326C, symBinAddr: 0x10000D4DC, symSize: 0x60 }
  - { offsetInCU: 0x13C6F, offset: 0x28DDE, size: 0x8, addend: 0x0, symName: __ZNSt3__135__uninitialized_allocator_copy_implB8ue170006INS_9allocatorIPN5dgrad6TensorEEES4_S4_S4_LPv0EEEPT2_RT_PT0_SC_S8_, symObjAddr: 0x32CC, symBinAddr: 0x10000D53C, symSize: 0x38 }
  - { offsetInCU: 0x13CF1, offset: 0x28E60, size: 0x8, addend: 0x0, symName: __ZNSt3__113__unwrap_iterB8ue170006IPPN5dgrad6TensorENS_18__unwrap_iter_implIS4_Lb1EEELi0EEEDTclsrT0_8__unwrapclsr3stdE7declvalIT_EEEES8_, symObjAddr: 0x3304, symBinAddr: 0x10000D574, symSize: 0x24 }
  - { offsetInCU: 0x13D35, offset: 0x28EA4, size: 0x8, addend: 0x0, symName: __ZNSt3__113__rewrap_iterB8ue170006IPPN5dgrad6TensorES4_NS_18__unwrap_iter_implIS4_Lb1EEEEET_S7_T0_, symObjAddr: 0x3328, symBinAddr: 0x10000D598, symSize: 0x3C }
  - { offsetInCU: 0x13D89, offset: 0x28EF8, size: 0x8, addend: 0x0, symName: __ZNSt3__19make_pairB8ue170006IPPN5dgrad6TensorES4_EENS_4pairINS_18__unwrap_ref_decayIT_E4typeENS6_IT0_E4typeEEEOS7_OSA_, symObjAddr: 0x3364, symBinAddr: 0x10000D5D4, symSize: 0x38 }
  - { offsetInCU: 0x13EDC, offset: 0x2904B, size: 0x8, addend: 0x0, symName: __ZNSt3__14copyB8ue170006IPPN5dgrad6TensorES4_EET0_T_S6_S5_, symObjAddr: 0x340C, symBinAddr: 0x10000D67C, symSize: 0x40 }
  - { offsetInCU: 0x13F36, offset: 0x290A5, size: 0x8, addend: 0x0, symName: __ZNSt3__16__copyB8ue170006INS_17_ClassicAlgPolicyEPPN5dgrad6TensorES5_S5_EENS_4pairIT0_T2_EES7_T1_S8_, symObjAddr: 0x344C, symBinAddr: 0x10000D6BC, symSize: 0x44 }
  - { offsetInCU: 0x13FA2, offset: 0x29111, size: 0x8, addend: 0x0, symName: __ZNSt3__123__dispatch_copy_or_moveB8ue170006INS_17_ClassicAlgPolicyENS_11__copy_loopIS1_EENS_14__copy_trivialEPPN5dgrad6TensorES8_S8_EENS_4pairIT2_T4_EESA_T3_SB_, symObjAddr: 0x3490, symBinAddr: 0x10000D700, symSize: 0x44 }
  - { offsetInCU: 0x14020, offset: 0x2918F, size: 0x8, addend: 0x0, symName: __ZNSt3__121__unwrap_and_dispatchB8ue170006INS_10__overloadINS_11__copy_loopINS_17_ClassicAlgPolicyEEENS_14__copy_trivialEEEPPN5dgrad6TensorESA_SA_Li0EEENS_4pairIT0_T2_EESC_T1_SD_, symObjAddr: 0x34D4, symBinAddr: 0x10000D744, symSize: 0xB4 }
  - { offsetInCU: 0x14130, offset: 0x2929F, size: 0x8, addend: 0x0, symName: __ZNSt3__114__rewrap_rangeB8ue170006IPPN5dgrad6TensorES4_EET_S5_T0_, symObjAddr: 0x35D0, symBinAddr: 0x10000D840, symSize: 0x2C }
  - { offsetInCU: 0x1417C, offset: 0x292EB, size: 0x8, addend: 0x0, symName: __ZNSt3__119__copy_trivial_implB8ue170006IPN5dgrad6TensorES3_EENS_4pairIPT_PT0_EES6_S6_S8_, symObjAddr: 0x35FC, symBinAddr: 0x10000D86C, symSize: 0x80 }
  - { offsetInCU: 0x141E4, offset: 0x29353, size: 0x8, addend: 0x0, symName: __ZNSt3__119__constexpr_memmoveB8ue170006IPN5dgrad6TensorES3_Li0EEEPT_S5_PT0_NS_15__element_countE, symObjAddr: 0x367C, symBinAddr: 0x10000D8EC, symSize: 0x64 }
  - { offsetInCU: 0x14251, offset: 0x293C0, size: 0x8, addend: 0x0, symName: __ZNSt3__19make_pairB8ue170006IRPPN5dgrad6TensorES4_EENS_4pairINS_18__unwrap_ref_decayIT_E4typeENS7_IT0_E4typeEEEOS8_OSB_, symObjAddr: 0x36E0, symBinAddr: 0x10000D950, symSize: 0x38 }
  - { offsetInCU: 0x14456, offset: 0x295C5, size: 0x8, addend: 0x0, symName: __ZNSt3__116forward_as_tupleB8ue170006IJZN5dgrad6TensorC1ENS_6vectorIdNS_9allocatorIdEEEEEUlvE_EEENS_5tupleIJDpOT_EEESB_, symObjAddr: 0x4630, symBinAddr: 0x10000E344, symSize: 0x2C }
  - { offsetInCU: 0x1448F, offset: 0x295FE, size: 0x8, addend: 0x0, symName: __ZNSt3__116forward_as_tupleB8ue170006IJNS_9allocatorIZN5dgrad6TensorC1ENS_6vectorIdNS1_IdEEEEEUlvE_EEEEENS_5tupleIJDpOT_EEESC_, symObjAddr: 0x465C, symBinAddr: 0x10000E370, symSize: 0x2C }
  - { offsetInCU: 0x144F2, offset: 0x29661, size: 0x8, addend: 0x0, symName: __ZNSt3__13getB8ue170006ILm0EJOZN5dgrad6TensorC1ENS_6vectorIdNS_9allocatorIdEEEEEUlvE_EEERNS_13tuple_elementIXT_ENS_5tupleIJDpT0_EEEE4typeERSD_, symObjAddr: 0x4974, symBinAddr: 0x10000E688, symSize: 0x24 }
  - { offsetInCU: 0x14535, offset: 0x296A4, size: 0x8, addend: 0x0, symName: __ZNSt3__13getB8ue170006ILm0EJONS_9allocatorIZN5dgrad6TensorC1ENS_6vectorIdNS1_IdEEEEEUlvE_EEEEERNS_13tuple_elementIXT_ENS_5tupleIJDpT0_EEEE4typeERSE_, symObjAddr: 0x49B0, symBinAddr: 0x10000E6C4, symSize: 0x24 }
  - { offsetInCU: 0x14A5C, offset: 0x29BCB, size: 0x8, addend: 0x0, symName: __ZNSt3__116forward_as_tupleB8ue170006IJRKZN5dgrad6TensorC1ENS_6vectorIdNS_9allocatorIdEEEEEUlvE_EEENS_5tupleIJDpOT_EEESD_, symObjAddr: 0x4F44, symBinAddr: 0x10000EC58, symSize: 0x2C }
  - { offsetInCU: 0x14AAA, offset: 0x29C19, size: 0x8, addend: 0x0, symName: __ZNSt3__13getB8ue170006ILm0EJRKZN5dgrad6TensorC1ENS_6vectorIdNS_9allocatorIdEEEEEUlvE_EEERNS_13tuple_elementIXT_ENS_5tupleIJDpT0_EEEE4typeERSE_, symObjAddr: 0x5134, symBinAddr: 0x10000EE48, symSize: 0x24 }
  - { offsetInCU: 0x14AED, offset: 0x29C5C, size: 0x8, addend: 0x0, symName: __ZNSt3__116forward_as_tupleB8ue170006IJRKNS_9allocatorIZN5dgrad6TensorC1ENS_6vectorIdNS1_IdEEEEEUlvE_EEEEENS_5tupleIJDpOT_EEESE_, symObjAddr: 0x5490, symBinAddr: 0x10000F1A4, symSize: 0x2C }
  - { offsetInCU: 0x14B3B, offset: 0x29CAA, size: 0x8, addend: 0x0, symName: __ZNSt3__13getB8ue170006ILm0EJRKNS_9allocatorIZN5dgrad6TensorC1ENS_6vectorIdNS1_IdEEEEEUlvE_EEEEERNS_13tuple_elementIXT_ENS_5tupleIJDpT0_EEEE4typeERSF_, symObjAddr: 0x5674, symBinAddr: 0x10000F388, symSize: 0x24 }
  - { offsetInCU: 0x14CBF, offset: 0x29E2E, size: 0x8, addend: 0x0, symName: __ZNSt3__18__invokeB8ue170006IRZN5dgrad6TensorC1ENS_6vectorIdNS_9allocatorIdEEEEEUlvE_JEEEDTclclsr3stdE7declvalIT_EEspclsr3stdE7declvalIT0_EEEEOS9_DpOSA_, symObjAddr: 0x5730, symBinAddr: 0x10000F444, symSize: 0x24 }
  - { offsetInCU: 0x14E59, offset: 0x29FC8, size: 0x8, addend: 0x0, symName: __ZNSt3__116forward_as_tupleB8ue170006IJZN5dgrad6TensorC1ENS_6vectorIdNS_9allocatorIdEEEEEUlvE0_EEENS_5tupleIJDpOT_EEESB_, symObjAddr: 0x5FBC, symBinAddr: 0x10000FBD4, symSize: 0x2C }
  - { offsetInCU: 0x14E92, offset: 0x2A001, size: 0x8, addend: 0x0, symName: __ZNSt3__116forward_as_tupleB8ue170006IJNS_9allocatorIZN5dgrad6TensorC1ENS_6vectorIdNS1_IdEEEEEUlvE0_EEEEENS_5tupleIJDpOT_EEESC_, symObjAddr: 0x5FE8, symBinAddr: 0x10000FC00, symSize: 0x2C }
  - { offsetInCU: 0x14EF5, offset: 0x2A064, size: 0x8, addend: 0x0, symName: __ZNSt3__13getB8ue170006ILm0EJOZN5dgrad6TensorC1ENS_6vectorIdNS_9allocatorIdEEEEEUlvE0_EEERNS_13tuple_elementIXT_ENS_5tupleIJDpT0_EEEE4typeERSD_, symObjAddr: 0x62F4, symBinAddr: 0x10000FF0C, symSize: 0x24 }
  - { offsetInCU: 0x14F38, offset: 0x2A0A7, size: 0x8, addend: 0x0, symName: __ZNSt3__13getB8ue170006ILm0EJONS_9allocatorIZN5dgrad6TensorC1ENS_6vectorIdNS1_IdEEEEEUlvE0_EEEEERNS_13tuple_elementIXT_ENS_5tupleIJDpT0_EEEE4typeERSE_, symObjAddr: 0x6330, symBinAddr: 0x10000FF48, symSize: 0x24 }
  - { offsetInCU: 0x1545F, offset: 0x2A5CE, size: 0x8, addend: 0x0, symName: __ZNSt3__116forward_as_tupleB8ue170006IJRKZN5dgrad6TensorC1ENS_6vectorIdNS_9allocatorIdEEEEEUlvE0_EEENS_5tupleIJDpOT_EEESD_, symObjAddr: 0x68C4, symBinAddr: 0x1000104DC, symSize: 0x2C }
  - { offsetInCU: 0x154AD, offset: 0x2A61C, size: 0x8, addend: 0x0, symName: __ZNSt3__13getB8ue170006ILm0EJRKZN5dgrad6TensorC1ENS_6vectorIdNS_9allocatorIdEEEEEUlvE0_EEERNS_13tuple_elementIXT_ENS_5tupleIJDpT0_EEEE4typeERSE_, symObjAddr: 0x6AA8, symBinAddr: 0x1000106C0, symSize: 0x24 }
  - { offsetInCU: 0x154F0, offset: 0x2A65F, size: 0x8, addend: 0x0, symName: __ZNSt3__116forward_as_tupleB8ue170006IJRKNS_9allocatorIZN5dgrad6TensorC1ENS_6vectorIdNS1_IdEEEEEUlvE0_EEEEENS_5tupleIJDpOT_EEESE_, symObjAddr: 0x6E04, symBinAddr: 0x100010A1C, symSize: 0x2C }
  - { offsetInCU: 0x1553E, offset: 0x2A6AD, size: 0x8, addend: 0x0, symName: __ZNSt3__13getB8ue170006ILm0EJRKNS_9allocatorIZN5dgrad6TensorC1ENS_6vectorIdNS1_IdEEEEEUlvE0_EEEEERNS_13tuple_elementIXT_ENS_5tupleIJDpT0_EEEE4typeERSF_, symObjAddr: 0x6FE8, symBinAddr: 0x100010C00, symSize: 0x24 }
  - { offsetInCU: 0x15582, offset: 0x2A6F1, size: 0x8, addend: 0x0, symName: __ZNSt3__18__invokeB8ue170006IRZN5dgrad6TensorC1ENS_6vectorIdNS_9allocatorIdEEEEEUlvE0_JEEEDTclclsr3stdE7declvalIT_EEspclsr3stdE7declvalIT0_EEEEOS9_DpOSA_, symObjAddr: 0x70A4, symBinAddr: 0x100010CBC, symSize: 0x24 }
  - { offsetInCU: 0x155BA, offset: 0x2A729, size: 0x8, addend: 0x0, symName: __ZNSt3__1eqB8ue170006IPN5dgrad6TensorEEEbRKNS_11__wrap_iterIT_EES8_, symObjAddr: 0x7280, symBinAddr: 0x100010D64, symSize: 0x48 }
  - { offsetInCU: 0x155FC, offset: 0x2A76B, size: 0x8, addend: 0x0, symName: __ZNSt3__130__uninitialized_allocator_copyB8ue170006INS_9allocatorIdEEPdS3_S3_EET2_RT_T0_T1_S4_, symObjAddr: 0x826C, symBinAddr: 0x100011044, symSize: 0x80 }
  - { offsetInCU: 0x1569A, offset: 0x2A809, size: 0x8, addend: 0x0, symName: __ZNSt3__114__unwrap_rangeB8ue170006IPdS1_EENS_4pairIT0_S3_EET_S5_, symObjAddr: 0x82EC, symBinAddr: 0x1000110C4, symSize: 0x60 }
  - { offsetInCU: 0x156E5, offset: 0x2A854, size: 0x8, addend: 0x0, symName: __ZNSt3__135__uninitialized_allocator_copy_implB8ue170006INS_9allocatorIdEEdddLPv0EEEPT2_RT_PT0_S9_S5_, symObjAddr: 0x834C, symBinAddr: 0x100011124, symSize: 0x38 }
  - { offsetInCU: 0x15766, offset: 0x2A8D5, size: 0x8, addend: 0x0, symName: __ZNSt3__19make_pairB8ue170006IPdS1_EENS_4pairINS_18__unwrap_ref_decayIT_E4typeENS3_IT0_E4typeEEEOS4_OS7_, symObjAddr: 0x83E4, symBinAddr: 0x10001115C, symSize: 0x38 }
  - { offsetInCU: 0x158B9, offset: 0x2AA28, size: 0x8, addend: 0x0, symName: __ZNSt3__14copyB8ue170006IPdS1_EET0_T_S3_S2_, symObjAddr: 0x848C, symBinAddr: 0x100011204, symSize: 0x40 }
  - { offsetInCU: 0x15913, offset: 0x2AA82, size: 0x8, addend: 0x0, symName: __ZNSt3__16__copyB8ue170006INS_17_ClassicAlgPolicyEPdS2_S2_EENS_4pairIT0_T2_EES4_T1_S5_, symObjAddr: 0x84CC, symBinAddr: 0x100011244, symSize: 0x44 }
  - { offsetInCU: 0x1597F, offset: 0x2AAEE, size: 0x8, addend: 0x0, symName: __ZNSt3__123__dispatch_copy_or_moveB8ue170006INS_17_ClassicAlgPolicyENS_11__copy_loopIS1_EENS_14__copy_trivialEPdS5_S5_EENS_4pairIT2_T4_EES7_T3_S8_, symObjAddr: 0x8510, symBinAddr: 0x100011288, symSize: 0x44 }
  - { offsetInCU: 0x159FD, offset: 0x2AB6C, size: 0x8, addend: 0x0, symName: __ZNSt3__121__unwrap_and_dispatchB8ue170006INS_10__overloadINS_11__copy_loopINS_17_ClassicAlgPolicyEEENS_14__copy_trivialEEEPdS7_S7_Li0EEENS_4pairIT0_T2_EES9_T1_SA_, symObjAddr: 0x8554, symBinAddr: 0x1000112CC, symSize: 0xB4 }
  - { offsetInCU: 0x15A8B, offset: 0x2ABFA, size: 0x8, addend: 0x0, symName: __ZNSt3__114__rewrap_rangeB8ue170006IPdS1_EET_S2_T0_, symObjAddr: 0x8650, symBinAddr: 0x1000113C8, symSize: 0x2C }
  - { offsetInCU: 0x15AD7, offset: 0x2AC46, size: 0x8, addend: 0x0, symName: __ZNSt3__119__copy_trivial_implB8ue170006IddEENS_4pairIPT_PT0_EES3_S3_S5_, symObjAddr: 0x867C, symBinAddr: 0x1000113F4, symSize: 0x80 }
  - { offsetInCU: 0x15B3F, offset: 0x2ACAE, size: 0x8, addend: 0x0, symName: __ZNSt3__119__constexpr_memmoveB8ue170006IddLi0EEEPT_S2_PT0_NS_15__element_countE, symObjAddr: 0x86FC, symBinAddr: 0x100011474, symSize: 0x64 }
  - { offsetInCU: 0x15BAC, offset: 0x2AD1B, size: 0x8, addend: 0x0, symName: __ZNSt3__19make_pairB8ue170006IRPdS1_EENS_4pairINS_18__unwrap_ref_decayIT_E4typeENS4_IT0_E4typeEEEOS5_OS8_, symObjAddr: 0x8760, symBinAddr: 0x1000114D8, symSize: 0x38 }
  - { offsetInCU: 0x15BFB, offset: 0x2AD6A, size: 0x8, addend: 0x0, symName: __ZNSt3__1neB8ue170006ERKNS_15__tree_iteratorINS_6vectorIdNS_9allocatorIdEEEEPNS_11__tree_nodeIS4_PvEElEESB_, symObjAddr: 0x9580, symBinAddr: 0x1000117A4, symSize: 0x34 }
  - { offsetInCU: 0x15C6C, offset: 0x2ADDB, size: 0x8, addend: 0x0, symName: __ZNSt3__1eqB8ue170006ERKNS_15__tree_iteratorINS_6vectorIdNS_9allocatorIdEEEEPNS_11__tree_nodeIS4_PvEElEESB_, symObjAddr: 0x9770, symBinAddr: 0x100011994, symSize: 0x30 }
  - { offsetInCU: 0x15CA9, offset: 0x2AE18, size: 0x8, addend: 0x0, symName: __ZNSt3__1ltB8ue170006IdNS_9allocatorIdEEEEbRKNS_6vectorIT_T0_EES8_, symObjAddr: 0x97D8, symBinAddr: 0x1000119FC, symSize: 0x68 }
  - { offsetInCU: 0x15CF9, offset: 0x2AE68, size: 0x8, addend: 0x0, symName: __ZNSt3__123lexicographical_compareB8ue170006INS_11__wrap_iterIPKdEES4_EEbT_S5_T0_S6_, symObjAddr: 0x9840, symBinAddr: 0x100011A64, symSize: 0x60 }
  - { offsetInCU: 0x15D61, offset: 0x2AED0, size: 0x8, addend: 0x0, symName: __ZNSt3__123lexicographical_compareB8ue170006INS_11__wrap_iterIPKdEES4_NS_6__lessIvvEEEEbT_S7_T0_S8_T1_, symObjAddr: 0x9900, symBinAddr: 0x100011B24, symSize: 0x64 }
  - { offsetInCU: 0x15DE0, offset: 0x2AF4F, size: 0x8, addend: 0x0, symName: __ZNSt3__125__lexicographical_compareB8ue170006IRNS_6__lessIvvEENS_11__wrap_iterIPKdEES7_EEbT0_S8_T1_S9_T_, symObjAddr: 0x9964, symBinAddr: 0x100011B88, symSize: 0x11C }
  - { offsetInCU: 0x15E5F, offset: 0x2AFCE, size: 0x8, addend: 0x0, symName: __ZNSt3__1neB8ue170006IPKdEEbRKNS_11__wrap_iterIT_EES7_, symObjAddr: 0x9A80, symBinAddr: 0x100011CA4, symSize: 0x34 }
  - { offsetInCU: 0x15EA2, offset: 0x2B011, size: 0x8, addend: 0x0, symName: __ZNSt3__1eqB8ue170006IPKdEEbRKNS_11__wrap_iterIT_EES7_, symObjAddr: 0x9AB4, symBinAddr: 0x100011CD8, symSize: 0x48 }
  - { offsetInCU: 0x15F03, offset: 0x2B072, size: 0x8, addend: 0x0, symName: __ZNSt3__127__tree_balance_after_insertB8ue170006IPNS_16__tree_node_baseIPvEEEEvT_S5_, symObjAddr: 0xA698, symBinAddr: 0x1000128BC, symSize: 0x32C }
  - { offsetInCU: 0x15F7E, offset: 0x2B0ED, size: 0x8, addend: 0x0, symName: __ZNSt3__120__tree_is_left_childB8ue170006IPNS_16__tree_node_baseIPvEEEEbT_, symObjAddr: 0xAA04, symBinAddr: 0x100012C28, symSize: 0x2C }
  - { offsetInCU: 0x15FB4, offset: 0x2B123, size: 0x8, addend: 0x0, symName: __ZNSt3__118__tree_left_rotateB8ue170006IPNS_16__tree_node_baseIPvEEEEvT_, symObjAddr: 0xAA30, symBinAddr: 0x100012C54, symSize: 0xD8 }
  - { offsetInCU: 0x15FF6, offset: 0x2B165, size: 0x8, addend: 0x0, symName: __ZNSt3__119__tree_right_rotateB8ue170006IPNS_16__tree_node_baseIPvEEEEvT_, symObjAddr: 0xAB08, symBinAddr: 0x100012D2C, symSize: 0xCC }
  - { offsetInCU: 0x16037, offset: 0x2B1A6, size: 0x8, addend: 0x0, symName: __ZNSt3__112__to_addressB8ue170006IN5dgrad6TensorEEEPT_S4_, symObjAddr: 0xB1C8, symBinAddr: 0x1000133EC, symSize: 0x14 }
  - { offsetInCU: 0x1606D, offset: 0x2B1DC, size: 0x8, addend: 0x0, symName: __ZNSt3__13maxB8ue170006ImEERKT_S3_S3_, symObjAddr: 0xB5F4, symBinAddr: 0x100013818, symSize: 0x2C }
  - { offsetInCU: 0x160B0, offset: 0x2B21F, size: 0x8, addend: 0x0, symName: __ZNSt3__13maxB8ue170006ImNS_6__lessIvvEEEERKT_S5_S5_T0_, symObjAddr: 0xB724, symBinAddr: 0x100013948, symSize: 0x54 }
  - { offsetInCU: 0x1610A, offset: 0x2B279, size: 0x8, addend: 0x0, symName: __ZNSt3__119__allocate_at_leastB8ue170006INS_9allocatorIN5dgrad6TensorEEEEENS_19__allocation_resultINS_16allocator_traitsIT_E7pointerEEERS7_m, symObjAddr: 0xB894, symBinAddr: 0x100013AB8, symSize: 0x40 }
  - { offsetInCU: 0x1614C, offset: 0x2B2BB, size: 0x8, addend: 0x0, symName: __ZNSt3__142__uninitialized_allocator_move_if_noexceptB8ue170006INS_9allocatorIN5dgrad6TensorEEENS_16reverse_iteratorIPS3_EES7_S7_EET2_RT_T0_T1_S8_, symObjAddr: 0xBB3C, symBinAddr: 0x100013D60, symSize: 0x12C }
  - { offsetInCU: 0x161EC, offset: 0x2B35B, size: 0x8, addend: 0x0, symName: __ZNSt3__14swapB8ue170006IPN5dgrad6TensorEEENS_9enable_ifIXaasr21is_move_constructibleIT_EE5valuesr18is_move_assignableIS5_EE5valueEvE4typeERS5_S8_, symObjAddr: 0xBCB4, symBinAddr: 0x100013ED8, symSize: 0x3C }
  - { offsetInCU: 0x1623E, offset: 0x2B3AD, size: 0x8, addend: 0x0, symName: __ZNSt3__122__make_exception_guardB8ue170006INS_29_AllocatorDestroyRangeReverseINS_9allocatorIN5dgrad6TensorEEENS_16reverse_iteratorIPS4_EEEEEENS_28__exception_guard_exceptionsIT_EESB_, symObjAddr: 0xBE00, symBinAddr: 0x100014024, symSize: 0x4C }
  - { offsetInCU: 0x16274, offset: 0x2B3E3, size: 0x8, addend: 0x0, symName: __ZNSt3__1neB8ue170006IPN5dgrad6TensorES3_EEbRKNS_16reverse_iteratorIT_EERKNS4_IT0_EE, symObjAddr: 0xBE90, symBinAddr: 0x1000140B4, symSize: 0x48 }
  - { offsetInCU: 0x162C0, offset: 0x2B42F, size: 0x8, addend: 0x0, symName: __ZNSt3__112__to_addressB8ue170006INS_16reverse_iteratorIPN5dgrad6TensorEEEvEEu7__decayIDTclsr19__to_address_helperIT_EE6__callclsr3stdE7declvalIRKS6_EEEEES8_, symObjAddr: 0xBF0C, symBinAddr: 0x100014130, symSize: 0x24 }
  - { offsetInCU: 0x16320, offset: 0x2B48F, size: 0x8, addend: 0x0, symName: __ZNSt3__119__allocator_destroyB8ue170006INS_9allocatorIN5dgrad6TensorEEENS_16reverse_iteratorINS5_IPS3_EEEES8_EEvRT_T0_T1_, symObjAddr: 0xC600, symBinAddr: 0x100014824, symSize: 0x70 }
  - { offsetInCU: 0x16385, offset: 0x2B4F4, size: 0x8, addend: 0x0, symName: __ZNSt3__1neB8ue170006INS_16reverse_iteratorIPN5dgrad6TensorEEES5_EEbRKNS1_IT_EERKNS1_IT0_EE, symObjAddr: 0xC6AC, symBinAddr: 0x1000148D0, symSize: 0x60 }
  - { offsetInCU: 0x163D1, offset: 0x2B540, size: 0x8, addend: 0x0, symName: __ZNSt3__112__to_addressB8ue170006INS_16reverse_iteratorINS1_IPN5dgrad6TensorEEEEEvEEu7__decayIDTclsr19__to_address_helperIT_EE6__callclsr3stdE7declvalIRKS7_EEEEES9_, symObjAddr: 0xC738, symBinAddr: 0x10001495C, symSize: 0x24 }
  - { offsetInCU: 0x16430, offset: 0x2B59F, size: 0x8, addend: 0x0, symName: __ZNSt3__142__uninitialized_allocator_move_if_noexceptB8ue170006INS_9allocatorIPN5dgrad6TensorEEENS_16reverse_iteratorIPS4_EES8_S4_vEET1_RT_T0_SC_S9_, symObjAddr: 0xD164, symBinAddr: 0x100015388, symSize: 0x78 }
  - { offsetInCU: 0x164AD, offset: 0x2B61C, size: 0x8, addend: 0x0, symName: __ZNSt3__14swapB8ue170006IPPN5dgrad6TensorEEENS_9enable_ifIXaasr21is_move_constructibleIT_EE5valuesr18is_move_assignableIS6_EE5valueEvE4typeERS6_S9_, symObjAddr: 0xD228, symBinAddr: 0x10001544C, symSize: 0x3C }
  - { offsetInCU: 0x164FF, offset: 0x2B66E, size: 0x8, addend: 0x0, symName: __ZNSt3__14moveB8ue170006INS_16reverse_iteratorIPPN5dgrad6TensorEEES6_EET0_T_S8_S7_, symObjAddr: 0xD264, symBinAddr: 0x100015488, symSize: 0x78 }
  - { offsetInCU: 0x16559, offset: 0x2B6C8, size: 0x8, addend: 0x0, symName: __ZNSt3__16__moveB8ue170006INS_17_ClassicAlgPolicyENS_16reverse_iteratorIPPN5dgrad6TensorEEES7_S7_EENS_4pairIT0_T2_EES9_T1_SA_, symObjAddr: 0xD2DC, symBinAddr: 0x100015500, symSize: 0x64 }
  - { offsetInCU: 0x165C5, offset: 0x2B734, size: 0x8, addend: 0x0, symName: __ZNSt3__123__dispatch_copy_or_moveB8ue170006INS_17_ClassicAlgPolicyENS_11__move_loopIS1_EENS_14__move_trivialENS_16reverse_iteratorIPPN5dgrad6TensorEEESA_SA_EENS_4pairIT2_T4_EESC_T3_SD_, symObjAddr: 0xD340, symBinAddr: 0x100015564, symSize: 0x64 }
  - { offsetInCU: 0x16643, offset: 0x2B7B2, size: 0x8, addend: 0x0, symName: __ZNSt3__121__unwrap_and_dispatchB8ue170006INS_10__overloadINS_11__move_loopINS_17_ClassicAlgPolicyEEENS_14__move_trivialEEENS_16reverse_iteratorIPPN5dgrad6TensorEEESC_SC_Li0EEENS_4pairIT0_T2_EESE_T1_SF_, symObjAddr: 0xD3A4, symBinAddr: 0x1000155C8, symSize: 0x12C }
  - { offsetInCU: 0x166D3, offset: 0x2B842, size: 0x8, addend: 0x0, symName: __ZNSt3__114__unwrap_rangeB8ue170006INS_16reverse_iteratorIPPN5dgrad6TensorEEES6_EENS_4pairIT0_S8_EET_SA_, symObjAddr: 0xD4D0, symBinAddr: 0x1000156F4, symSize: 0x84 }
  - { offsetInCU: 0x16845, offset: 0x2B9B4, size: 0x8, addend: 0x0, symName: __ZNSt3__113__unwrap_iterB8ue170006INS_16reverse_iteratorIPPN5dgrad6TensorEEENS_18__unwrap_iter_implIS6_Lb0EEELi0EEEDTclsrT0_8__unwrapclsr3stdE7declvalIT_EEEESA_, symObjAddr: 0xD5F4, symBinAddr: 0x100015818, symSize: 0x44 }
  - { offsetInCU: 0x16888, offset: 0x2B9F7, size: 0x8, addend: 0x0, symName: __ZNSt3__19make_pairB8ue170006INS_16reverse_iteratorIPPN5dgrad6TensorEEES6_EENS_4pairINS_18__unwrap_ref_decayIT_E4typeENS8_IT0_E4typeEEEOS9_OSC_, symObjAddr: 0xD638, symBinAddr: 0x10001585C, symSize: 0x38 }
  - { offsetInCU: 0x168D8, offset: 0x2BA47, size: 0x8, addend: 0x0, symName: __ZNSt3__114__rewrap_rangeB8ue170006INS_16reverse_iteratorIPPN5dgrad6TensorEEES6_EET_S7_T0_, symObjAddr: 0xD670, symBinAddr: 0x100015894, symSize: 0x5C }
  - { offsetInCU: 0x16924, offset: 0x2BA93, size: 0x8, addend: 0x0, symName: __ZNSt3__113__rewrap_iterB8ue170006INS_16reverse_iteratorIPPN5dgrad6TensorEEES6_NS_18__unwrap_iter_implIS6_Lb0EEEEET_S9_T0_, symObjAddr: 0xD6CC, symBinAddr: 0x1000158F0, symSize: 0x74 }
  - { offsetInCU: 0x16979, offset: 0x2BAE8, size: 0x8, addend: 0x0, symName: __ZNSt3__1neB8ue170006IPPN5dgrad6TensorES4_EEbRKNS_16reverse_iteratorIT_EERKNS5_IT0_EE, symObjAddr: 0xD740, symBinAddr: 0x100015964, symSize: 0x48 }
  - { offsetInCU: 0x17115, offset: 0x2C284, size: 0x8, addend: 0x0, symName: '__ZNSt3__116forward_as_tupleB8ue170006IJZN5dgrad3addEPNS1_6TensorES3_E3$_0EEENS_5tupleIJDpOT_EEES8_', symObjAddr: 0xE524, symBinAddr: 0x100016748, symSize: 0x2C }
  - { offsetInCU: 0x1714F, offset: 0x2C2BE, size: 0x8, addend: 0x0, symName: '__ZNSt3__116forward_as_tupleB8ue170006IJNS_9allocatorIZN5dgrad3addEPNS2_6TensorES4_E3$_0EEEEENS_5tupleIJDpOT_EEESA_', symObjAddr: 0xE550, symBinAddr: 0x100016774, symSize: 0x2C }
  - { offsetInCU: 0x171B3, offset: 0x2C322, size: 0x8, addend: 0x0, symName: '__ZNSt3__13getB8ue170006ILm0EJOZN5dgrad3addEPNS1_6TensorES3_E3$_0EEERNS_13tuple_elementIXT_ENS_5tupleIJDpT0_EEEE4typeERSA_', symObjAddr: 0xE870, symBinAddr: 0x100016A94, symSize: 0x24 }
  - { offsetInCU: 0x171F7, offset: 0x2C366, size: 0x8, addend: 0x0, symName: '__ZNSt3__13getB8ue170006ILm0EJONS_9allocatorIZN5dgrad3addEPNS2_6TensorES4_E3$_0EEEEERNS_13tuple_elementIXT_ENS_5tupleIJDpT0_EEEE4typeERSC_', symObjAddr: 0xE8AC, symBinAddr: 0x100016AD0, symSize: 0x24 }
  - { offsetInCU: 0x173D5, offset: 0x2C544, size: 0x8, addend: 0x0, symName: '__ZNSt3__116forward_as_tupleB8ue170006IJRKZN5dgrad3addEPNS1_6TensorES3_E3$_0EEENS_5tupleIJDpOT_EEESA_', symObjAddr: 0xECA8, symBinAddr: 0x100016ECC, symSize: 0x2C }
  - { offsetInCU: 0x17424, offset: 0x2C593, size: 0x8, addend: 0x0, symName: '__ZNSt3__13getB8ue170006ILm0EJRKZN5dgrad3addEPNS1_6TensorES3_E3$_0EEERNS_13tuple_elementIXT_ENS_5tupleIJDpT0_EEEE4typeERSB_', symObjAddr: 0xEEA0, symBinAddr: 0x1000170C4, symSize: 0x24 }
  - { offsetInCU: 0x17468, offset: 0x2C5D7, size: 0x8, addend: 0x0, symName: '__ZNSt3__116forward_as_tupleB8ue170006IJRKNS_9allocatorIZN5dgrad3addEPNS2_6TensorES4_E3$_0EEEEENS_5tupleIJDpOT_EEESC_', symObjAddr: 0xF1FC, symBinAddr: 0x100017420, symSize: 0x2C }
  - { offsetInCU: 0x174B7, offset: 0x2C626, size: 0x8, addend: 0x0, symName: '__ZNSt3__13getB8ue170006ILm0EJRKNS_9allocatorIZN5dgrad3addEPNS2_6TensorES4_E3$_0EEEEERNS_13tuple_elementIXT_ENS_5tupleIJDpT0_EEEE4typeERSD_', symObjAddr: 0xF3E0, symBinAddr: 0x100017604, symSize: 0x24 }
  - { offsetInCU: 0x174FB, offset: 0x2C66A, size: 0x8, addend: 0x0, symName: '__ZNSt3__18__invokeB8ue170006IRZN5dgrad3addEPNS1_6TensorES3_E3$_0JEEEDTclclsr3stdE7declvalIT_EEspclsr3stdE7declvalIT0_EEEEOS6_DpOS7_', symObjAddr: 0xF49C, symBinAddr: 0x1000176C0, symSize: 0x24 }
  - { offsetInCU: 0x17533, offset: 0x2C6A2, size: 0x8, addend: 0x0, symName: __ZNSt3__14swapB8ue170006IPNS_10__function6__baseIFvvEEEEENS_9enable_ifIXaasr21is_move_constructibleIT_EE5valuesr18is_move_assignableIS7_EE5valueEvE4typeERS7_SA_, symObjAddr: 0xF90C, symBinAddr: 0x100017B30, symSize: 0x3C }
  - { offsetInCU: 0x17BF0, offset: 0x2CD5F, size: 0x8, addend: 0x0, symName: '__ZNSt3__116forward_as_tupleB8ue170006IJZN5dgrad4subsEPNS1_6TensorES3_E3$_1EEENS_5tupleIJDpOT_EEES8_', symObjAddr: 0x10370, symBinAddr: 0x100018594, symSize: 0x2C }
  - { offsetInCU: 0x17C2A, offset: 0x2CD99, size: 0x8, addend: 0x0, symName: '__ZNSt3__116forward_as_tupleB8ue170006IJNS_9allocatorIZN5dgrad4subsEPNS2_6TensorES4_E3$_1EEEEENS_5tupleIJDpOT_EEESA_', symObjAddr: 0x1039C, symBinAddr: 0x1000185C0, symSize: 0x2C }
  - { offsetInCU: 0x17C8E, offset: 0x2CDFD, size: 0x8, addend: 0x0, symName: '__ZNSt3__13getB8ue170006ILm0EJOZN5dgrad4subsEPNS1_6TensorES3_E3$_1EEERNS_13tuple_elementIXT_ENS_5tupleIJDpT0_EEEE4typeERSA_', symObjAddr: 0x106BC, symBinAddr: 0x1000188E0, symSize: 0x24 }
  - { offsetInCU: 0x17CD2, offset: 0x2CE41, size: 0x8, addend: 0x0, symName: '__ZNSt3__13getB8ue170006ILm0EJONS_9allocatorIZN5dgrad4subsEPNS2_6TensorES4_E3$_1EEEEERNS_13tuple_elementIXT_ENS_5tupleIJDpT0_EEEE4typeERSC_', symObjAddr: 0x106F8, symBinAddr: 0x10001891C, symSize: 0x24 }
  - { offsetInCU: 0x17EB0, offset: 0x2D01F, size: 0x8, addend: 0x0, symName: '__ZNSt3__116forward_as_tupleB8ue170006IJRKZN5dgrad4subsEPNS1_6TensorES3_E3$_1EEENS_5tupleIJDpOT_EEESA_', symObjAddr: 0x10AF4, symBinAddr: 0x100018D18, symSize: 0x2C }
  - { offsetInCU: 0x17EFF, offset: 0x2D06E, size: 0x8, addend: 0x0, symName: '__ZNSt3__13getB8ue170006ILm0EJRKZN5dgrad4subsEPNS1_6TensorES3_E3$_1EEERNS_13tuple_elementIXT_ENS_5tupleIJDpT0_EEEE4typeERSB_', symObjAddr: 0x10CEC, symBinAddr: 0x100018F10, symSize: 0x24 }
  - { offsetInCU: 0x17F43, offset: 0x2D0B2, size: 0x8, addend: 0x0, symName: '__ZNSt3__116forward_as_tupleB8ue170006IJRKNS_9allocatorIZN5dgrad4subsEPNS2_6TensorES4_E3$_1EEEEENS_5tupleIJDpOT_EEESC_', symObjAddr: 0x11048, symBinAddr: 0x10001926C, symSize: 0x2C }
  - { offsetInCU: 0x17F92, offset: 0x2D101, size: 0x8, addend: 0x0, symName: '__ZNSt3__13getB8ue170006ILm0EJRKNS_9allocatorIZN5dgrad4subsEPNS2_6TensorES4_E3$_1EEEEERNS_13tuple_elementIXT_ENS_5tupleIJDpT0_EEEE4typeERSD_', symObjAddr: 0x1122C, symBinAddr: 0x100019450, symSize: 0x24 }
  - { offsetInCU: 0x17FD6, offset: 0x2D145, size: 0x8, addend: 0x0, symName: '__ZNSt3__18__invokeB8ue170006IRZN5dgrad4subsEPNS1_6TensorES3_E3$_1JEEEDTclclsr3stdE7declvalIT_EEspclsr3stdE7declvalIT0_EEEEOS6_DpOS7_', symObjAddr: 0x112E8, symBinAddr: 0x10001950C, symSize: 0x24 }
  - { offsetInCU: 0x1867A, offset: 0x2D7E9, size: 0x8, addend: 0x0, symName: '__ZNSt3__116forward_as_tupleB8ue170006IJZN5dgrad4multEPNS1_6TensorES3_E3$_2EEENS_5tupleIJDpOT_EEES8_', symObjAddr: 0x11ED4, symBinAddr: 0x10001A0F8, symSize: 0x2C }
  - { offsetInCU: 0x186B4, offset: 0x2D823, size: 0x8, addend: 0x0, symName: '__ZNSt3__116forward_as_tupleB8ue170006IJNS_9allocatorIZN5dgrad4multEPNS2_6TensorES4_E3$_2EEEEENS_5tupleIJDpOT_EEESA_', symObjAddr: 0x11F00, symBinAddr: 0x10001A124, symSize: 0x2C }
  - { offsetInCU: 0x18718, offset: 0x2D887, size: 0x8, addend: 0x0, symName: '__ZNSt3__13getB8ue170006ILm0EJOZN5dgrad4multEPNS1_6TensorES3_E3$_2EEERNS_13tuple_elementIXT_ENS_5tupleIJDpT0_EEEE4typeERSA_', symObjAddr: 0x12220, symBinAddr: 0x10001A444, symSize: 0x24 }
  - { offsetInCU: 0x1875C, offset: 0x2D8CB, size: 0x8, addend: 0x0, symName: '__ZNSt3__13getB8ue170006ILm0EJONS_9allocatorIZN5dgrad4multEPNS2_6TensorES4_E3$_2EEEEERNS_13tuple_elementIXT_ENS_5tupleIJDpT0_EEEE4typeERSC_', symObjAddr: 0x1225C, symBinAddr: 0x10001A480, symSize: 0x24 }
  - { offsetInCU: 0x1893A, offset: 0x2DAA9, size: 0x8, addend: 0x0, symName: '__ZNSt3__116forward_as_tupleB8ue170006IJRKZN5dgrad4multEPNS1_6TensorES3_E3$_2EEENS_5tupleIJDpOT_EEESA_', symObjAddr: 0x12658, symBinAddr: 0x10001A87C, symSize: 0x2C }
  - { offsetInCU: 0x18989, offset: 0x2DAF8, size: 0x8, addend: 0x0, symName: '__ZNSt3__13getB8ue170006ILm0EJRKZN5dgrad4multEPNS1_6TensorES3_E3$_2EEERNS_13tuple_elementIXT_ENS_5tupleIJDpT0_EEEE4typeERSB_', symObjAddr: 0x12850, symBinAddr: 0x10001AA74, symSize: 0x24 }
  - { offsetInCU: 0x189CD, offset: 0x2DB3C, size: 0x8, addend: 0x0, symName: '__ZNSt3__116forward_as_tupleB8ue170006IJRKNS_9allocatorIZN5dgrad4multEPNS2_6TensorES4_E3$_2EEEEENS_5tupleIJDpOT_EEESC_', symObjAddr: 0x12BAC, symBinAddr: 0x10001ADD0, symSize: 0x2C }
  - { offsetInCU: 0x18A1C, offset: 0x2DB8B, size: 0x8, addend: 0x0, symName: '__ZNSt3__13getB8ue170006ILm0EJRKNS_9allocatorIZN5dgrad4multEPNS2_6TensorES4_E3$_2EEEEERNS_13tuple_elementIXT_ENS_5tupleIJDpT0_EEEE4typeERSD_', symObjAddr: 0x12D90, symBinAddr: 0x10001AFB4, symSize: 0x24 }
  - { offsetInCU: 0x18A60, offset: 0x2DBCF, size: 0x8, addend: 0x0, symName: '__ZNSt3__18__invokeB8ue170006IRZN5dgrad4multEPNS1_6TensorES3_E3$_2JEEEDTclclsr3stdE7declvalIT_EEspclsr3stdE7declvalIT0_EEEEOS6_DpOS7_', symObjAddr: 0x12E4C, symBinAddr: 0x10001B070, symSize: 0x24 }
  - { offsetInCU: 0x19104, offset: 0x2E273, size: 0x8, addend: 0x0, symName: '__ZNSt3__116forward_as_tupleB8ue170006IJZN5dgrad3divEPNS1_6TensorES3_E3$_3EEENS_5tupleIJDpOT_EEES8_', symObjAddr: 0x13A70, symBinAddr: 0x10001BC94, symSize: 0x2C }
  - { offsetInCU: 0x1913E, offset: 0x2E2AD, size: 0x8, addend: 0x0, symName: '__ZNSt3__116forward_as_tupleB8ue170006IJNS_9allocatorIZN5dgrad3divEPNS2_6TensorES4_E3$_3EEEEENS_5tupleIJDpOT_EEESA_', symObjAddr: 0x13A9C, symBinAddr: 0x10001BCC0, symSize: 0x2C }
  - { offsetInCU: 0x191A2, offset: 0x2E311, size: 0x8, addend: 0x0, symName: '__ZNSt3__13getB8ue170006ILm0EJOZN5dgrad3divEPNS1_6TensorES3_E3$_3EEERNS_13tuple_elementIXT_ENS_5tupleIJDpT0_EEEE4typeERSA_', symObjAddr: 0x13DBC, symBinAddr: 0x10001BFE0, symSize: 0x24 }
  - { offsetInCU: 0x191E6, offset: 0x2E355, size: 0x8, addend: 0x0, symName: '__ZNSt3__13getB8ue170006ILm0EJONS_9allocatorIZN5dgrad3divEPNS2_6TensorES4_E3$_3EEEEERNS_13tuple_elementIXT_ENS_5tupleIJDpT0_EEEE4typeERSC_', symObjAddr: 0x13DF8, symBinAddr: 0x10001C01C, symSize: 0x24 }
  - { offsetInCU: 0x193C4, offset: 0x2E533, size: 0x8, addend: 0x0, symName: '__ZNSt3__116forward_as_tupleB8ue170006IJRKZN5dgrad3divEPNS1_6TensorES3_E3$_3EEENS_5tupleIJDpOT_EEESA_', symObjAddr: 0x141F4, symBinAddr: 0x10001C418, symSize: 0x2C }
  - { offsetInCU: 0x19413, offset: 0x2E582, size: 0x8, addend: 0x0, symName: '__ZNSt3__13getB8ue170006ILm0EJRKZN5dgrad3divEPNS1_6TensorES3_E3$_3EEERNS_13tuple_elementIXT_ENS_5tupleIJDpT0_EEEE4typeERSB_', symObjAddr: 0x143EC, symBinAddr: 0x10001C610, symSize: 0x24 }
  - { offsetInCU: 0x19457, offset: 0x2E5C6, size: 0x8, addend: 0x0, symName: '__ZNSt3__116forward_as_tupleB8ue170006IJRKNS_9allocatorIZN5dgrad3divEPNS2_6TensorES4_E3$_3EEEEENS_5tupleIJDpOT_EEESC_', symObjAddr: 0x14748, symBinAddr: 0x10001C96C, symSize: 0x2C }
  - { offsetInCU: 0x194A6, offset: 0x2E615, size: 0x8, addend: 0x0, symName: '__ZNSt3__13getB8ue170006ILm0EJRKNS_9allocatorIZN5dgrad3divEPNS2_6TensorES4_E3$_3EEEEERNS_13tuple_elementIXT_ENS_5tupleIJDpT0_EEEE4typeERSD_', symObjAddr: 0x1492C, symBinAddr: 0x10001CB50, symSize: 0x24 }
  - { offsetInCU: 0x194EA, offset: 0x2E659, size: 0x8, addend: 0x0, symName: '__ZNSt3__18__invokeB8ue170006IRZN5dgrad3divEPNS1_6TensorES3_E3$_3JEEEDTclclsr3stdE7declvalIT_EEspclsr3stdE7declvalIT0_EEEEOS6_DpOS7_', symObjAddr: 0x149E8, symBinAddr: 0x10001CC0C, symSize: 0x24 }
  - { offsetInCU: 0x19B8E, offset: 0x2ECFD, size: 0x8, addend: 0x0, symName: '__ZNSt3__116forward_as_tupleB8ue170006IJZN5dgrad3dotEPNS1_6TensorES3_E3$_4EEENS_5tupleIJDpOT_EEES8_', symObjAddr: 0x1565C, symBinAddr: 0x10001D880, symSize: 0x2C }
  - { offsetInCU: 0x19BC8, offset: 0x2ED37, size: 0x8, addend: 0x0, symName: '__ZNSt3__116forward_as_tupleB8ue170006IJNS_9allocatorIZN5dgrad3dotEPNS2_6TensorES4_E3$_4EEEEENS_5tupleIJDpOT_EEESA_', symObjAddr: 0x15688, symBinAddr: 0x10001D8AC, symSize: 0x2C }
  - { offsetInCU: 0x19C2C, offset: 0x2ED9B, size: 0x8, addend: 0x0, symName: '__ZNSt3__13getB8ue170006ILm0EJOZN5dgrad3dotEPNS1_6TensorES3_E3$_4EEERNS_13tuple_elementIXT_ENS_5tupleIJDpT0_EEEE4typeERSA_', symObjAddr: 0x159A8, symBinAddr: 0x10001DBCC, symSize: 0x24 }
  - { offsetInCU: 0x19C70, offset: 0x2EDDF, size: 0x8, addend: 0x0, symName: '__ZNSt3__13getB8ue170006ILm0EJONS_9allocatorIZN5dgrad3dotEPNS2_6TensorES4_E3$_4EEEEERNS_13tuple_elementIXT_ENS_5tupleIJDpT0_EEEE4typeERSC_', symObjAddr: 0x159E4, symBinAddr: 0x10001DC08, symSize: 0x24 }
  - { offsetInCU: 0x19E4E, offset: 0x2EFBD, size: 0x8, addend: 0x0, symName: '__ZNSt3__116forward_as_tupleB8ue170006IJRKZN5dgrad3dotEPNS1_6TensorES3_E3$_4EEENS_5tupleIJDpOT_EEESA_', symObjAddr: 0x15DE0, symBinAddr: 0x10001E004, symSize: 0x2C }
  - { offsetInCU: 0x19E9D, offset: 0x2F00C, size: 0x8, addend: 0x0, symName: '__ZNSt3__13getB8ue170006ILm0EJRKZN5dgrad3dotEPNS1_6TensorES3_E3$_4EEERNS_13tuple_elementIXT_ENS_5tupleIJDpT0_EEEE4typeERSB_', symObjAddr: 0x15FD8, symBinAddr: 0x10001E1FC, symSize: 0x24 }
  - { offsetInCU: 0x19EE1, offset: 0x2F050, size: 0x8, addend: 0x0, symName: '__ZNSt3__116forward_as_tupleB8ue170006IJRKNS_9allocatorIZN5dgrad3dotEPNS2_6TensorES4_E3$_4EEEEENS_5tupleIJDpOT_EEESC_', symObjAddr: 0x16334, symBinAddr: 0x10001E558, symSize: 0x2C }
  - { offsetInCU: 0x19F30, offset: 0x2F09F, size: 0x8, addend: 0x0, symName: '__ZNSt3__13getB8ue170006ILm0EJRKNS_9allocatorIZN5dgrad3dotEPNS2_6TensorES4_E3$_4EEEEERNS_13tuple_elementIXT_ENS_5tupleIJDpT0_EEEE4typeERSD_', symObjAddr: 0x16518, symBinAddr: 0x10001E73C, symSize: 0x24 }
  - { offsetInCU: 0x19F74, offset: 0x2F0E3, size: 0x8, addend: 0x0, symName: '__ZNSt3__18__invokeB8ue170006IRZN5dgrad3dotEPNS1_6TensorES3_E3$_4JEEEDTclclsr3stdE7declvalIT_EEspclsr3stdE7declvalIT0_EEEEOS6_DpOS7_', symObjAddr: 0x165D4, symBinAddr: 0x10001E7F8, symSize: 0x24 }
  - { offsetInCU: 0x1A618, offset: 0x2F787, size: 0x8, addend: 0x0, symName: '__ZNSt3__116forward_as_tupleB8ue170006IJZN5dgrad3expEPNS1_6TensorEE3$_5EEENS_5tupleIJDpOT_EEES8_', symObjAddr: 0x17294, symBinAddr: 0x10001F4B8, symSize: 0x2C }
  - { offsetInCU: 0x1A652, offset: 0x2F7C1, size: 0x8, addend: 0x0, symName: '__ZNSt3__116forward_as_tupleB8ue170006IJNS_9allocatorIZN5dgrad3expEPNS2_6TensorEE3$_5EEEEENS_5tupleIJDpOT_EEESA_', symObjAddr: 0x172C0, symBinAddr: 0x10001F4E4, symSize: 0x2C }
  - { offsetInCU: 0x1A6B6, offset: 0x2F825, size: 0x8, addend: 0x0, symName: '__ZNSt3__13getB8ue170006ILm0EJOZN5dgrad3expEPNS1_6TensorEE3$_5EEERNS_13tuple_elementIXT_ENS_5tupleIJDpT0_EEEE4typeERSA_', symObjAddr: 0x1762C, symBinAddr: 0x10001F850, symSize: 0x24 }
  - { offsetInCU: 0x1A6FA, offset: 0x2F869, size: 0x8, addend: 0x0, symName: '__ZNSt3__13getB8ue170006ILm0EJONS_9allocatorIZN5dgrad3expEPNS2_6TensorEE3$_5EEEEERNS_13tuple_elementIXT_ENS_5tupleIJDpT0_EEEE4typeERSC_', symObjAddr: 0x17668, symBinAddr: 0x10001F88C, symSize: 0x24 }
  - { offsetInCU: 0x1A8D8, offset: 0x2FA47, size: 0x8, addend: 0x0, symName: '__ZNSt3__116forward_as_tupleB8ue170006IJRKZN5dgrad3expEPNS1_6TensorEE3$_5EEENS_5tupleIJDpOT_EEESA_', symObjAddr: 0x17B30, symBinAddr: 0x10001FD54, symSize: 0x2C }
  - { offsetInCU: 0x1A927, offset: 0x2FA96, size: 0x8, addend: 0x0, symName: '__ZNSt3__13getB8ue170006ILm0EJRKZN5dgrad3expEPNS1_6TensorEE3$_5EEERNS_13tuple_elementIXT_ENS_5tupleIJDpT0_EEEE4typeERSB_', symObjAddr: 0x17D20, symBinAddr: 0x10001FF44, symSize: 0x24 }
  - { offsetInCU: 0x1A96B, offset: 0x2FADA, size: 0x8, addend: 0x0, symName: '__ZNSt3__116forward_as_tupleB8ue170006IJRKNS_9allocatorIZN5dgrad3expEPNS2_6TensorEE3$_5EEEEENS_5tupleIJDpOT_EEESC_', symObjAddr: 0x18108, symBinAddr: 0x10002032C, symSize: 0x2C }
  - { offsetInCU: 0x1A9BA, offset: 0x2FB29, size: 0x8, addend: 0x0, symName: '__ZNSt3__13getB8ue170006ILm0EJRKNS_9allocatorIZN5dgrad3expEPNS2_6TensorEE3$_5EEEEERNS_13tuple_elementIXT_ENS_5tupleIJDpT0_EEEE4typeERSD_', symObjAddr: 0x18314, symBinAddr: 0x100020538, symSize: 0x24 }
  - { offsetInCU: 0x1A9FE, offset: 0x2FB6D, size: 0x8, addend: 0x0, symName: '__ZNSt3__18__invokeB8ue170006IRZN5dgrad3expEPNS1_6TensorEE3$_5JEEEDTclclsr3stdE7declvalIT_EEspclsr3stdE7declvalIT0_EEEEOS6_DpOS7_', symObjAddr: 0x183E4, symBinAddr: 0x100020608, symSize: 0x24 }
  - { offsetInCU: 0x1B0A2, offset: 0x30211, size: 0x8, addend: 0x0, symName: '__ZNSt3__116forward_as_tupleB8ue170006IJZN5dgrad4tanhEPNS1_6TensorEE3$_6EEENS_5tupleIJDpOT_EEES8_', symObjAddr: 0x19064, symBinAddr: 0x100021264, symSize: 0x2C }
  - { offsetInCU: 0x1B0DC, offset: 0x3024B, size: 0x8, addend: 0x0, symName: '__ZNSt3__116forward_as_tupleB8ue170006IJNS_9allocatorIZN5dgrad4tanhEPNS2_6TensorEE3$_6EEEEENS_5tupleIJDpOT_EEESA_', symObjAddr: 0x19090, symBinAddr: 0x100021290, symSize: 0x2C }
  - { offsetInCU: 0x1B140, offset: 0x302AF, size: 0x8, addend: 0x0, symName: '__ZNSt3__13getB8ue170006ILm0EJOZN5dgrad4tanhEPNS1_6TensorEE3$_6EEERNS_13tuple_elementIXT_ENS_5tupleIJDpT0_EEEE4typeERSA_', symObjAddr: 0x193FC, symBinAddr: 0x1000215FC, symSize: 0x24 }
  - { offsetInCU: 0x1B184, offset: 0x302F3, size: 0x8, addend: 0x0, symName: '__ZNSt3__13getB8ue170006ILm0EJONS_9allocatorIZN5dgrad4tanhEPNS2_6TensorEE3$_6EEEEERNS_13tuple_elementIXT_ENS_5tupleIJDpT0_EEEE4typeERSC_', symObjAddr: 0x19438, symBinAddr: 0x100021638, symSize: 0x24 }
  - { offsetInCU: 0x1B362, offset: 0x304D1, size: 0x8, addend: 0x0, symName: '__ZNSt3__116forward_as_tupleB8ue170006IJRKZN5dgrad4tanhEPNS1_6TensorEE3$_6EEENS_5tupleIJDpOT_EEESA_', symObjAddr: 0x19900, symBinAddr: 0x100021B00, symSize: 0x2C }
  - { offsetInCU: 0x1B3B1, offset: 0x30520, size: 0x8, addend: 0x0, symName: '__ZNSt3__13getB8ue170006ILm0EJRKZN5dgrad4tanhEPNS1_6TensorEE3$_6EEERNS_13tuple_elementIXT_ENS_5tupleIJDpT0_EEEE4typeERSB_', symObjAddr: 0x19AF0, symBinAddr: 0x100021CF0, symSize: 0x24 }
  - { offsetInCU: 0x1B3F5, offset: 0x30564, size: 0x8, addend: 0x0, symName: '__ZNSt3__116forward_as_tupleB8ue170006IJRKNS_9allocatorIZN5dgrad4tanhEPNS2_6TensorEE3$_6EEEEENS_5tupleIJDpOT_EEESC_', symObjAddr: 0x19ED8, symBinAddr: 0x1000220D8, symSize: 0x2C }
  - { offsetInCU: 0x1B444, offset: 0x305B3, size: 0x8, addend: 0x0, symName: '__ZNSt3__13getB8ue170006ILm0EJRKNS_9allocatorIZN5dgrad4tanhEPNS2_6TensorEE3$_6EEEEERNS_13tuple_elementIXT_ENS_5tupleIJDpT0_EEEE4typeERSD_', symObjAddr: 0x1A0E4, symBinAddr: 0x1000222E4, symSize: 0x24 }
  - { offsetInCU: 0x1B488, offset: 0x305F7, size: 0x8, addend: 0x0, symName: '__ZNSt3__18__invokeB8ue170006IRZN5dgrad4tanhEPNS1_6TensorEE3$_6JEEEDTclclsr3stdE7declvalIT_EEspclsr3stdE7declvalIT0_EEEEOS6_DpOS7_', symObjAddr: 0x1A1B4, symBinAddr: 0x1000223B4, symSize: 0x24 }
  - { offsetInCU: 0x1B62E, offset: 0x3079D, size: 0x8, addend: 0x0, symName: '__ZNSt3__116forward_as_tupleB8ue170006IJZN5dgrad4reluEPNS1_6TensorEE3$_7EEENS_5tupleIJDpOT_EEES8_', symObjAddr: 0x1AAA4, symBinAddr: 0x100022CA4, symSize: 0x2C }
  - { offsetInCU: 0x1B668, offset: 0x307D7, size: 0x8, addend: 0x0, symName: '__ZNSt3__116forward_as_tupleB8ue170006IJNS_9allocatorIZN5dgrad4reluEPNS2_6TensorEE3$_7EEEEENS_5tupleIJDpOT_EEESA_', symObjAddr: 0x1AAD0, symBinAddr: 0x100022CD0, symSize: 0x2C }
  - { offsetInCU: 0x1B6CC, offset: 0x3083B, size: 0x8, addend: 0x0, symName: '__ZNSt3__13getB8ue170006ILm0EJOZN5dgrad4reluEPNS1_6TensorEE3$_7EEERNS_13tuple_elementIXT_ENS_5tupleIJDpT0_EEEE4typeERSA_', symObjAddr: 0x1ADE8, symBinAddr: 0x100022FE8, symSize: 0x24 }
  - { offsetInCU: 0x1B710, offset: 0x3087F, size: 0x8, addend: 0x0, symName: '__ZNSt3__13getB8ue170006ILm0EJONS_9allocatorIZN5dgrad4reluEPNS2_6TensorEE3$_7EEEEERNS_13tuple_elementIXT_ENS_5tupleIJDpT0_EEEE4typeERSC_', symObjAddr: 0x1AE24, symBinAddr: 0x100023024, symSize: 0x24 }
  - { offsetInCU: 0x1BC5D, offset: 0x30DCC, size: 0x8, addend: 0x0, symName: '__ZNSt3__116forward_as_tupleB8ue170006IJRKZN5dgrad4reluEPNS1_6TensorEE3$_7EEENS_5tupleIJDpOT_EEESA_', symObjAddr: 0x1B3C0, symBinAddr: 0x1000235C0, symSize: 0x2C }
  - { offsetInCU: 0x1BCAC, offset: 0x30E1B, size: 0x8, addend: 0x0, symName: '__ZNSt3__13getB8ue170006ILm0EJRKZN5dgrad4reluEPNS1_6TensorEE3$_7EEERNS_13tuple_elementIXT_ENS_5tupleIJDpT0_EEEE4typeERSB_', symObjAddr: 0x1B5B0, symBinAddr: 0x1000237B0, symSize: 0x24 }
  - { offsetInCU: 0x1BCF0, offset: 0x30E5F, size: 0x8, addend: 0x0, symName: '__ZNSt3__116forward_as_tupleB8ue170006IJRKNS_9allocatorIZN5dgrad4reluEPNS2_6TensorEE3$_7EEEEENS_5tupleIJDpOT_EEESC_', symObjAddr: 0x1B910, symBinAddr: 0x100023B10, symSize: 0x2C }
  - { offsetInCU: 0x1BD3F, offset: 0x30EAE, size: 0x8, addend: 0x0, symName: '__ZNSt3__13getB8ue170006ILm0EJRKNS_9allocatorIZN5dgrad4reluEPNS2_6TensorEE3$_7EEEEERNS_13tuple_elementIXT_ENS_5tupleIJDpT0_EEEE4typeERSD_', symObjAddr: 0x1BAF4, symBinAddr: 0x100023CF4, symSize: 0x24 }
  - { offsetInCU: 0x1BD83, offset: 0x30EF2, size: 0x8, addend: 0x0, symName: '__ZNSt3__18__invokeB8ue170006IRZN5dgrad4reluEPNS1_6TensorEE3$_7JEEEDTclclsr3stdE7declvalIT_EEspclsr3stdE7declvalIT0_EEEEOS6_DpOS7_', symObjAddr: 0x1BBB0, symBinAddr: 0x100023DB0, symSize: 0x24 }
  - { offsetInCU: 0x1BDBC, offset: 0x30F2B, size: 0x8, addend: 0x0, symName: __ZNSt3__19__reverseB8ue170006INS_17_ClassicAlgPolicyENS_11__wrap_iterIPN5dgrad6TensorEEES6_EEvT0_T1_, symObjAddr: 0x1C45C, symBinAddr: 0x10002465C, symSize: 0x3C }
  - { offsetInCU: 0x1BE0E, offset: 0x30F7D, size: 0x8, addend: 0x0, symName: __ZNSt3__114__reverse_implB8ue170006INS_17_ClassicAlgPolicyENS_11__wrap_iterIPN5dgrad6TensorEEEEEvT0_S7_NS_26random_access_iterator_tagE, symObjAddr: 0x1C498, symBinAddr: 0x100024698, symSize: 0x7C }
  - { offsetInCU: 0x1BE61, offset: 0x30FD0, size: 0x8, addend: 0x0, symName: __ZNSt3__1ltB8ue170006IPN5dgrad6TensorEEEbRKNS_11__wrap_iterIT_EES8_, symObjAddr: 0x1C514, symBinAddr: 0x100024714, symSize: 0x48 }
  - { offsetInCU: 0x1BEA4, offset: 0x31013, size: 0x8, addend: 0x0, symName: __ZNSt3__19iter_swapB8ue170006INS_11__wrap_iterIPN5dgrad6TensorEEES5_EEvT_T0_, symObjAddr: 0x1C5C0, symBinAddr: 0x1000247C0, symSize: 0x50 }
  - { offsetInCU: 0x1BEED, offset: 0x3105C, size: 0x8, addend: 0x0, symName: __ZNSt3__14swapB8ue170006IN5dgrad6TensorEEENS_9enable_ifIXaasr21is_move_constructibleIT_EE5valuesr18is_move_assignableIS4_EE5valueEvE4typeERS4_S7_, symObjAddr: 0x1C610, symBinAddr: 0x100024810, symSize: 0x84 }
  - { offsetInCU: 0x1BF3E, offset: 0x310AD, size: 0x8, addend: 0x0, symName: __ZNSt3__125__throw_bad_function_callB8ue170006Ev, symObjAddr: 0x1CE6C, symBinAddr: 0x10002506C, symSize: 0x38 }
  - { offsetInCU: 0x1C769, offset: 0x318D8, size: 0x8, addend: 0x0, symName: __ZN5dgrad3addEPNS_6TensorES1_, symObjAddr: 0x400, symBinAddr: 0x10000ABD0, symSize: 0x244 }
  - { offsetInCU: 0x1C824, offset: 0x31993, size: 0x8, addend: 0x0, symName: __ZN5dgrad4subsEPNS_6TensorES1_, symObjAddr: 0x884, symBinAddr: 0x10000AF80, symSize: 0x244 }
  - { offsetInCU: 0x1C8DF, offset: 0x31A4E, size: 0x8, addend: 0x0, symName: __ZN5dgrad4multEPNS_6TensorES1_, symObjAddr: 0xB60, symBinAddr: 0x10000B25C, symSize: 0x244 }
  - { offsetInCU: 0x1C99A, offset: 0x31B09, size: 0x8, addend: 0x0, symName: __ZN5dgrad3divEPNS_6TensorES1_, symObjAddr: 0xE3C, symBinAddr: 0x10000B538, symSize: 0x244 }
  - { offsetInCU: 0x1CA55, offset: 0x31BC4, size: 0x8, addend: 0x0, symName: __ZN5dgrad3dotEPNS_6TensorES1_, symObjAddr: 0x1118, symBinAddr: 0x10000B814, symSize: 0x240 }
  - { offsetInCU: 0x1CB10, offset: 0x31C7F, size: 0x8, addend: 0x0, symName: __ZN5dgrad3expEPNS_6TensorE, symObjAddr: 0x13F0, symBinAddr: 0x10000BAEC, symSize: 0x23C }
  - { offsetInCU: 0x1CBF2, offset: 0x31D61, size: 0x8, addend: 0x0, symName: __ZN5dgrad4tanhEPNS_6TensorE, symObjAddr: 0x1720, symBinAddr: 0x10000BE1C, symSize: 0x23C }
  - { offsetInCU: 0x1CCD4, offset: 0x31E43, size: 0x8, addend: 0x0, symName: __ZN5dgrad4reluEPNS_6TensorE, symObjAddr: 0x1A50, symBinAddr: 0x10000C14C, symSize: 0x204 }
  - { offsetInCU: 0x1D049, offset: 0x321B8, size: 0x8, addend: 0x0, symName: __ZN5dgrad6TensorC2ENSt3__16vectorIdNS1_9allocatorIdEEEE, symObjAddr: 0x3D1C, symBinAddr: 0x10000DADC, symSize: 0x124 }
  - { offsetInCU: 0x1D964, offset: 0x32AD3, size: 0x8, addend: 0x0, symName: __ZNSt3__16vectorIN5dgrad6TensorENS_9allocatorIS2_EEE26__swap_out_circular_bufferERNS_14__split_bufferIS2_RS4_EE, symObjAddr: 0xB3FC, symBinAddr: 0x100013620, symSize: 0x110 }
  - { offsetInCU: 0x1D9F8, offset: 0x32B67, size: 0x8, addend: 0x0, symName: __ZNSt3__16vectorIPN5dgrad6TensorENS_9allocatorIS3_EEE26__swap_out_circular_bufferERNS_14__split_bufferIS3_RS5_EE, symObjAddr: 0xCDFC, symBinAddr: 0x100015020, symSize: 0x110 }
  - { offsetInCU: 0x20906, offset: 0x35A75, size: 0x8, addend: 0x0, symName: __Z10build_topoN5dgrad6TensorERNSt3__16vectorIS0_NS1_9allocatorIS0_EEEERNS1_3setINS2_IdNS3_IdEEEENS1_4lessIS9_EENS3_IS9_EEEE, symObjAddr: 0x0, symBinAddr: 0x10000A7FC, symSize: 0x174 }
  - { offsetInCU: 0x20A08, offset: 0x35B77, size: 0x8, addend: 0x0, symName: __ZNSt3__13setINS_6vectorIdNS_9allocatorIdEEEENS_4lessIS4_EENS2_IS4_EEE4findB8ue170006ERKS4_, symObjAddr: 0x1A4, symBinAddr: 0x10000A9A0, symSize: 0x40 }
  - { offsetInCU: 0x20A3D, offset: 0x35BAC, size: 0x8, addend: 0x0, symName: __ZNSt3__13setINS_6vectorIdNS_9allocatorIdEEEENS_4lessIS4_EENS2_IS4_EEE3endB8ue170006Ev, symObjAddr: 0x1E4, symBinAddr: 0x10000A9E0, symSize: 0x38 }
  - { offsetInCU: 0x20A63, offset: 0x35BD2, size: 0x8, addend: 0x0, symName: __ZNSt3__13setINS_6vectorIdNS_9allocatorIdEEEENS_4lessIS4_EENS2_IS4_EEE6insertB8ue170006ERKS4_, symObjAddr: 0x21C, symBinAddr: 0x10000AA18, symSize: 0x4C }
  - { offsetInCU: 0x20A98, offset: 0x35C07, size: 0x8, addend: 0x0, symName: __ZNSt3__16vectorIPN5dgrad6TensorENS_9allocatorIS3_EEE5beginB8ue170006Ev, symObjAddr: 0x268, symBinAddr: 0x10000AA64, symSize: 0x30 }
  - { offsetInCU: 0x20AC0, offset: 0x35C2F, size: 0x8, addend: 0x0, symName: __ZNSt3__16vectorIPN5dgrad6TensorENS_9allocatorIS3_EEE3endB8ue170006Ev, symObjAddr: 0x298, symBinAddr: 0x10000AA94, symSize: 0x30 }
  - { offsetInCU: 0x20AE8, offset: 0x35C57, size: 0x8, addend: 0x0, symName: __ZNKSt3__111__wrap_iterIPPN5dgrad6TensorEEdeB8ue170006Ev, symObjAddr: 0x2FC, symBinAddr: 0x10000AAF8, symSize: 0x18 }
  - { offsetInCU: 0x20B0E, offset: 0x35C7D, size: 0x8, addend: 0x0, symName: __ZN5dgrad6TensorC1ERKS0_, symObjAddr: 0x314, symBinAddr: 0x10000AB10, symSize: 0x34 }
  - { offsetInCU: 0x20B43, offset: 0x35CB2, size: 0x8, addend: 0x0, symName: __ZNSt3__111__wrap_iterIPPN5dgrad6TensorEEppB8ue170006Ev, symObjAddr: 0x374, symBinAddr: 0x10000AB44, symSize: 0x20 }
  - { offsetInCU: 0x20B69, offset: 0x35CD8, size: 0x8, addend: 0x0, symName: __ZNSt3__16vectorIN5dgrad6TensorENS_9allocatorIS2_EEE9push_backB8ue170006ERKS2_, symObjAddr: 0x394, symBinAddr: 0x10000AB64, symSize: 0x6C }
  - { offsetInCU: 0x20BA0, offset: 0x35D0F, size: 0x8, addend: 0x0, symName: __ZNSt3__16vectorIdNS_9allocatorIdEEEC1ERKS3_, symObjAddr: 0x6EC, symBinAddr: 0x10000AE14, symSize: 0x34 }
  - { offsetInCU: 0x20BDB, offset: 0x35D4A, size: 0x8, addend: 0x0, symName: __ZN5dgrad6TensorC1ENSt3__16vectorIdNS1_9allocatorIdEEEE, symObjAddr: 0x720, symBinAddr: 0x10000AE48, symSize: 0x34 }
  - { offsetInCU: 0x20C14, offset: 0x35D83, size: 0x8, addend: 0x0, symName: __ZNSt3__16vectorIPN5dgrad6TensorENS_9allocatorIS3_EEE9push_backB8ue170006ERKS3_, symObjAddr: 0x780, symBinAddr: 0x10000AE7C, symSize: 0x6C }
  - { offsetInCU: 0x20C4B, offset: 0x35DBA, size: 0x8, addend: 0x0, symName: '__ZNSt3__18functionIFvvEEaSIZN5dgrad3addEPNS4_6TensorES6_E3$_0vEERS2_OT_', symObjAddr: 0x7EC, symBinAddr: 0x10000AEE8, symSize: 0x98 }
  - { offsetInCU: 0x20C8C, offset: 0x35DFB, size: 0x8, addend: 0x0, symName: '__ZNSt3__18functionIFvvEEaSIZN5dgrad4subsEPNS4_6TensorES6_E3$_1vEERS2_OT_', symObjAddr: 0xAC8, symBinAddr: 0x10000B1C4, symSize: 0x98 }
  - { offsetInCU: 0x20CCD, offset: 0x35E3C, size: 0x8, addend: 0x0, symName: '__ZNSt3__18functionIFvvEEaSIZN5dgrad4multEPNS4_6TensorES6_E3$_2vEERS2_OT_', symObjAddr: 0xDA4, symBinAddr: 0x10000B4A0, symSize: 0x98 }
  - { offsetInCU: 0x20D0E, offset: 0x35E7D, size: 0x8, addend: 0x0, symName: '__ZNSt3__18functionIFvvEEaSIZN5dgrad3divEPNS4_6TensorES6_E3$_3vEERS2_OT_', symObjAddr: 0x1080, symBinAddr: 0x10000B77C, symSize: 0x98 }
  - { offsetInCU: 0x20D4F, offset: 0x35EBE, size: 0x8, addend: 0x0, symName: '__ZNSt3__18functionIFvvEEaSIZN5dgrad3dotEPNS4_6TensorES6_E3$_4vEERS2_OT_', symObjAddr: 0x1358, symBinAddr: 0x10000BA54, symSize: 0x98 }
  - { offsetInCU: 0x20D90, offset: 0x35EFF, size: 0x8, addend: 0x0, symName: '__ZNSt3__18functionIFvvEEaSIZN5dgrad3expEPNS4_6TensorEE3$_5vEERS2_OT_', symObjAddr: 0x162C, symBinAddr: 0x10000BD28, symSize: 0xC8 }
  - { offsetInCU: 0x20DD6, offset: 0x35F45, size: 0x8, addend: 0x0, symName: '__ZZN5dgrad3expEPNS_6TensorEEN3$_5D1Ev', symObjAddr: 0x16F4, symBinAddr: 0x10000BDF0, symSize: 0x2C }
  - { offsetInCU: 0x20E02, offset: 0x35F71, size: 0x8, addend: 0x0, symName: '__ZNSt3__18functionIFvvEEaSIZN5dgrad4tanhEPNS4_6TensorEE3$_6vEERS2_OT_', symObjAddr: 0x195C, symBinAddr: 0x10000C058, symSize: 0xC8 }
  - { offsetInCU: 0x20E48, offset: 0x35FB7, size: 0x8, addend: 0x0, symName: '__ZZN5dgrad4tanhEPNS_6TensorEEN3$_6D1Ev', symObjAddr: 0x1A24, symBinAddr: 0x10000C120, symSize: 0x2C }
  - { offsetInCU: 0x20E74, offset: 0x35FE3, size: 0x8, addend: 0x0, symName: '__ZNSt3__18functionIFvvEEaSIZN5dgrad4reluEPNS4_6TensorEE3$_7vEERS2_OT_', symObjAddr: 0x1C54, symBinAddr: 0x10000C350, symSize: 0x94 }
  - { offsetInCU: 0x20EB5, offset: 0x36024, size: 0x8, addend: 0x0, symName: __ZN5dgrad6Tensor8backwardEv, symObjAddr: 0x1CE8, symBinAddr: 0x10000C3E4, symSize: 0x204 }
  - { offsetInCU: 0x20F62, offset: 0x360D1, size: 0x8, addend: 0x0, symName: __ZNSt3__16vectorIN5dgrad6TensorENS_9allocatorIS2_EEEC1B8ue170006Ev, symObjAddr: 0x1EEC, symBinAddr: 0x10000C5E8, symSize: 0x2C }
  - { offsetInCU: 0x20F8C, offset: 0x360FB, size: 0x8, addend: 0x0, symName: __ZNSt3__13setINS_6vectorIdNS_9allocatorIdEEEENS_4lessIS4_EENS2_IS4_EEEC1B8ue170006Ev, symObjAddr: 0x1F18, symBinAddr: 0x10000C614, symSize: 0x2C }
  - { offsetInCU: 0x20FB6, offset: 0x36125, size: 0x8, addend: 0x0, symName: __ZNSt3__16vectorIN5dgrad6TensorENS_9allocatorIS2_EEE5beginB8ue170006Ev, symObjAddr: 0x1F80, symBinAddr: 0x10000C67C, symSize: 0x30 }
  - { offsetInCU: 0x20FDE, offset: 0x3614D, size: 0x8, addend: 0x0, symName: __ZNSt3__16vectorIN5dgrad6TensorENS_9allocatorIS2_EEE3endB8ue170006Ev, symObjAddr: 0x1FB0, symBinAddr: 0x10000C6AC, symSize: 0x30 }
  - { offsetInCU: 0x21006, offset: 0x36175, size: 0x8, addend: 0x0, symName: __ZNKSt3__111__wrap_iterIPN5dgrad6TensorEEdeB8ue170006Ev, symObjAddr: 0x2014, symBinAddr: 0x10000C710, symSize: 0x18 }
  - { offsetInCU: 0x2102C, offset: 0x3619B, size: 0x8, addend: 0x0, symName: __ZNKSt3__18functionIFvvEEclEv, symObjAddr: 0x202C, symBinAddr: 0x10000C728, symSize: 0x24 }
  - { offsetInCU: 0x21054, offset: 0x361C3, size: 0x8, addend: 0x0, symName: __ZNSt3__111__wrap_iterIPN5dgrad6TensorEEppB8ue170006Ev, symObjAddr: 0x2050, symBinAddr: 0x10000C74C, symSize: 0x20 }
  - { offsetInCU: 0x2107A, offset: 0x361E9, size: 0x8, addend: 0x0, symName: __ZNSt3__13setINS_6vectorIdNS_9allocatorIdEEEENS_4lessIS4_EENS2_IS4_EEED1B8ue170006Ev, symObjAddr: 0x2070, symBinAddr: 0x10000C76C, symSize: 0x2C }
  - { offsetInCU: 0x210A4, offset: 0x36213, size: 0x8, addend: 0x0, symName: __ZNSt3__16vectorIN5dgrad6TensorENS_9allocatorIS2_EEED1B8ue170006Ev, symObjAddr: 0x209C, symBinAddr: 0x10000C798, symSize: 0x2C }
  - { offsetInCU: 0x210CE, offset: 0x3623D, size: 0x8, addend: 0x0, symName: __ZN5dgrad6Tensor9zero_gradEv, symObjAddr: 0x20C8, symBinAddr: 0x10000C7C4, symSize: 0x200 }
  - { offsetInCU: 0x2117B, offset: 0x362EA, size: 0x8, addend: 0x0, symName: __ZNKSt3__111__wrap_iterIPPN5dgrad6TensorEE4baseB8ue170006Ev, symObjAddr: 0x2310, symBinAddr: 0x10000CA0C, symSize: 0x18 }
  - { offsetInCU: 0x211A1, offset: 0x36310, size: 0x8, addend: 0x0, symName: __ZN5dgrad6TensorC2ERKS0_, symObjAddr: 0x2328, symBinAddr: 0x10000CA24, symSize: 0x124 }
  - { offsetInCU: 0x211D6, offset: 0x36345, size: 0x8, addend: 0x0, symName: __ZNSt3__18functionIFvvEEC1ERKS2_, symObjAddr: 0x244C, symBinAddr: 0x10000CB48, symSize: 0x34 }
  - { offsetInCU: 0x21211, offset: 0x36380, size: 0x8, addend: 0x0, symName: __ZNSt3__16vectorIPN5dgrad6TensorENS_9allocatorIS3_EEEC1ERKS6_, symObjAddr: 0x2480, symBinAddr: 0x10000CB7C, symSize: 0x34 }
  - { offsetInCU: 0x2124C, offset: 0x363BB, size: 0x8, addend: 0x0, symName: __ZNSt3__18functionIFvvEEC2ERKS2_, symObjAddr: 0x250C, symBinAddr: 0x10000CBB0, symSize: 0x34 }
  - { offsetInCU: 0x21287, offset: 0x363F6, size: 0x8, addend: 0x0, symName: __ZNSt3__110__function12__value_funcIFvvEEC1B8ue170006ERKS3_, symObjAddr: 0x2540, symBinAddr: 0x10000CBE4, symSize: 0x34 }
  - { offsetInCU: 0x212C0, offset: 0x3642F, size: 0x8, addend: 0x0, symName: __ZNSt3__110__function12__value_funcIFvvEEC2B8ue170006ERKS3_, symObjAddr: 0x2574, symBinAddr: 0x10000CC18, symSize: 0xC0 }
  - { offsetInCU: 0x212F9, offset: 0x36468, size: 0x8, addend: 0x0, symName: __ZNSt3__110__function12__value_funcIFvvEE9__as_baseB8ue170006EPv, symObjAddr: 0x2634, symBinAddr: 0x10000CCD8, symSize: 0x14 }
  - { offsetInCU: 0x2131D, offset: 0x3648C, size: 0x8, addend: 0x0, symName: __ZNSt3__16vectorIPN5dgrad6TensorENS_9allocatorIS3_EEEC2ERKS6_, symObjAddr: 0x2648, symBinAddr: 0x10000CCEC, symSize: 0x94 }
  - { offsetInCU: 0x21362, offset: 0x364D1, size: 0x8, addend: 0x0, symName: __ZNSt3__116allocator_traitsINS_9allocatorIPN5dgrad6TensorEEEE37select_on_container_copy_constructionB8ue170006IS5_vvEES5_RKS5_, symObjAddr: 0x26DC, symBinAddr: 0x10000CD80, symSize: 0x10 }
  - { offsetInCU: 0x21391, offset: 0x36500, size: 0x8, addend: 0x0, symName: __ZNKSt3__16vectorIPN5dgrad6TensorENS_9allocatorIS3_EEE7__allocB8ue170006Ev, symObjAddr: 0x26EC, symBinAddr: 0x10000CD90, symSize: 0x28 }
  - { offsetInCU: 0x213C3, offset: 0x36532, size: 0x8, addend: 0x0, symName: __ZNSt3__117__compressed_pairIPPN5dgrad6TensorENS_9allocatorIS3_EEEC1B8ue170006IDnS6_EEOT_OT0_, symObjAddr: 0x2714, symBinAddr: 0x10000CDB8, symSize: 0x3C }
  - { offsetInCU: 0x2141B, offset: 0x3658A, size: 0x8, addend: 0x0, symName: __ZNSt3__16vectorIPN5dgrad6TensorENS_9allocatorIS3_EEE16__init_with_sizeB8ue170006IPS3_S8_EEvT_T0_m, symObjAddr: 0x2750, symBinAddr: 0x10000CDF4, symSize: 0xB8 }
  - { offsetInCU: 0x2148F, offset: 0x365FE, size: 0x8, addend: 0x0, symName: __ZNKSt3__117__compressed_pairIPPN5dgrad6TensorENS_9allocatorIS3_EEE6secondB8ue170006Ev, symObjAddr: 0x2830, symBinAddr: 0x10000CEAC, symSize: 0x24 }
  - { offsetInCU: 0x214B5, offset: 0x36624, size: 0x8, addend: 0x0, symName: __ZNKSt3__122__compressed_pair_elemINS_9allocatorIPN5dgrad6TensorEEELi1ELb1EE5__getB8ue170006Ev, symObjAddr: 0x2854, symBinAddr: 0x10000CED0, symSize: 0x14 }
  - { offsetInCU: 0x214DB, offset: 0x3664A, size: 0x8, addend: 0x0, symName: __ZNSt3__117__compressed_pairIPPN5dgrad6TensorENS_9allocatorIS3_EEEC2B8ue170006IDnS6_EEOT_OT0_, symObjAddr: 0x2868, symBinAddr: 0x10000CEE4, symSize: 0x44 }
  - { offsetInCU: 0x21533, offset: 0x366A2, size: 0x8, addend: 0x0, symName: __ZNSt3__122__compressed_pair_elemINS_9allocatorIPN5dgrad6TensorEEELi1ELb1EEC2B8ue170006IS5_vEEOT_, symObjAddr: 0x28C8, symBinAddr: 0x10000CF28, symSize: 0x18 }
  - { offsetInCU: 0x21575, offset: 0x366E4, size: 0x8, addend: 0x0, symName: __ZNSt3__16vectorIPN5dgrad6TensorENS_9allocatorIS3_EEE11__vallocateB8ue170006Em, symObjAddr: 0x2954, symBinAddr: 0x10000CF80, symSize: 0xAC }
  - { offsetInCU: 0x215B9, offset: 0x36728, size: 0x8, addend: 0x0, symName: __ZNSt3__16vectorIPN5dgrad6TensorENS_9allocatorIS3_EEE18__construct_at_endIPS3_S8_EEvT_T0_m, symObjAddr: 0x2A00, symBinAddr: 0x10000D02C, symSize: 0x8C }
  - { offsetInCU: 0x2162F, offset: 0x3679E, size: 0x8, addend: 0x0, symName: __ZNSt3__128__exception_guard_exceptionsINS_6vectorIPN5dgrad6TensorENS_9allocatorIS4_EEE16__destroy_vectorEE10__completeB8ue170006Ev, symObjAddr: 0x2A8C, symBinAddr: 0x10000D0B8, symSize: 0x1C }
  - { offsetInCU: 0x21655, offset: 0x367C4, size: 0x8, addend: 0x0, symName: __ZNSt3__128__exception_guard_exceptionsINS_6vectorIPN5dgrad6TensorENS_9allocatorIS4_EEE16__destroy_vectorEED1B8ue170006Ev, symObjAddr: 0x2AA8, symBinAddr: 0x10000D0D4, symSize: 0x2C }
  - { offsetInCU: 0x2167F, offset: 0x367EE, size: 0x8, addend: 0x0, symName: __ZNSt3__128__exception_guard_exceptionsINS_6vectorIPN5dgrad6TensorENS_9allocatorIS4_EEE16__destroy_vectorEEC1B8ue170006ES8_, symObjAddr: 0x2AD4, symBinAddr: 0x10000D100, symSize: 0x34 }
  - { offsetInCU: 0x216B7, offset: 0x36826, size: 0x8, addend: 0x0, symName: __ZNSt3__128__exception_guard_exceptionsINS_6vectorIPN5dgrad6TensorENS_9allocatorIS4_EEE16__destroy_vectorEEC2B8ue170006ES8_, symObjAddr: 0x2B08, symBinAddr: 0x10000D134, symSize: 0x24 }
  - { offsetInCU: 0x216EF, offset: 0x3685E, size: 0x8, addend: 0x0, symName: __ZNKSt3__16vectorIPN5dgrad6TensorENS_9allocatorIS3_EEE8max_sizeEv, symObjAddr: 0x2B4C, symBinAddr: 0x10000D158, symSize: 0x60 }
  - { offsetInCU: 0x21717, offset: 0x36886, size: 0x8, addend: 0x0, symName: __ZNKSt3__16vectorIPN5dgrad6TensorENS_9allocatorIS3_EEE20__throw_length_errorB8ue170006Ev, symObjAddr: 0x2BAC, symBinAddr: 0x10000D1B8, symSize: 0x1C }
  - { offsetInCU: 0x2173D, offset: 0x368AC, size: 0x8, addend: 0x0, symName: __ZNSt3__16vectorIPN5dgrad6TensorENS_9allocatorIS3_EEE9__end_capB8ue170006Ev, symObjAddr: 0x2C30, symBinAddr: 0x10000D214, symSize: 0x28 }
  - { offsetInCU: 0x21763, offset: 0x368D2, size: 0x8, addend: 0x0, symName: __ZNKSt3__16vectorIPN5dgrad6TensorENS_9allocatorIS3_EEE14__annotate_newB8ue170006Em, symObjAddr: 0x2C58, symBinAddr: 0x10000D23C, symSize: 0xAC }
  - { offsetInCU: 0x21798, offset: 0x36907, size: 0x8, addend: 0x0, symName: __ZNSt3__116allocator_traitsINS_9allocatorIPN5dgrad6TensorEEEE8max_sizeB8ue170006IS5_vEEmRKS5_, symObjAddr: 0x2D30, symBinAddr: 0x10000D2E8, symSize: 0x24 }
  - { offsetInCU: 0x217D0, offset: 0x3693F, size: 0x8, addend: 0x0, symName: __ZNKSt3__19allocatorIPN5dgrad6TensorEE8max_sizeB8ue170006Ev, symObjAddr: 0x2DFC, symBinAddr: 0x10000D30C, symSize: 0x14 }
  - { offsetInCU: 0x217F6, offset: 0x36965, size: 0x8, addend: 0x0, symName: __ZNSt3__19allocatorIPN5dgrad6TensorEE8allocateB8ue170006Em, symObjAddr: 0x2EFC, symBinAddr: 0x10000D320, symSize: 0x58 }
  - { offsetInCU: 0x2182A, offset: 0x36999, size: 0x8, addend: 0x0, symName: __ZNSt3__117__compressed_pairIPPN5dgrad6TensorENS_9allocatorIS3_EEE5firstB8ue170006Ev, symObjAddr: 0x300C, symBinAddr: 0x10000D378, symSize: 0x24 }
  - { offsetInCU: 0x21850, offset: 0x369BF, size: 0x8, addend: 0x0, symName: __ZNSt3__122__compressed_pair_elemIPPN5dgrad6TensorELi0ELb0EE5__getB8ue170006Ev, symObjAddr: 0x3030, symBinAddr: 0x10000D39C, symSize: 0x14 }
  - { offsetInCU: 0x2188F, offset: 0x369FE, size: 0x8, addend: 0x0, symName: __ZNSt3__16vectorIPN5dgrad6TensorENS_9allocatorIS3_EEE21_ConstructTransactionC1B8ue170006ERS6_m, symObjAddr: 0x3140, symBinAddr: 0x10000D3B0, symSize: 0x3C }
  - { offsetInCU: 0x218D7, offset: 0x36A46, size: 0x8, addend: 0x0, symName: __ZNSt3__16vectorIPN5dgrad6TensorENS_9allocatorIS3_EEE21_ConstructTransactionD1B8ue170006Ev, symObjAddr: 0x31FC, symBinAddr: 0x10000D46C, symSize: 0x2C }
  - { offsetInCU: 0x21901, offset: 0x36A70, size: 0x8, addend: 0x0, symName: __ZNSt3__16vectorIPN5dgrad6TensorENS_9allocatorIS3_EEE21_ConstructTransactionC2B8ue170006ERS6_m, symObjAddr: 0x3228, symBinAddr: 0x10000D498, symSize: 0x44 }
  - { offsetInCU: 0x21969, offset: 0x36AD8, size: 0x8, addend: 0x0, symName: __ZNSt3__14pairIPPN5dgrad6TensorES4_EC1B8ue170006IS4_S4_LPv0EEEOT_OT0_, symObjAddr: 0x339C, symBinAddr: 0x10000D60C, symSize: 0x3C }
  - { offsetInCU: 0x219C7, offset: 0x36B36, size: 0x8, addend: 0x0, symName: __ZNSt3__14pairIPPN5dgrad6TensorES4_EC2B8ue170006IS4_S4_LPv0EEEOT_OT0_, symObjAddr: 0x33D8, symBinAddr: 0x10000D648, symSize: 0x34 }
  - { offsetInCU: 0x21A2F, offset: 0x36B9E, size: 0x8, addend: 0x0, symName: __ZNKSt3__114__copy_trivialclB8ue170006IPN5dgrad6TensorES4_Li0EEENS_4pairIPT_PT0_EES7_S7_S9_, symObjAddr: 0x3588, symBinAddr: 0x10000D7F8, symSize: 0x48 }
  - { offsetInCU: 0x21A97, offset: 0x36C06, size: 0x8, addend: 0x0, symName: __ZNSt3__14pairIPPN5dgrad6TensorES4_EC1B8ue170006IRS4_S4_LPv0EEEOT_OT0_, symObjAddr: 0x3718, symBinAddr: 0x10000D988, symSize: 0x3C }
  - { offsetInCU: 0x21AF5, offset: 0x36C64, size: 0x8, addend: 0x0, symName: __ZNSt3__14pairIPPN5dgrad6TensorES4_EC2B8ue170006IRS4_S4_LPv0EEEOT_OT0_, symObjAddr: 0x3754, symBinAddr: 0x10000D9C4, symSize: 0x34 }
  - { offsetInCU: 0x21B53, offset: 0x36CC2, size: 0x8, addend: 0x0, symName: __ZNSt3__118__unwrap_iter_implIPPN5dgrad6TensorELb1EE8__unwrapB8ue170006ES4_, symObjAddr: 0x3788, symBinAddr: 0x10000D9F8, symSize: 0x24 }
  - { offsetInCU: 0x21B76, offset: 0x36CE5, size: 0x8, addend: 0x0, symName: __ZNSt3__118__unwrap_iter_implIPPN5dgrad6TensorELb1EE8__rewrapB8ue170006ES4_S4_, symObjAddr: 0x37AC, symBinAddr: 0x10000DA1C, symSize: 0x50 }
  - { offsetInCU: 0x21BA7, offset: 0x36D16, size: 0x8, addend: 0x0, symName: __ZNSt3__16vectorIPN5dgrad6TensorENS_9allocatorIS3_EEE21_ConstructTransactionD2B8ue170006Ev, symObjAddr: 0x37FC, symBinAddr: 0x10000DA6C, symSize: 0x20 }
  - { offsetInCU: 0x21BD1, offset: 0x36D40, size: 0x8, addend: 0x0, symName: __ZNSt3__128__exception_guard_exceptionsINS_6vectorIPN5dgrad6TensorENS_9allocatorIS4_EEE16__destroy_vectorEED2B8ue170006Ev, symObjAddr: 0x381C, symBinAddr: 0x10000DA8C, symSize: 0x50 }
  - { offsetInCU: 0x21BFB, offset: 0x36D6A, size: 0x8, addend: 0x0, symName: __ZNSt3__18functionIFvvEEC1IZN5dgrad6TensorC1ENS_6vectorIdNS_9allocatorIdEEEEEUlvE_vEET_, symObjAddr: 0x3E40, symBinAddr: 0x10000DC00, symSize: 0x34 }
  - { offsetInCU: 0x21C40, offset: 0x36DAF, size: 0x8, addend: 0x0, symName: __ZNSt3__18functionIFvvEEC1IZN5dgrad6TensorC1ENS_6vectorIdNS_9allocatorIdEEEEEUlvE0_vEET_, symObjAddr: 0x3E74, symBinAddr: 0x10000DC34, symSize: 0x2C }
  - { offsetInCU: 0x21C85, offset: 0x36DF4, size: 0x8, addend: 0x0, symName: __ZNSt3__18functionIFvvEEC2IZN5dgrad6TensorC1ENS_6vectorIdNS_9allocatorIdEEEEEUlvE_vEET_, symObjAddr: 0x3EF4, symBinAddr: 0x10000DC60, symSize: 0x38 }
  - { offsetInCU: 0x21CCA, offset: 0x36E39, size: 0x8, addend: 0x0, symName: __ZNSt3__110__function12__value_funcIFvvEEC1B8ue170006IZN5dgrad6TensorC1ENS_6vectorIdNS_9allocatorIdEEEEEUlvE_vEEOT_, symObjAddr: 0x3F2C, symBinAddr: 0x10000DC98, symSize: 0x50 }
  - { offsetInCU: 0x21D0D, offset: 0x36E7C, size: 0x8, addend: 0x0, symName: __ZNSt3__19allocatorIZN5dgrad6TensorC1ENS_6vectorIdNS0_IdEEEEEUlvE_EC1B8ue170006Ev, symObjAddr: 0x3F7C, symBinAddr: 0x10000DCE8, symSize: 0x2C }
  - { offsetInCU: 0x21D37, offset: 0x36EA6, size: 0x8, addend: 0x0, symName: __ZNSt3__110__function12__value_funcIFvvEEC1B8ue170006IZN5dgrad6TensorC1ENS_6vectorIdNS_9allocatorIdEEEEEUlvE_NS8_ISB_EEEEOT_RKT0_, symObjAddr: 0x3FA8, symBinAddr: 0x10000DD14, symSize: 0x3C }
  - { offsetInCU: 0x21D91, offset: 0x36F00, size: 0x8, addend: 0x0, symName: __ZNSt3__19allocatorIZN5dgrad6TensorC1ENS_6vectorIdNS0_IdEEEEEUlvE_EC2B8ue170006Ev, symObjAddr: 0x3FE4, symBinAddr: 0x10000DD50, symSize: 0x2C }
  - { offsetInCU: 0x21DBB, offset: 0x36F2A, size: 0x8, addend: 0x0, symName: __ZNSt3__116__non_trivial_ifILb1ENS_9allocatorIZN5dgrad6TensorC1ENS_6vectorIdNS1_IdEEEEEUlvE_EEEC2B8ue170006Ev, symObjAddr: 0x4010, symBinAddr: 0x10000DD7C, symSize: 0x14 }
  - { offsetInCU: 0x21DE5, offset: 0x36F54, size: 0x8, addend: 0x0, symName: __ZNSt3__110__function12__value_funcIFvvEEC2B8ue170006IZN5dgrad6TensorC1ENS_6vectorIdNS_9allocatorIdEEEEEUlvE_NS8_ISB_EEEEOT_RKT0_, symObjAddr: 0x4024, symBinAddr: 0x10000DD90, symSize: 0x94 }
  - { offsetInCU: 0x21E8B, offset: 0x36FFA, size: 0x8, addend: 0x0, symName: __ZNSt3__19allocatorINS_10__function6__funcIZN5dgrad6TensorC1ENS_6vectorIdNS0_IdEEEEEUlvE_NS0_IS8_EEFvvEEEEC1B8ue170006IS8_EERKNS0_IT_EE, symObjAddr: 0x40D0, symBinAddr: 0x10000DE3C, symSize: 0x34 }
  - { offsetInCU: 0x21ECD, offset: 0x3703C, size: 0x8, addend: 0x0, symName: __ZNSt3__19allocatorIZN5dgrad6TensorC1ENS_6vectorIdNS0_IdEEEEEUlvE_EC1B8ue170006INS_10__function6__funcIS6_S7_FvvEEEEERKNS0_IT_EE, symObjAddr: 0x4104, symBinAddr: 0x10000DE70, symSize: 0x34 }
  - { offsetInCU: 0x21F0A, offset: 0x37079, size: 0x8, addend: 0x0, symName: __ZNSt3__110__function6__funcIZN5dgrad6TensorC1ENS_6vectorIdNS_9allocatorIdEEEEEUlvE_NS5_IS8_EEFvvEEC1B8ue170006EOS8_OS9_, symObjAddr: 0x4138, symBinAddr: 0x10000DEA4, symSize: 0x3C }
  - { offsetInCU: 0x21F52, offset: 0x370C1, size: 0x8, addend: 0x0, symName: __ZNSt3__19allocatorINS_10__function6__funcIZN5dgrad6TensorC1ENS_6vectorIdNS0_IdEEEEEUlvE_NS0_IS8_EEFvvEEEEC2B8ue170006IS8_EERKNS0_IT_EE, symObjAddr: 0x4174, symBinAddr: 0x10000DEE0, symSize: 0x30 }
  - { offsetInCU: 0x21F8F, offset: 0x370FE, size: 0x8, addend: 0x0, symName: __ZNSt3__116__non_trivial_ifILb1ENS_9allocatorINS_10__function6__funcIZN5dgrad6TensorC1ENS_6vectorIdNS1_IdEEEEEUlvE_NS1_IS9_EEFvvEEEEEEC2B8ue170006Ev, symObjAddr: 0x41A4, symBinAddr: 0x10000DF10, symSize: 0x14 }
  - { offsetInCU: 0x21FB9, offset: 0x37128, size: 0x8, addend: 0x0, symName: __ZNSt3__19allocatorIZN5dgrad6TensorC1ENS_6vectorIdNS0_IdEEEEEUlvE_EC2B8ue170006INS_10__function6__funcIS6_S7_FvvEEEEERKNS0_IT_EE, symObjAddr: 0x41B8, symBinAddr: 0x10000DF24, symSize: 0x30 }
  - { offsetInCU: 0x21FF6, offset: 0x37165, size: 0x8, addend: 0x0, symName: __ZNSt3__110__function6__funcIZN5dgrad6TensorC1ENS_6vectorIdNS_9allocatorIdEEEEEUlvE_NS5_IS8_EEFvvEEC2B8ue170006EOS8_OS9_, symObjAddr: 0x41E8, symBinAddr: 0x10000DF54, symSize: 0x88 }
  - { offsetInCU: 0x2203E, offset: 0x371AD, size: 0x8, addend: 0x0, symName: __ZNSt3__110__function12__alloc_funcIZN5dgrad6TensorC1ENS_6vectorIdNS_9allocatorIdEEEEEUlvE_NS5_IS8_EEFvvEEC1B8ue170006EOS8_OS9_, symObjAddr: 0x4294, symBinAddr: 0x10000DFDC, symSize: 0x3C }
  - { offsetInCU: 0x22084, offset: 0x371F3, size: 0x8, addend: 0x0, symName: __ZNSt3__110__function6__funcIZN5dgrad6TensorC1ENS_6vectorIdNS_9allocatorIdEEEEEUlvE_NS5_IS8_EEFvvEED1Ev, symObjAddr: 0x42E4, symBinAddr: 0x10000E018, symSize: 0x2C }
  - { offsetInCU: 0x220B1, offset: 0x37220, size: 0x8, addend: 0x0, symName: __ZNSt3__110__function6__funcIZN5dgrad6TensorC1ENS_6vectorIdNS_9allocatorIdEEEEEUlvE_NS5_IS8_EEFvvEED0Ev, symObjAddr: 0x4310, symBinAddr: 0x10000E044, symSize: 0x30 }
  - { offsetInCU: 0x220DE, offset: 0x3724D, size: 0x8, addend: 0x0, symName: __ZNKSt3__110__function6__funcIZN5dgrad6TensorC1ENS_6vectorIdNS_9allocatorIdEEEEEUlvE_NS5_IS8_EEFvvEE7__cloneEv, symObjAddr: 0x4340, symBinAddr: 0x10000E074, symSize: 0xFC }
  - { offsetInCU: 0x22130, offset: 0x3729F, size: 0x8, addend: 0x0, symName: __ZNKSt3__110__function6__funcIZN5dgrad6TensorC1ENS_6vectorIdNS_9allocatorIdEEEEEUlvE_NS5_IS8_EEFvvEE7__cloneEPNS0_6__baseISA_EE, symObjAddr: 0x443C, symBinAddr: 0x10000E170, symSize: 0x58 }
  - { offsetInCU: 0x22167, offset: 0x372D6, size: 0x8, addend: 0x0, symName: __ZNSt3__110__function6__funcIZN5dgrad6TensorC1ENS_6vectorIdNS_9allocatorIdEEEEEUlvE_NS5_IS8_EEFvvEE7destroyEv, symObjAddr: 0x4494, symBinAddr: 0x10000E1C8, symSize: 0x28 }
  - { offsetInCU: 0x2218F, offset: 0x372FE, size: 0x8, addend: 0x0, symName: __ZNSt3__110__function6__funcIZN5dgrad6TensorC1ENS_6vectorIdNS_9allocatorIdEEEEEUlvE_NS5_IS8_EEFvvEE18destroy_deallocateEv, symObjAddr: 0x44BC, symBinAddr: 0x10000E1F0, symSize: 0x58 }
  - { offsetInCU: 0x221D2, offset: 0x37341, size: 0x8, addend: 0x0, symName: __ZNSt3__110__function6__funcIZN5dgrad6TensorC1ENS_6vectorIdNS_9allocatorIdEEEEEUlvE_NS5_IS8_EEFvvEEclEv, symObjAddr: 0x4514, symBinAddr: 0x10000E248, symSize: 0x28 }
  - { offsetInCU: 0x221FA, offset: 0x37369, size: 0x8, addend: 0x0, symName: __ZNKSt3__110__function6__funcIZN5dgrad6TensorC1ENS_6vectorIdNS_9allocatorIdEEEEEUlvE_NS5_IS8_EEFvvEE6targetERKSt9type_info, symObjAddr: 0x453C, symBinAddr: 0x10000E270, symSize: 0x60 }
  - { offsetInCU: 0x22231, offset: 0x373A0, size: 0x8, addend: 0x0, symName: __ZNKSt3__110__function6__funcIZN5dgrad6TensorC1ENS_6vectorIdNS_9allocatorIdEEEEEUlvE_NS5_IS8_EEFvvEE11target_typeEv, symObjAddr: 0x459C, symBinAddr: 0x10000E2D0, symSize: 0x18 }
  - { offsetInCU: 0x22259, offset: 0x373C8, size: 0x8, addend: 0x0, symName: __ZNSt3__110__function12__alloc_funcIZN5dgrad6TensorC1ENS_6vectorIdNS_9allocatorIdEEEEEUlvE_NS5_IS8_EEFvvEEC2B8ue170006EOS8_OS9_, symObjAddr: 0x45D4, symBinAddr: 0x10000E2E8, symSize: 0x5C }
  - { offsetInCU: 0x2229F, offset: 0x3740E, size: 0x8, addend: 0x0, symName: __ZNSt3__117__compressed_pairIZN5dgrad6TensorC1ENS_6vectorIdNS_9allocatorIdEEEEEUlvE_NS4_IS7_EEEC1B8ue170006IJOS7_EJOS8_EEENS_21piecewise_construct_tENS_5tupleIJDpT_EEENSE_IJDpT0_EEE, symObjAddr: 0x4688, symBinAddr: 0x10000E39C, symSize: 0x3C }
  - { offsetInCU: 0x22309, offset: 0x37478, size: 0x8, addend: 0x0, symName: __ZNSt3__15tupleIJOZN5dgrad6TensorC1ENS_6vectorIdNS_9allocatorIdEEEEEUlvE_EEC1B8ue170006IJS7_ELi0EEEDpOT_, symObjAddr: 0x46C4, symBinAddr: 0x10000E3D8, symSize: 0x34 }
  - { offsetInCU: 0x22353, offset: 0x374C2, size: 0x8, addend: 0x0, symName: __ZNSt3__15tupleIJOZN5dgrad6TensorC1ENS_6vectorIdNS_9allocatorIdEEEEEUlvE_EEC2B8ue170006IJS7_ELi0EEEDpOT_, symObjAddr: 0x46F8, symBinAddr: 0x10000E40C, symSize: 0x34 }
  - { offsetInCU: 0x2239D, offset: 0x3750C, size: 0x8, addend: 0x0, symName: __ZNSt3__112__tuple_implINS_15__tuple_indicesIJLm0EEEEJOZN5dgrad6TensorC1ENS_6vectorIdNS_9allocatorIdEEEEEUlvE_EEC1B8ue170006IJLm0EEJSA_EJEJEJS9_EEENS1_IJXspT_EEEENS_13__tuple_typesIJDpT0_EEENS1_IJXspT1_EEEENSE_IJDpT2_EEEDpOT3_, symObjAddr: 0x472C, symBinAddr: 0x10000E440, symSize: 0x34 }
  - { offsetInCU: 0x2242E, offset: 0x3759D, size: 0x8, addend: 0x0, symName: __ZNSt3__112__tuple_implINS_15__tuple_indicesIJLm0EEEEJOZN5dgrad6TensorC1ENS_6vectorIdNS_9allocatorIdEEEEEUlvE_EEC2B8ue170006IJLm0EEJSA_EJEJEJS9_EEENS1_IJXspT_EEEENS_13__tuple_typesIJDpT0_EEENS1_IJXspT1_EEEENSE_IJDpT2_EEEDpOT3_, symObjAddr: 0x4760, symBinAddr: 0x10000E474, symSize: 0x34 }
  - { offsetInCU: 0x224BF, offset: 0x3762E, size: 0x8, addend: 0x0, symName: __ZNSt3__112__tuple_leafILm0EOZN5dgrad6TensorC1ENS_6vectorIdNS_9allocatorIdEEEEEUlvE_Lb0EEC2B8ue170006IS7_vEEOT_, symObjAddr: 0x4794, symBinAddr: 0x10000E4A8, symSize: 0x20 }
  - { offsetInCU: 0x22502, offset: 0x37671, size: 0x8, addend: 0x0, symName: __ZNSt3__15tupleIJONS_9allocatorIZN5dgrad6TensorC1ENS_6vectorIdNS1_IdEEEEEUlvE_EEEEC1B8ue170006IJS8_ELi0EEEDpOT_, symObjAddr: 0x47B4, symBinAddr: 0x10000E4C8, symSize: 0x34 }
  - { offsetInCU: 0x2254C, offset: 0x376BB, size: 0x8, addend: 0x0, symName: __ZNSt3__15tupleIJONS_9allocatorIZN5dgrad6TensorC1ENS_6vectorIdNS1_IdEEEEEUlvE_EEEEC2B8ue170006IJS8_ELi0EEEDpOT_, symObjAddr: 0x47E8, symBinAddr: 0x10000E4FC, symSize: 0x34 }
  - { offsetInCU: 0x22596, offset: 0x37705, size: 0x8, addend: 0x0, symName: __ZNSt3__112__tuple_implINS_15__tuple_indicesIJLm0EEEEJONS_9allocatorIZN5dgrad6TensorC1ENS_6vectorIdNS3_IdEEEEEUlvE_EEEEC1B8ue170006IJLm0EEJSB_EJEJEJSA_EEENS1_IJXspT_EEEENS_13__tuple_typesIJDpT0_EEENS1_IJXspT1_EEEENSF_IJDpT2_EEEDpOT3_, symObjAddr: 0x481C, symBinAddr: 0x10000E530, symSize: 0x34 }
  - { offsetInCU: 0x22627, offset: 0x37796, size: 0x8, addend: 0x0, symName: __ZNSt3__112__tuple_implINS_15__tuple_indicesIJLm0EEEEJONS_9allocatorIZN5dgrad6TensorC1ENS_6vectorIdNS3_IdEEEEEUlvE_EEEEC2B8ue170006IJLm0EEJSB_EJEJEJSA_EEENS1_IJXspT_EEEENS_13__tuple_typesIJDpT0_EEENS1_IJXspT1_EEEENSF_IJDpT2_EEEDpOT3_, symObjAddr: 0x4850, symBinAddr: 0x10000E564, symSize: 0x34 }
  - { offsetInCU: 0x226B8, offset: 0x37827, size: 0x8, addend: 0x0, symName: __ZNSt3__112__tuple_leafILm0EONS_9allocatorIZN5dgrad6TensorC1ENS_6vectorIdNS1_IdEEEEEUlvE_EELb0EEC2B8ue170006IS8_vEEOT_, symObjAddr: 0x4884, symBinAddr: 0x10000E598, symSize: 0x20 }
  - { offsetInCU: 0x226FB, offset: 0x3786A, size: 0x8, addend: 0x0, symName: __ZNSt3__117__compressed_pairIZN5dgrad6TensorC1ENS_6vectorIdNS_9allocatorIdEEEEEUlvE_NS4_IS7_EEEC2B8ue170006IJOS7_EJOS8_EEENS_21piecewise_construct_tENS_5tupleIJDpT_EEENSE_IJDpT0_EEE, symObjAddr: 0x48A4, symBinAddr: 0x10000E5B8, symSize: 0x54 }
  - { offsetInCU: 0x22765, offset: 0x378D4, size: 0x8, addend: 0x0, symName: __ZNSt3__122__compressed_pair_elemIZN5dgrad6TensorC1ENS_6vectorIdNS_9allocatorIdEEEEEUlvE_Li0ELb0EEC2B8ue170006IJOS7_EJLm0EEEENS_21piecewise_construct_tENS_5tupleIJDpT_EEENS_15__tuple_indicesIJXspT0_EEEE, symObjAddr: 0x48F8, symBinAddr: 0x10000E60C, symSize: 0x44 }
  - { offsetInCU: 0x227C8, offset: 0x37937, size: 0x8, addend: 0x0, symName: __ZNSt3__122__compressed_pair_elemINS_9allocatorIZN5dgrad6TensorC1ENS_6vectorIdNS1_IdEEEEEUlvE_EELi1ELb1EEC2B8ue170006IJOS8_EJLm0EEEENS_21piecewise_construct_tENS_5tupleIJDpT_EEENS_15__tuple_indicesIJXspT0_EEEE, symObjAddr: 0x493C, symBinAddr: 0x10000E650, symSize: 0x38 }
  - { offsetInCU: 0x2282B, offset: 0x3799A, size: 0x8, addend: 0x0, symName: __ZNSt3__112__tuple_leafILm0EOZN5dgrad6TensorC1ENS_6vectorIdNS_9allocatorIdEEEEEUlvE_Lb0EE3getB8ue170006Ev, symObjAddr: 0x4998, symBinAddr: 0x10000E6AC, symSize: 0x18 }
  - { offsetInCU: 0x22851, offset: 0x379C0, size: 0x8, addend: 0x0, symName: __ZNSt3__112__tuple_leafILm0EONS_9allocatorIZN5dgrad6TensorC1ENS_6vectorIdNS1_IdEEEEEUlvE_EELb0EE3getB8ue170006Ev, symObjAddr: 0x49D4, symBinAddr: 0x10000E6E8, symSize: 0x18 }
  - { offsetInCU: 0x22877, offset: 0x379E6, size: 0x8, addend: 0x0, symName: __ZNSt3__110__function6__funcIZN5dgrad6TensorC1ENS_6vectorIdNS_9allocatorIdEEEEEUlvE_NS5_IS8_EEFvvEED2Ev, symObjAddr: 0x49EC, symBinAddr: 0x10000E700, symSize: 0x2C }
  - { offsetInCU: 0x228A4, offset: 0x37A13, size: 0x8, addend: 0x0, symName: __ZNKSt3__110__function12__alloc_funcIZN5dgrad6TensorC1ENS_6vectorIdNS_9allocatorIdEEEEEUlvE_NS5_IS8_EEFvvEE15__get_allocatorB8ue170006Ev, symObjAddr: 0x4A18, symBinAddr: 0x10000E72C, symSize: 0x24 }
  - { offsetInCU: 0x228CA, offset: 0x37A39, size: 0x8, addend: 0x0, symName: __ZNSt3__19allocatorINS_10__function6__funcIZN5dgrad6TensorC1ENS_6vectorIdNS0_IdEEEEEUlvE_NS0_IS8_EEFvvEEEE8allocateB8ue170006Em, symObjAddr: 0x4A3C, symBinAddr: 0x10000E750, symSize: 0x58 }
  - { offsetInCU: 0x2290D, offset: 0x37A7C, size: 0x8, addend: 0x0, symName: __ZNSt3__122__allocator_destructorINS_9allocatorINS_10__function6__funcIZN5dgrad6TensorC1ENS_6vectorIdNS1_IdEEEEEUlvE_NS1_IS9_EEFvvEEEEEEC1B8ue170006ERSD_m, symObjAddr: 0x4A94, symBinAddr: 0x10000E7A8, symSize: 0x3C }
  - { offsetInCU: 0x229E1, offset: 0x37B50, size: 0x8, addend: 0x0, symName: __ZNSt3__110unique_ptrINS_10__function6__funcIZN5dgrad6TensorC1ENS_6vectorIdNS_9allocatorIdEEEEEUlvE_NS6_IS9_EEFvvEEENS_22__allocator_destructorINS6_ISC_EEEEEC1B8ue170006ILb1EvEEPSC_NS_16__dependent_typeINS_27__unique_ptr_deleter_sfinaeISF_EEXT_EE20__good_rval_ref_typeE, symObjAddr: 0x4AD0, symBinAddr: 0x10000E7E4, symSize: 0x3C }
  - { offsetInCU: 0x22A32, offset: 0x37BA1, size: 0x8, addend: 0x0, symName: __ZNKSt3__110unique_ptrINS_10__function6__funcIZN5dgrad6TensorC1ENS_6vectorIdNS_9allocatorIdEEEEEUlvE_NS6_IS9_EEFvvEEENS_22__allocator_destructorINS6_ISC_EEEEE3getB8ue170006Ev, symObjAddr: 0x4B0C, symBinAddr: 0x10000E820, symSize: 0x28 }
  - { offsetInCU: 0x22A58, offset: 0x37BC7, size: 0x8, addend: 0x0, symName: __ZNKSt3__110__function12__alloc_funcIZN5dgrad6TensorC1ENS_6vectorIdNS_9allocatorIdEEEEEUlvE_NS5_IS8_EEFvvEE8__targetB8ue170006Ev, symObjAddr: 0x4B34, symBinAddr: 0x10000E848, symSize: 0x24 }
  - { offsetInCU: 0x22A7E, offset: 0x37BED, size: 0x8, addend: 0x0, symName: __ZNSt3__110__function6__funcIZN5dgrad6TensorC1ENS_6vectorIdNS_9allocatorIdEEEEEUlvE_NS5_IS8_EEFvvEEC1B8ue170006ERKS8_OS9_, symObjAddr: 0x4B58, symBinAddr: 0x10000E86C, symSize: 0x3C }
  - { offsetInCU: 0x22AC6, offset: 0x37C35, size: 0x8, addend: 0x0, symName: __ZNSt3__110unique_ptrINS_10__function6__funcIZN5dgrad6TensorC1ENS_6vectorIdNS_9allocatorIdEEEEEUlvE_NS6_IS9_EEFvvEEENS_22__allocator_destructorINS6_ISC_EEEEE7releaseB8ue170006Ev, symObjAddr: 0x4B94, symBinAddr: 0x10000E8A8, symSize: 0x44 }
  - { offsetInCU: 0x22AFB, offset: 0x37C6A, size: 0x8, addend: 0x0, symName: __ZNSt3__110unique_ptrINS_10__function6__funcIZN5dgrad6TensorC1ENS_6vectorIdNS_9allocatorIdEEEEEUlvE_NS6_IS9_EEFvvEEENS_22__allocator_destructorINS6_ISC_EEEEED1B8ue170006Ev, symObjAddr: 0x4BD8, symBinAddr: 0x10000E8EC, symSize: 0x2C }
  - { offsetInCU: 0x22B25, offset: 0x37C94, size: 0x8, addend: 0x0, symName: __ZNKSt3__117__compressed_pairIZN5dgrad6TensorC1ENS_6vectorIdNS_9allocatorIdEEEEEUlvE_NS4_IS7_EEE6secondB8ue170006Ev, symObjAddr: 0x4C04, symBinAddr: 0x10000E918, symSize: 0x24 }
  - { offsetInCU: 0x22B4B, offset: 0x37CBA, size: 0x8, addend: 0x0, symName: __ZNKSt3__122__compressed_pair_elemINS_9allocatorIZN5dgrad6TensorC1ENS_6vectorIdNS1_IdEEEEEUlvE_EELi1ELb1EE5__getB8ue170006Ev, symObjAddr: 0x4C28, symBinAddr: 0x10000E93C, symSize: 0x14 }
  - { offsetInCU: 0x22B7B, offset: 0x37CEA, size: 0x8, addend: 0x0, symName: __ZNSt3__116allocator_traitsINS_9allocatorINS_10__function6__funcIZN5dgrad6TensorC1ENS_6vectorIdNS1_IdEEEEEUlvE_NS1_IS9_EEFvvEEEEEE8max_sizeB8ue170006ISD_vEEmRKSD_, symObjAddr: 0x4C3C, symBinAddr: 0x10000E950, symSize: 0x24 }
  - { offsetInCU: 0x22BA9, offset: 0x37D18, size: 0x8, addend: 0x0, symName: __ZNKSt3__19allocatorINS_10__function6__funcIZN5dgrad6TensorC1ENS_6vectorIdNS0_IdEEEEEUlvE_NS0_IS8_EEFvvEEEE8max_sizeB8ue170006Ev, symObjAddr: 0x4C60, symBinAddr: 0x10000E974, symSize: 0x14 }
  - { offsetInCU: 0x22BCF, offset: 0x37D3E, size: 0x8, addend: 0x0, symName: __ZNSt3__122__allocator_destructorINS_9allocatorINS_10__function6__funcIZN5dgrad6TensorC1ENS_6vectorIdNS1_IdEEEEEUlvE_NS1_IS9_EEFvvEEEEEEC2B8ue170006ERSD_m, symObjAddr: 0x4C74, symBinAddr: 0x10000E988, symSize: 0x2C }
  - { offsetInCU: 0x22C15, offset: 0x37D84, size: 0x8, addend: 0x0, symName: __ZNSt3__110unique_ptrINS_10__function6__funcIZN5dgrad6TensorC1ENS_6vectorIdNS_9allocatorIdEEEEEUlvE_NS6_IS9_EEFvvEEENS_22__allocator_destructorINS6_ISC_EEEEEC2B8ue170006ILb1EvEEPSC_NS_16__dependent_typeINS_27__unique_ptr_deleter_sfinaeISF_EEXT_EE20__good_rval_ref_typeE, symObjAddr: 0x4CA0, symBinAddr: 0x10000E9B4, symSize: 0x48 }
  - { offsetInCU: 0x22C66, offset: 0x37DD5, size: 0x8, addend: 0x0, symName: __ZNSt3__117__compressed_pairIPNS_10__function6__funcIZN5dgrad6TensorC1ENS_6vectorIdNS_9allocatorIdEEEEEUlvE_NS6_IS9_EEFvvEEENS_22__allocator_destructorINS6_ISC_EEEEEC1B8ue170006IRSD_SG_EEOT_OT0_, symObjAddr: 0x4CE8, symBinAddr: 0x10000E9FC, symSize: 0x3C }
  - { offsetInCU: 0x22CBE, offset: 0x37E2D, size: 0x8, addend: 0x0, symName: __ZNSt3__117__compressed_pairIPNS_10__function6__funcIZN5dgrad6TensorC1ENS_6vectorIdNS_9allocatorIdEEEEEUlvE_NS6_IS9_EEFvvEEENS_22__allocator_destructorINS6_ISC_EEEEEC2B8ue170006IRSD_SG_EEOT_OT0_, symObjAddr: 0x4D24, symBinAddr: 0x10000EA38, symSize: 0x48 }
  - { offsetInCU: 0x22D16, offset: 0x37E85, size: 0x8, addend: 0x0, symName: __ZNSt3__122__compressed_pair_elemIPNS_10__function6__funcIZN5dgrad6TensorC1ENS_6vectorIdNS_9allocatorIdEEEEEUlvE_NS6_IS9_EEFvvEEELi0ELb0EEC2B8ue170006IRSD_vEEOT_, symObjAddr: 0x4D6C, symBinAddr: 0x10000EA80, symSize: 0x24 }
  - { offsetInCU: 0x22D58, offset: 0x37EC7, size: 0x8, addend: 0x0, symName: __ZNSt3__122__compressed_pair_elemINS_22__allocator_destructorINS_9allocatorINS_10__function6__funcIZN5dgrad6TensorC1ENS_6vectorIdNS2_IdEEEEEUlvE_NS2_ISA_EEFvvEEEEEEELi1ELb0EEC2B8ue170006ISF_vEEOT_, symObjAddr: 0x4D90, symBinAddr: 0x10000EAA4, symSize: 0x24 }
  - { offsetInCU: 0x22D9A, offset: 0x37F09, size: 0x8, addend: 0x0, symName: __ZNKSt3__117__compressed_pairIPNS_10__function6__funcIZN5dgrad6TensorC1ENS_6vectorIdNS_9allocatorIdEEEEEUlvE_NS6_IS9_EEFvvEEENS_22__allocator_destructorINS6_ISC_EEEEE5firstB8ue170006Ev, symObjAddr: 0x4DB4, symBinAddr: 0x10000EAC8, symSize: 0x24 }
  - { offsetInCU: 0x22DC0, offset: 0x37F2F, size: 0x8, addend: 0x0, symName: __ZNKSt3__122__compressed_pair_elemIPNS_10__function6__funcIZN5dgrad6TensorC1ENS_6vectorIdNS_9allocatorIdEEEEEUlvE_NS6_IS9_EEFvvEEELi0ELb0EE5__getB8ue170006Ev, symObjAddr: 0x4DD8, symBinAddr: 0x10000EAEC, symSize: 0x14 }
  - { offsetInCU: 0x22DE6, offset: 0x37F55, size: 0x8, addend: 0x0, symName: __ZNKSt3__117__compressed_pairIZN5dgrad6TensorC1ENS_6vectorIdNS_9allocatorIdEEEEEUlvE_NS4_IS7_EEE5firstB8ue170006Ev, symObjAddr: 0x4DEC, symBinAddr: 0x10000EB00, symSize: 0x24 }
  - { offsetInCU: 0x22E0C, offset: 0x37F7B, size: 0x8, addend: 0x0, symName: __ZNKSt3__122__compressed_pair_elemIZN5dgrad6TensorC1ENS_6vectorIdNS_9allocatorIdEEEEEUlvE_Li0ELb0EE5__getB8ue170006Ev, symObjAddr: 0x4E10, symBinAddr: 0x10000EB24, symSize: 0x14 }
  - { offsetInCU: 0x22E32, offset: 0x37FA1, size: 0x8, addend: 0x0, symName: __ZNSt3__110__function6__funcIZN5dgrad6TensorC1ENS_6vectorIdNS_9allocatorIdEEEEEUlvE_NS5_IS8_EEFvvEEC2B8ue170006ERKS8_OS9_, symObjAddr: 0x4E24, symBinAddr: 0x10000EB38, symSize: 0x88 }
  - { offsetInCU: 0x22E7A, offset: 0x37FE9, size: 0x8, addend: 0x0, symName: __ZNSt3__110__function12__alloc_funcIZN5dgrad6TensorC1ENS_6vectorIdNS_9allocatorIdEEEEEUlvE_NS5_IS8_EEFvvEEC1B8ue170006ERKS8_OS9_, symObjAddr: 0x4EAC, symBinAddr: 0x10000EBC0, symSize: 0x3C }
  - { offsetInCU: 0x22EC0, offset: 0x3802F, size: 0x8, addend: 0x0, symName: __ZNSt3__110__function12__alloc_funcIZN5dgrad6TensorC1ENS_6vectorIdNS_9allocatorIdEEEEEUlvE_NS5_IS8_EEFvvEEC2B8ue170006ERKS8_OS9_, symObjAddr: 0x4EE8, symBinAddr: 0x10000EBFC, symSize: 0x5C }
  - { offsetInCU: 0x22F06, offset: 0x38075, size: 0x8, addend: 0x0, symName: __ZNSt3__117__compressed_pairIZN5dgrad6TensorC1ENS_6vectorIdNS_9allocatorIdEEEEEUlvE_NS4_IS7_EEEC1B8ue170006IJRKS7_EJOS8_EEENS_21piecewise_construct_tENS_5tupleIJDpT_EEENSF_IJDpT0_EEE, symObjAddr: 0x4F70, symBinAddr: 0x10000EC84, symSize: 0x3C }
  - { offsetInCU: 0x22F70, offset: 0x380DF, size: 0x8, addend: 0x0, symName: __ZNSt3__15tupleIJRKZN5dgrad6TensorC1ENS_6vectorIdNS_9allocatorIdEEEEEUlvE_EEC1B8ue170006INS_4_AndELi0EEES9_, symObjAddr: 0x4FAC, symBinAddr: 0x10000ECC0, symSize: 0x34 }
  - { offsetInCU: 0x22FB8, offset: 0x38127, size: 0x8, addend: 0x0, symName: __ZNSt3__15tupleIJRKZN5dgrad6TensorC1ENS_6vectorIdNS_9allocatorIdEEEEEUlvE_EEC2B8ue170006INS_4_AndELi0EEES9_, symObjAddr: 0x4FE0, symBinAddr: 0x10000ECF4, symSize: 0x34 }
  - { offsetInCU: 0x23000, offset: 0x3816F, size: 0x8, addend: 0x0, symName: __ZNSt3__112__tuple_implINS_15__tuple_indicesIJLm0EEEEJRKZN5dgrad6TensorC1ENS_6vectorIdNS_9allocatorIdEEEEEUlvE_EEC1B8ue170006IJLm0EEJSB_EJEJEJSB_EEENS1_IJXspT_EEEENS_13__tuple_typesIJDpT0_EEENS1_IJXspT1_EEEENSF_IJDpT2_EEEDpOT3_, symObjAddr: 0x5014, symBinAddr: 0x10000ED28, symSize: 0x34 }
  - { offsetInCU: 0x23091, offset: 0x38200, size: 0x8, addend: 0x0, symName: __ZNSt3__112__tuple_implINS_15__tuple_indicesIJLm0EEEEJRKZN5dgrad6TensorC1ENS_6vectorIdNS_9allocatorIdEEEEEUlvE_EEC2B8ue170006IJLm0EEJSB_EJEJEJSB_EEENS1_IJXspT_EEEENS_13__tuple_typesIJDpT0_EEENS1_IJXspT1_EEEENSF_IJDpT2_EEEDpOT3_, symObjAddr: 0x5048, symBinAddr: 0x10000ED5C, symSize: 0x34 }
  - { offsetInCU: 0x23122, offset: 0x38291, size: 0x8, addend: 0x0, symName: __ZNSt3__112__tuple_leafILm0ERKZN5dgrad6TensorC1ENS_6vectorIdNS_9allocatorIdEEEEEUlvE_Lb0EEC2B8ue170006IS9_vEEOT_, symObjAddr: 0x507C, symBinAddr: 0x10000ED90, symSize: 0x20 }
  - { offsetInCU: 0x23165, offset: 0x382D4, size: 0x8, addend: 0x0, symName: __ZNSt3__117__compressed_pairIZN5dgrad6TensorC1ENS_6vectorIdNS_9allocatorIdEEEEEUlvE_NS4_IS7_EEEC2B8ue170006IJRKS7_EJOS8_EEENS_21piecewise_construct_tENS_5tupleIJDpT_EEENSF_IJDpT0_EEE, symObjAddr: 0x509C, symBinAddr: 0x10000EDB0, symSize: 0x54 }
  - { offsetInCU: 0x231CF, offset: 0x3833E, size: 0x8, addend: 0x0, symName: __ZNSt3__122__compressed_pair_elemIZN5dgrad6TensorC1ENS_6vectorIdNS_9allocatorIdEEEEEUlvE_Li0ELb0EEC2B8ue170006IJRKS7_EJLm0EEEENS_21piecewise_construct_tENS_5tupleIJDpT_EEENS_15__tuple_indicesIJXspT0_EEEE, symObjAddr: 0x50F0, symBinAddr: 0x10000EE04, symSize: 0x44 }
  - { offsetInCU: 0x23232, offset: 0x383A1, size: 0x8, addend: 0x0, symName: __ZNSt3__112__tuple_leafILm0ERKZN5dgrad6TensorC1ENS_6vectorIdNS_9allocatorIdEEEEEUlvE_Lb0EE3getB8ue170006Ev, symObjAddr: 0x5158, symBinAddr: 0x10000EE6C, symSize: 0x18 }
  - { offsetInCU: 0x23258, offset: 0x383C7, size: 0x8, addend: 0x0, symName: __ZNSt3__117__compressed_pairIPNS_10__function6__funcIZN5dgrad6TensorC1ENS_6vectorIdNS_9allocatorIdEEEEEUlvE_NS6_IS9_EEFvvEEENS_22__allocator_destructorINS6_ISC_EEEEE5firstB8ue170006Ev, symObjAddr: 0x5170, symBinAddr: 0x10000EE84, symSize: 0x24 }
  - { offsetInCU: 0x2327E, offset: 0x383ED, size: 0x8, addend: 0x0, symName: __ZNSt3__122__compressed_pair_elemIPNS_10__function6__funcIZN5dgrad6TensorC1ENS_6vectorIdNS_9allocatorIdEEEEEUlvE_NS6_IS9_EEFvvEEELi0ELb0EE5__getB8ue170006Ev, symObjAddr: 0x5194, symBinAddr: 0x10000EEA8, symSize: 0x14 }
  - { offsetInCU: 0x232A4, offset: 0x38413, size: 0x8, addend: 0x0, symName: __ZNSt3__110unique_ptrINS_10__function6__funcIZN5dgrad6TensorC1ENS_6vectorIdNS_9allocatorIdEEEEEUlvE_NS6_IS9_EEFvvEEENS_22__allocator_destructorINS6_ISC_EEEEED2B8ue170006Ev, symObjAddr: 0x51A8, symBinAddr: 0x10000EEBC, symSize: 0x30 }
  - { offsetInCU: 0x232CE, offset: 0x3843D, size: 0x8, addend: 0x0, symName: __ZNSt3__110unique_ptrINS_10__function6__funcIZN5dgrad6TensorC1ENS_6vectorIdNS_9allocatorIdEEEEEUlvE_NS6_IS9_EEFvvEEENS_22__allocator_destructorINS6_ISC_EEEEE5resetB8ue170006EPSC_, symObjAddr: 0x51D8, symBinAddr: 0x10000EEEC, symSize: 0x78 }
  - { offsetInCU: 0x23312, offset: 0x38481, size: 0x8, addend: 0x0, symName: __ZNSt3__117__compressed_pairIPNS_10__function6__funcIZN5dgrad6TensorC1ENS_6vectorIdNS_9allocatorIdEEEEEUlvE_NS6_IS9_EEFvvEEENS_22__allocator_destructorINS6_ISC_EEEEE6secondB8ue170006Ev, symObjAddr: 0x5250, symBinAddr: 0x10000EF64, symSize: 0x28 }
  - { offsetInCU: 0x23338, offset: 0x384A7, size: 0x8, addend: 0x0, symName: __ZNSt3__122__allocator_destructorINS_9allocatorINS_10__function6__funcIZN5dgrad6TensorC1ENS_6vectorIdNS1_IdEEEEEUlvE_NS1_IS9_EEFvvEEEEEEclB8ue170006EPSC_, symObjAddr: 0x5278, symBinAddr: 0x10000EF8C, symSize: 0x34 }
  - { offsetInCU: 0x2336C, offset: 0x384DB, size: 0x8, addend: 0x0, symName: __ZNSt3__122__compressed_pair_elemINS_22__allocator_destructorINS_9allocatorINS_10__function6__funcIZN5dgrad6TensorC1ENS_6vectorIdNS2_IdEEEEEUlvE_NS2_ISA_EEFvvEEEEEEELi1ELb0EE5__getB8ue170006Ev, symObjAddr: 0x52AC, symBinAddr: 0x10000EFC0, symSize: 0x14 }
  - { offsetInCU: 0x23392, offset: 0x38501, size: 0x8, addend: 0x0, symName: __ZNSt3__116allocator_traitsINS_9allocatorINS_10__function6__funcIZN5dgrad6TensorC1ENS_6vectorIdNS1_IdEEEEEUlvE_NS1_IS9_EEFvvEEEEEE10deallocateB8ue170006ERSD_PSC_m, symObjAddr: 0x52C0, symBinAddr: 0x10000EFD4, symSize: 0x34 }
  - { offsetInCU: 0x233D4, offset: 0x38543, size: 0x8, addend: 0x0, symName: __ZNSt3__19allocatorINS_10__function6__funcIZN5dgrad6TensorC1ENS_6vectorIdNS0_IdEEEEEUlvE_NS0_IS8_EEFvvEEEE10deallocateB8ue170006EPSB_m, symObjAddr: 0x52F4, symBinAddr: 0x10000F008, symSize: 0x40 }
  - { offsetInCU: 0x23416, offset: 0x38585, size: 0x8, addend: 0x0, symName: __ZNSt3__110__function6__funcIZN5dgrad6TensorC1ENS_6vectorIdNS_9allocatorIdEEEEEUlvE_NS5_IS8_EEFvvEEC1B8ue170006ERKS8_RKS9_, symObjAddr: 0x5334, symBinAddr: 0x10000F048, symSize: 0x3C }
  - { offsetInCU: 0x2345E, offset: 0x385CD, size: 0x8, addend: 0x0, symName: __ZNSt3__110__function6__funcIZN5dgrad6TensorC1ENS_6vectorIdNS_9allocatorIdEEEEEUlvE_NS5_IS8_EEFvvEEC2B8ue170006ERKS8_RKS9_, symObjAddr: 0x5370, symBinAddr: 0x10000F084, symSize: 0x88 }
  - { offsetInCU: 0x234A6, offset: 0x38615, size: 0x8, addend: 0x0, symName: __ZNSt3__110__function12__alloc_funcIZN5dgrad6TensorC1ENS_6vectorIdNS_9allocatorIdEEEEEUlvE_NS5_IS8_EEFvvEEC1B8ue170006ERKS8_RKS9_, symObjAddr: 0x53F8, symBinAddr: 0x10000F10C, symSize: 0x3C }
  - { offsetInCU: 0x234EC, offset: 0x3865B, size: 0x8, addend: 0x0, symName: __ZNSt3__110__function12__alloc_funcIZN5dgrad6TensorC1ENS_6vectorIdNS_9allocatorIdEEEEEUlvE_NS5_IS8_EEFvvEEC2B8ue170006ERKS8_RKS9_, symObjAddr: 0x5434, symBinAddr: 0x10000F148, symSize: 0x5C }
  - { offsetInCU: 0x23532, offset: 0x386A1, size: 0x8, addend: 0x0, symName: __ZNSt3__117__compressed_pairIZN5dgrad6TensorC1ENS_6vectorIdNS_9allocatorIdEEEEEUlvE_NS4_IS7_EEEC1B8ue170006IJRKS7_EJRKS8_EEENS_21piecewise_construct_tENS_5tupleIJDpT_EEENSG_IJDpT0_EEE, symObjAddr: 0x54BC, symBinAddr: 0x10000F1D0, symSize: 0x3C }
  - { offsetInCU: 0x2359C, offset: 0x3870B, size: 0x8, addend: 0x0, symName: __ZNSt3__15tupleIJRKNS_9allocatorIZN5dgrad6TensorC1ENS_6vectorIdNS1_IdEEEEEUlvE_EEEEC1B8ue170006INS_4_AndELi0EEESA_, symObjAddr: 0x54F8, symBinAddr: 0x10000F20C, symSize: 0x34 }
  - { offsetInCU: 0x235E4, offset: 0x38753, size: 0x8, addend: 0x0, symName: __ZNSt3__15tupleIJRKNS_9allocatorIZN5dgrad6TensorC1ENS_6vectorIdNS1_IdEEEEEUlvE_EEEEC2B8ue170006INS_4_AndELi0EEESA_, symObjAddr: 0x552C, symBinAddr: 0x10000F240, symSize: 0x34 }
  - { offsetInCU: 0x2362C, offset: 0x3879B, size: 0x8, addend: 0x0, symName: __ZNSt3__112__tuple_implINS_15__tuple_indicesIJLm0EEEEJRKNS_9allocatorIZN5dgrad6TensorC1ENS_6vectorIdNS3_IdEEEEEUlvE_EEEEC1B8ue170006IJLm0EEJSC_EJEJEJSC_EEENS1_IJXspT_EEEENS_13__tuple_typesIJDpT0_EEENS1_IJXspT1_EEEENSG_IJDpT2_EEEDpOT3_, symObjAddr: 0x5560, symBinAddr: 0x10000F274, symSize: 0x34 }
  - { offsetInCU: 0x236BD, offset: 0x3882C, size: 0x8, addend: 0x0, symName: __ZNSt3__112__tuple_implINS_15__tuple_indicesIJLm0EEEEJRKNS_9allocatorIZN5dgrad6TensorC1ENS_6vectorIdNS3_IdEEEEEUlvE_EEEEC2B8ue170006IJLm0EEJSC_EJEJEJSC_EEENS1_IJXspT_EEEENS_13__tuple_typesIJDpT0_EEENS1_IJXspT1_EEEENSG_IJDpT2_EEEDpOT3_, symObjAddr: 0x5594, symBinAddr: 0x10000F2A8, symSize: 0x34 }
  - { offsetInCU: 0x2374E, offset: 0x388BD, size: 0x8, addend: 0x0, symName: __ZNSt3__112__tuple_leafILm0ERKNS_9allocatorIZN5dgrad6TensorC1ENS_6vectorIdNS1_IdEEEEEUlvE_EELb0EEC2B8ue170006ISA_vEEOT_, symObjAddr: 0x55C8, symBinAddr: 0x10000F2DC, symSize: 0x20 }
  - { offsetInCU: 0x23791, offset: 0x38900, size: 0x8, addend: 0x0, symName: __ZNSt3__117__compressed_pairIZN5dgrad6TensorC1ENS_6vectorIdNS_9allocatorIdEEEEEUlvE_NS4_IS7_EEEC2B8ue170006IJRKS7_EJRKS8_EEENS_21piecewise_construct_tENS_5tupleIJDpT_EEENSG_IJDpT0_EEE, symObjAddr: 0x55E8, symBinAddr: 0x10000F2FC, symSize: 0x54 }
  - { offsetInCU: 0x237FB, offset: 0x3896A, size: 0x8, addend: 0x0, symName: __ZNSt3__122__compressed_pair_elemINS_9allocatorIZN5dgrad6TensorC1ENS_6vectorIdNS1_IdEEEEEUlvE_EELi1ELb1EEC2B8ue170006IJRKS8_EJLm0EEEENS_21piecewise_construct_tENS_5tupleIJDpT_EEENS_15__tuple_indicesIJXspT0_EEEE, symObjAddr: 0x563C, symBinAddr: 0x10000F350, symSize: 0x38 }
  - { offsetInCU: 0x2385E, offset: 0x389CD, size: 0x8, addend: 0x0, symName: __ZNSt3__112__tuple_leafILm0ERKNS_9allocatorIZN5dgrad6TensorC1ENS_6vectorIdNS1_IdEEEEEUlvE_EELb0EE3getB8ue170006Ev, symObjAddr: 0x5698, symBinAddr: 0x10000F3AC, symSize: 0x18 }
  - { offsetInCU: 0x23884, offset: 0x389F3, size: 0x8, addend: 0x0, symName: __ZNSt3__110__function12__alloc_funcIZN5dgrad6TensorC1ENS_6vectorIdNS_9allocatorIdEEEEEUlvE_NS5_IS8_EEFvvEE7destroyB8ue170006Ev, symObjAddr: 0x56B0, symBinAddr: 0x10000F3C4, symSize: 0x10 }
  - { offsetInCU: 0x238AA, offset: 0x38A19, size: 0x8, addend: 0x0, symName: __ZNSt3__110__function12__alloc_funcIZN5dgrad6TensorC1ENS_6vectorIdNS_9allocatorIdEEEEEUlvE_NS5_IS8_EEFvvEEclB8ue170006Ev, symObjAddr: 0x56C0, symBinAddr: 0x10000F3D4, symSize: 0x28 }
  - { offsetInCU: 0x238D0, offset: 0x38A3F, size: 0x8, addend: 0x0, symName: __ZNSt3__128__invoke_void_return_wrapperIvLb1EE6__callB8ue170006IJRZN5dgrad6TensorC1ENS_6vectorIdNS_9allocatorIdEEEEEUlvE_EEEvDpOT_, symObjAddr: 0x56E8, symBinAddr: 0x10000F3FC, symSize: 0x24 }
  - { offsetInCU: 0x238FF, offset: 0x38A6E, size: 0x8, addend: 0x0, symName: __ZNSt3__117__compressed_pairIZN5dgrad6TensorC1ENS_6vectorIdNS_9allocatorIdEEEEEUlvE_NS4_IS7_EEE5firstB8ue170006Ev, symObjAddr: 0x570C, symBinAddr: 0x10000F420, symSize: 0x24 }
  - { offsetInCU: 0x2392A, offset: 0x38A99, size: 0x8, addend: 0x0, symName: __ZZN5dgrad6TensorC1ENSt3__16vectorIdNS1_9allocatorIdEEEEENKUlvE_clEv, symObjAddr: 0x5754, symBinAddr: 0x10000F468, symSize: 0x7C }
  - { offsetInCU: 0x23970, offset: 0x38ADF, size: 0x8, addend: 0x0, symName: __ZNSt3__122__compressed_pair_elemIZN5dgrad6TensorC1ENS_6vectorIdNS_9allocatorIdEEEEEUlvE_Li0ELb0EE5__getB8ue170006Ev, symObjAddr: 0x57D0, symBinAddr: 0x10000F4E4, symSize: 0x14 }
  - { offsetInCU: 0x23996, offset: 0x38B05, size: 0x8, addend: 0x0, symName: __ZNSt3__18functionIFvvEEC2IZN5dgrad6TensorC1ENS_6vectorIdNS_9allocatorIdEEEEEUlvE0_vEET_, symObjAddr: 0x58E0, symBinAddr: 0x10000F4F8, symSize: 0x30 }
  - { offsetInCU: 0x239DB, offset: 0x38B4A, size: 0x8, addend: 0x0, symName: __ZNSt3__110__function12__value_funcIFvvEEC1B8ue170006IZN5dgrad6TensorC1ENS_6vectorIdNS_9allocatorIdEEEEEUlvE0_vEEOT_, symObjAddr: 0x5910, symBinAddr: 0x10000F528, symSize: 0x50 }
  - { offsetInCU: 0x23A1E, offset: 0x38B8D, size: 0x8, addend: 0x0, symName: __ZNSt3__19allocatorIZN5dgrad6TensorC1ENS_6vectorIdNS0_IdEEEEEUlvE0_EC1B8ue170006Ev, symObjAddr: 0x5960, symBinAddr: 0x10000F578, symSize: 0x2C }
  - { offsetInCU: 0x23A48, offset: 0x38BB7, size: 0x8, addend: 0x0, symName: __ZNSt3__110__function12__value_funcIFvvEEC1B8ue170006IZN5dgrad6TensorC1ENS_6vectorIdNS_9allocatorIdEEEEEUlvE0_NS8_ISB_EEEEOT_RKT0_, symObjAddr: 0x598C, symBinAddr: 0x10000F5A4, symSize: 0x3C }
  - { offsetInCU: 0x23AA2, offset: 0x38C11, size: 0x8, addend: 0x0, symName: __ZNSt3__19allocatorIZN5dgrad6TensorC1ENS_6vectorIdNS0_IdEEEEEUlvE0_EC2B8ue170006Ev, symObjAddr: 0x59C8, symBinAddr: 0x10000F5E0, symSize: 0x2C }
  - { offsetInCU: 0x23ACC, offset: 0x38C3B, size: 0x8, addend: 0x0, symName: __ZNSt3__116__non_trivial_ifILb1ENS_9allocatorIZN5dgrad6TensorC1ENS_6vectorIdNS1_IdEEEEEUlvE0_EEEC2B8ue170006Ev, symObjAddr: 0x59F4, symBinAddr: 0x10000F60C, symSize: 0x14 }
  - { offsetInCU: 0x23AF6, offset: 0x38C65, size: 0x8, addend: 0x0, symName: __ZNSt3__110__function12__value_funcIFvvEEC2B8ue170006IZN5dgrad6TensorC1ENS_6vectorIdNS_9allocatorIdEEEEEUlvE0_NS8_ISB_EEEEOT_RKT0_, symObjAddr: 0x5A08, symBinAddr: 0x10000F620, symSize: 0x94 }
  - { offsetInCU: 0x23B9C, offset: 0x38D0B, size: 0x8, addend: 0x0, symName: __ZNSt3__19allocatorINS_10__function6__funcIZN5dgrad6TensorC1ENS_6vectorIdNS0_IdEEEEEUlvE0_NS0_IS8_EEFvvEEEEC1B8ue170006IS8_EERKNS0_IT_EE, symObjAddr: 0x5AB4, symBinAddr: 0x10000F6CC, symSize: 0x34 }
  - { offsetInCU: 0x23BDE, offset: 0x38D4D, size: 0x8, addend: 0x0, symName: __ZNSt3__19allocatorIZN5dgrad6TensorC1ENS_6vectorIdNS0_IdEEEEEUlvE0_EC1B8ue170006INS_10__function6__funcIS6_S7_FvvEEEEERKNS0_IT_EE, symObjAddr: 0x5AE8, symBinAddr: 0x10000F700, symSize: 0x34 }
  - { offsetInCU: 0x23C1B, offset: 0x38D8A, size: 0x8, addend: 0x0, symName: __ZNSt3__110__function6__funcIZN5dgrad6TensorC1ENS_6vectorIdNS_9allocatorIdEEEEEUlvE0_NS5_IS8_EEFvvEEC1B8ue170006EOS8_OS9_, symObjAddr: 0x5B1C, symBinAddr: 0x10000F734, symSize: 0x3C }
  - { offsetInCU: 0x23C63, offset: 0x38DD2, size: 0x8, addend: 0x0, symName: __ZNSt3__19allocatorINS_10__function6__funcIZN5dgrad6TensorC1ENS_6vectorIdNS0_IdEEEEEUlvE0_NS0_IS8_EEFvvEEEEC2B8ue170006IS8_EERKNS0_IT_EE, symObjAddr: 0x5B58, symBinAddr: 0x10000F770, symSize: 0x30 }
  - { offsetInCU: 0x23CA0, offset: 0x38E0F, size: 0x8, addend: 0x0, symName: __ZNSt3__116__non_trivial_ifILb1ENS_9allocatorINS_10__function6__funcIZN5dgrad6TensorC1ENS_6vectorIdNS1_IdEEEEEUlvE0_NS1_IS9_EEFvvEEEEEEC2B8ue170006Ev, symObjAddr: 0x5B88, symBinAddr: 0x10000F7A0, symSize: 0x14 }
  - { offsetInCU: 0x23CCA, offset: 0x38E39, size: 0x8, addend: 0x0, symName: __ZNSt3__19allocatorIZN5dgrad6TensorC1ENS_6vectorIdNS0_IdEEEEEUlvE0_EC2B8ue170006INS_10__function6__funcIS6_S7_FvvEEEEERKNS0_IT_EE, symObjAddr: 0x5B9C, symBinAddr: 0x10000F7B4, symSize: 0x30 }
  - { offsetInCU: 0x23D07, offset: 0x38E76, size: 0x8, addend: 0x0, symName: __ZNSt3__110__function6__funcIZN5dgrad6TensorC1ENS_6vectorIdNS_9allocatorIdEEEEEUlvE0_NS5_IS8_EEFvvEEC2B8ue170006EOS8_OS9_, symObjAddr: 0x5BCC, symBinAddr: 0x10000F7E4, symSize: 0x88 }
  - { offsetInCU: 0x23D4F, offset: 0x38EBE, size: 0x8, addend: 0x0, symName: __ZNSt3__110__function12__alloc_funcIZN5dgrad6TensorC1ENS_6vectorIdNS_9allocatorIdEEEEEUlvE0_NS5_IS8_EEFvvEEC1B8ue170006EOS8_OS9_, symObjAddr: 0x5C54, symBinAddr: 0x10000F86C, symSize: 0x3C }
  - { offsetInCU: 0x23D95, offset: 0x38F04, size: 0x8, addend: 0x0, symName: __ZNSt3__110__function6__funcIZN5dgrad6TensorC1ENS_6vectorIdNS_9allocatorIdEEEEEUlvE0_NS5_IS8_EEFvvEED1Ev, symObjAddr: 0x5C90, symBinAddr: 0x10000F8A8, symSize: 0x2C }
  - { offsetInCU: 0x23DC2, offset: 0x38F31, size: 0x8, addend: 0x0, symName: __ZNSt3__110__function6__funcIZN5dgrad6TensorC1ENS_6vectorIdNS_9allocatorIdEEEEEUlvE0_NS5_IS8_EEFvvEED0Ev, symObjAddr: 0x5CBC, symBinAddr: 0x10000F8D4, symSize: 0x30 }
  - { offsetInCU: 0x23DEF, offset: 0x38F5E, size: 0x8, addend: 0x0, symName: __ZNKSt3__110__function6__funcIZN5dgrad6TensorC1ENS_6vectorIdNS_9allocatorIdEEEEEUlvE0_NS5_IS8_EEFvvEE7__cloneEv, symObjAddr: 0x5CEC, symBinAddr: 0x10000F904, symSize: 0xFC }
  - { offsetInCU: 0x23E41, offset: 0x38FB0, size: 0x8, addend: 0x0, symName: __ZNKSt3__110__function6__funcIZN5dgrad6TensorC1ENS_6vectorIdNS_9allocatorIdEEEEEUlvE0_NS5_IS8_EEFvvEE7__cloneEPNS0_6__baseISA_EE, symObjAddr: 0x5DE8, symBinAddr: 0x10000FA00, symSize: 0x58 }
  - { offsetInCU: 0x23E78, offset: 0x38FE7, size: 0x8, addend: 0x0, symName: __ZNSt3__110__function6__funcIZN5dgrad6TensorC1ENS_6vectorIdNS_9allocatorIdEEEEEUlvE0_NS5_IS8_EEFvvEE7destroyEv, symObjAddr: 0x5E40, symBinAddr: 0x10000FA58, symSize: 0x28 }
  - { offsetInCU: 0x23EA0, offset: 0x3900F, size: 0x8, addend: 0x0, symName: __ZNSt3__110__function6__funcIZN5dgrad6TensorC1ENS_6vectorIdNS_9allocatorIdEEEEEUlvE0_NS5_IS8_EEFvvEE18destroy_deallocateEv, symObjAddr: 0x5E68, symBinAddr: 0x10000FA80, symSize: 0x58 }
  - { offsetInCU: 0x23EE3, offset: 0x39052, size: 0x8, addend: 0x0, symName: __ZNSt3__110__function6__funcIZN5dgrad6TensorC1ENS_6vectorIdNS_9allocatorIdEEEEEUlvE0_NS5_IS8_EEFvvEEclEv, symObjAddr: 0x5EC0, symBinAddr: 0x10000FAD8, symSize: 0x28 }
  - { offsetInCU: 0x23F0B, offset: 0x3907A, size: 0x8, addend: 0x0, symName: __ZNKSt3__110__function6__funcIZN5dgrad6TensorC1ENS_6vectorIdNS_9allocatorIdEEEEEUlvE0_NS5_IS8_EEFvvEE6targetERKSt9type_info, symObjAddr: 0x5EE8, symBinAddr: 0x10000FB00, symSize: 0x60 }
  - { offsetInCU: 0x23F42, offset: 0x390B1, size: 0x8, addend: 0x0, symName: __ZNKSt3__110__function6__funcIZN5dgrad6TensorC1ENS_6vectorIdNS_9allocatorIdEEEEEUlvE0_NS5_IS8_EEFvvEE11target_typeEv, symObjAddr: 0x5F48, symBinAddr: 0x10000FB60, symSize: 0x18 }
  - { offsetInCU: 0x23F6A, offset: 0x390D9, size: 0x8, addend: 0x0, symName: __ZNSt3__110__function12__alloc_funcIZN5dgrad6TensorC1ENS_6vectorIdNS_9allocatorIdEEEEEUlvE0_NS5_IS8_EEFvvEEC2B8ue170006EOS8_OS9_, symObjAddr: 0x5F60, symBinAddr: 0x10000FB78, symSize: 0x5C }
  - { offsetInCU: 0x23FB0, offset: 0x3911F, size: 0x8, addend: 0x0, symName: __ZNSt3__117__compressed_pairIZN5dgrad6TensorC1ENS_6vectorIdNS_9allocatorIdEEEEEUlvE0_NS4_IS7_EEEC1B8ue170006IJOS7_EJOS8_EEENS_21piecewise_construct_tENS_5tupleIJDpT_EEENSE_IJDpT0_EEE, symObjAddr: 0x6014, symBinAddr: 0x10000FC2C, symSize: 0x3C }
  - { offsetInCU: 0x2401A, offset: 0x39189, size: 0x8, addend: 0x0, symName: __ZNSt3__15tupleIJOZN5dgrad6TensorC1ENS_6vectorIdNS_9allocatorIdEEEEEUlvE0_EEC1B8ue170006IJS7_ELi0EEEDpOT_, symObjAddr: 0x6050, symBinAddr: 0x10000FC68, symSize: 0x34 }
  - { offsetInCU: 0x24064, offset: 0x391D3, size: 0x8, addend: 0x0, symName: __ZNSt3__15tupleIJOZN5dgrad6TensorC1ENS_6vectorIdNS_9allocatorIdEEEEEUlvE0_EEC2B8ue170006IJS7_ELi0EEEDpOT_, symObjAddr: 0x6084, symBinAddr: 0x10000FC9C, symSize: 0x34 }
  - { offsetInCU: 0x240AE, offset: 0x3921D, size: 0x8, addend: 0x0, symName: __ZNSt3__112__tuple_implINS_15__tuple_indicesIJLm0EEEEJOZN5dgrad6TensorC1ENS_6vectorIdNS_9allocatorIdEEEEEUlvE0_EEC1B8ue170006IJLm0EEJSA_EJEJEJS9_EEENS1_IJXspT_EEEENS_13__tuple_typesIJDpT0_EEENS1_IJXspT1_EEEENSE_IJDpT2_EEEDpOT3_, symObjAddr: 0x60B8, symBinAddr: 0x10000FCD0, symSize: 0x34 }
  - { offsetInCU: 0x2413F, offset: 0x392AE, size: 0x8, addend: 0x0, symName: __ZNSt3__112__tuple_implINS_15__tuple_indicesIJLm0EEEEJOZN5dgrad6TensorC1ENS_6vectorIdNS_9allocatorIdEEEEEUlvE0_EEC2B8ue170006IJLm0EEJSA_EJEJEJS9_EEENS1_IJXspT_EEEENS_13__tuple_typesIJDpT0_EEENS1_IJXspT1_EEEENSE_IJDpT2_EEEDpOT3_, symObjAddr: 0x60EC, symBinAddr: 0x10000FD04, symSize: 0x34 }
  - { offsetInCU: 0x241D0, offset: 0x3933F, size: 0x8, addend: 0x0, symName: __ZNSt3__112__tuple_leafILm0EOZN5dgrad6TensorC1ENS_6vectorIdNS_9allocatorIdEEEEEUlvE0_Lb0EEC2B8ue170006IS7_vEEOT_, symObjAddr: 0x6120, symBinAddr: 0x10000FD38, symSize: 0x20 }
  - { offsetInCU: 0x24213, offset: 0x39382, size: 0x8, addend: 0x0, symName: __ZNSt3__15tupleIJONS_9allocatorIZN5dgrad6TensorC1ENS_6vectorIdNS1_IdEEEEEUlvE0_EEEEC1B8ue170006IJS8_ELi0EEEDpOT_, symObjAddr: 0x6140, symBinAddr: 0x10000FD58, symSize: 0x34 }
  - { offsetInCU: 0x2425D, offset: 0x393CC, size: 0x8, addend: 0x0, symName: __ZNSt3__15tupleIJONS_9allocatorIZN5dgrad6TensorC1ENS_6vectorIdNS1_IdEEEEEUlvE0_EEEEC2B8ue170006IJS8_ELi0EEEDpOT_, symObjAddr: 0x6174, symBinAddr: 0x10000FD8C, symSize: 0x34 }
  - { offsetInCU: 0x242A7, offset: 0x39416, size: 0x8, addend: 0x0, symName: __ZNSt3__112__tuple_implINS_15__tuple_indicesIJLm0EEEEJONS_9allocatorIZN5dgrad6TensorC1ENS_6vectorIdNS3_IdEEEEEUlvE0_EEEEC1B8ue170006IJLm0EEJSB_EJEJEJSA_EEENS1_IJXspT_EEEENS_13__tuple_typesIJDpT0_EEENS1_IJXspT1_EEEENSF_IJDpT2_EEEDpOT3_, symObjAddr: 0x61A8, symBinAddr: 0x10000FDC0, symSize: 0x34 }
  - { offsetInCU: 0x24338, offset: 0x394A7, size: 0x8, addend: 0x0, symName: __ZNSt3__112__tuple_implINS_15__tuple_indicesIJLm0EEEEJONS_9allocatorIZN5dgrad6TensorC1ENS_6vectorIdNS3_IdEEEEEUlvE0_EEEEC2B8ue170006IJLm0EEJSB_EJEJEJSA_EEENS1_IJXspT_EEEENS_13__tuple_typesIJDpT0_EEENS1_IJXspT1_EEEENSF_IJDpT2_EEEDpOT3_, symObjAddr: 0x61DC, symBinAddr: 0x10000FDF4, symSize: 0x34 }
  - { offsetInCU: 0x243C9, offset: 0x39538, size: 0x8, addend: 0x0, symName: __ZNSt3__112__tuple_leafILm0EONS_9allocatorIZN5dgrad6TensorC1ENS_6vectorIdNS1_IdEEEEEUlvE0_EELb0EEC2B8ue170006IS8_vEEOT_, symObjAddr: 0x6210, symBinAddr: 0x10000FE28, symSize: 0x20 }
  - { offsetInCU: 0x2440C, offset: 0x3957B, size: 0x8, addend: 0x0, symName: __ZNSt3__117__compressed_pairIZN5dgrad6TensorC1ENS_6vectorIdNS_9allocatorIdEEEEEUlvE0_NS4_IS7_EEEC2B8ue170006IJOS7_EJOS8_EEENS_21piecewise_construct_tENS_5tupleIJDpT_EEENSE_IJDpT0_EEE, symObjAddr: 0x6230, symBinAddr: 0x10000FE48, symSize: 0x54 }
  - { offsetInCU: 0x24476, offset: 0x395E5, size: 0x8, addend: 0x0, symName: __ZNSt3__122__compressed_pair_elemIZN5dgrad6TensorC1ENS_6vectorIdNS_9allocatorIdEEEEEUlvE0_Li0ELb1EEC2B8ue170006IJOS7_EJLm0EEEENS_21piecewise_construct_tENS_5tupleIJDpT_EEENS_15__tuple_indicesIJXspT0_EEEE, symObjAddr: 0x6284, symBinAddr: 0x10000FE9C, symSize: 0x38 }
  - { offsetInCU: 0x244D9, offset: 0x39648, size: 0x8, addend: 0x0, symName: __ZNSt3__122__compressed_pair_elemINS_9allocatorIZN5dgrad6TensorC1ENS_6vectorIdNS1_IdEEEEEUlvE0_EELi1ELb1EEC2B8ue170006IJOS8_EJLm0EEEENS_21piecewise_construct_tENS_5tupleIJDpT_EEENS_15__tuple_indicesIJXspT0_EEEE, symObjAddr: 0x62BC, symBinAddr: 0x10000FED4, symSize: 0x38 }
  - { offsetInCU: 0x2453C, offset: 0x396AB, size: 0x8, addend: 0x0, symName: __ZNSt3__112__tuple_leafILm0EOZN5dgrad6TensorC1ENS_6vectorIdNS_9allocatorIdEEEEEUlvE0_Lb0EE3getB8ue170006Ev, symObjAddr: 0x6318, symBinAddr: 0x10000FF30, symSize: 0x18 }
  - { offsetInCU: 0x24562, offset: 0x396D1, size: 0x8, addend: 0x0, symName: __ZNSt3__112__tuple_leafILm0EONS_9allocatorIZN5dgrad6TensorC1ENS_6vectorIdNS1_IdEEEEEUlvE0_EELb0EE3getB8ue170006Ev, symObjAddr: 0x6354, symBinAddr: 0x10000FF6C, symSize: 0x18 }
  - { offsetInCU: 0x24588, offset: 0x396F7, size: 0x8, addend: 0x0, symName: __ZNSt3__110__function6__funcIZN5dgrad6TensorC1ENS_6vectorIdNS_9allocatorIdEEEEEUlvE0_NS5_IS8_EEFvvEED2Ev, symObjAddr: 0x636C, symBinAddr: 0x10000FF84, symSize: 0x2C }
  - { offsetInCU: 0x245B5, offset: 0x39724, size: 0x8, addend: 0x0, symName: __ZNKSt3__110__function12__alloc_funcIZN5dgrad6TensorC1ENS_6vectorIdNS_9allocatorIdEEEEEUlvE0_NS5_IS8_EEFvvEE15__get_allocatorB8ue170006Ev, symObjAddr: 0x6398, symBinAddr: 0x10000FFB0, symSize: 0x24 }
  - { offsetInCU: 0x245DB, offset: 0x3974A, size: 0x8, addend: 0x0, symName: __ZNSt3__19allocatorINS_10__function6__funcIZN5dgrad6TensorC1ENS_6vectorIdNS0_IdEEEEEUlvE0_NS0_IS8_EEFvvEEEE8allocateB8ue170006Em, symObjAddr: 0x63BC, symBinAddr: 0x10000FFD4, symSize: 0x58 }
  - { offsetInCU: 0x2461E, offset: 0x3978D, size: 0x8, addend: 0x0, symName: __ZNSt3__122__allocator_destructorINS_9allocatorINS_10__function6__funcIZN5dgrad6TensorC1ENS_6vectorIdNS1_IdEEEEEUlvE0_NS1_IS9_EEFvvEEEEEEC1B8ue170006ERSD_m, symObjAddr: 0x6414, symBinAddr: 0x10001002C, symSize: 0x3C }
  - { offsetInCU: 0x246F2, offset: 0x39861, size: 0x8, addend: 0x0, symName: __ZNSt3__110unique_ptrINS_10__function6__funcIZN5dgrad6TensorC1ENS_6vectorIdNS_9allocatorIdEEEEEUlvE0_NS6_IS9_EEFvvEEENS_22__allocator_destructorINS6_ISC_EEEEEC1B8ue170006ILb1EvEEPSC_NS_16__dependent_typeINS_27__unique_ptr_deleter_sfinaeISF_EEXT_EE20__good_rval_ref_typeE, symObjAddr: 0x6450, symBinAddr: 0x100010068, symSize: 0x3C }
  - { offsetInCU: 0x24743, offset: 0x398B2, size: 0x8, addend: 0x0, symName: __ZNKSt3__110unique_ptrINS_10__function6__funcIZN5dgrad6TensorC1ENS_6vectorIdNS_9allocatorIdEEEEEUlvE0_NS6_IS9_EEFvvEEENS_22__allocator_destructorINS6_ISC_EEEEE3getB8ue170006Ev, symObjAddr: 0x648C, symBinAddr: 0x1000100A4, symSize: 0x28 }
  - { offsetInCU: 0x24769, offset: 0x398D8, size: 0x8, addend: 0x0, symName: __ZNKSt3__110__function12__alloc_funcIZN5dgrad6TensorC1ENS_6vectorIdNS_9allocatorIdEEEEEUlvE0_NS5_IS8_EEFvvEE8__targetB8ue170006Ev, symObjAddr: 0x64B4, symBinAddr: 0x1000100CC, symSize: 0x24 }
  - { offsetInCU: 0x2478F, offset: 0x398FE, size: 0x8, addend: 0x0, symName: __ZNSt3__110__function6__funcIZN5dgrad6TensorC1ENS_6vectorIdNS_9allocatorIdEEEEEUlvE0_NS5_IS8_EEFvvEEC1B8ue170006ERKS8_OS9_, symObjAddr: 0x64D8, symBinAddr: 0x1000100F0, symSize: 0x3C }
  - { offsetInCU: 0x247D7, offset: 0x39946, size: 0x8, addend: 0x0, symName: __ZNSt3__110unique_ptrINS_10__function6__funcIZN5dgrad6TensorC1ENS_6vectorIdNS_9allocatorIdEEEEEUlvE0_NS6_IS9_EEFvvEEENS_22__allocator_destructorINS6_ISC_EEEEE7releaseB8ue170006Ev, symObjAddr: 0x6514, symBinAddr: 0x10001012C, symSize: 0x44 }
  - { offsetInCU: 0x2480C, offset: 0x3997B, size: 0x8, addend: 0x0, symName: __ZNSt3__110unique_ptrINS_10__function6__funcIZN5dgrad6TensorC1ENS_6vectorIdNS_9allocatorIdEEEEEUlvE0_NS6_IS9_EEFvvEEENS_22__allocator_destructorINS6_ISC_EEEEED1B8ue170006Ev, symObjAddr: 0x6558, symBinAddr: 0x100010170, symSize: 0x2C }
  - { offsetInCU: 0x24836, offset: 0x399A5, size: 0x8, addend: 0x0, symName: __ZNKSt3__117__compressed_pairIZN5dgrad6TensorC1ENS_6vectorIdNS_9allocatorIdEEEEEUlvE0_NS4_IS7_EEE6secondB8ue170006Ev, symObjAddr: 0x6584, symBinAddr: 0x10001019C, symSize: 0x24 }
  - { offsetInCU: 0x2485C, offset: 0x399CB, size: 0x8, addend: 0x0, symName: __ZNKSt3__122__compressed_pair_elemINS_9allocatorIZN5dgrad6TensorC1ENS_6vectorIdNS1_IdEEEEEUlvE0_EELi1ELb1EE5__getB8ue170006Ev, symObjAddr: 0x65A8, symBinAddr: 0x1000101C0, symSize: 0x14 }
  - { offsetInCU: 0x2488C, offset: 0x399FB, size: 0x8, addend: 0x0, symName: __ZNSt3__116allocator_traitsINS_9allocatorINS_10__function6__funcIZN5dgrad6TensorC1ENS_6vectorIdNS1_IdEEEEEUlvE0_NS1_IS9_EEFvvEEEEEE8max_sizeB8ue170006ISD_vEEmRKSD_, symObjAddr: 0x65BC, symBinAddr: 0x1000101D4, symSize: 0x24 }
  - { offsetInCU: 0x248BA, offset: 0x39A29, size: 0x8, addend: 0x0, symName: __ZNKSt3__19allocatorINS_10__function6__funcIZN5dgrad6TensorC1ENS_6vectorIdNS0_IdEEEEEUlvE0_NS0_IS8_EEFvvEEEE8max_sizeB8ue170006Ev, symObjAddr: 0x65E0, symBinAddr: 0x1000101F8, symSize: 0x14 }
  - { offsetInCU: 0x248E0, offset: 0x39A4F, size: 0x8, addend: 0x0, symName: __ZNSt3__122__allocator_destructorINS_9allocatorINS_10__function6__funcIZN5dgrad6TensorC1ENS_6vectorIdNS1_IdEEEEEUlvE0_NS1_IS9_EEFvvEEEEEEC2B8ue170006ERSD_m, symObjAddr: 0x65F4, symBinAddr: 0x10001020C, symSize: 0x2C }
  - { offsetInCU: 0x24926, offset: 0x39A95, size: 0x8, addend: 0x0, symName: __ZNSt3__110unique_ptrINS_10__function6__funcIZN5dgrad6TensorC1ENS_6vectorIdNS_9allocatorIdEEEEEUlvE0_NS6_IS9_EEFvvEEENS_22__allocator_destructorINS6_ISC_EEEEEC2B8ue170006ILb1EvEEPSC_NS_16__dependent_typeINS_27__unique_ptr_deleter_sfinaeISF_EEXT_EE20__good_rval_ref_typeE, symObjAddr: 0x6620, symBinAddr: 0x100010238, symSize: 0x48 }
  - { offsetInCU: 0x24977, offset: 0x39AE6, size: 0x8, addend: 0x0, symName: __ZNSt3__117__compressed_pairIPNS_10__function6__funcIZN5dgrad6TensorC1ENS_6vectorIdNS_9allocatorIdEEEEEUlvE0_NS6_IS9_EEFvvEEENS_22__allocator_destructorINS6_ISC_EEEEEC1B8ue170006IRSD_SG_EEOT_OT0_, symObjAddr: 0x6668, symBinAddr: 0x100010280, symSize: 0x3C }
  - { offsetInCU: 0x249CF, offset: 0x39B3E, size: 0x8, addend: 0x0, symName: __ZNSt3__117__compressed_pairIPNS_10__function6__funcIZN5dgrad6TensorC1ENS_6vectorIdNS_9allocatorIdEEEEEUlvE0_NS6_IS9_EEFvvEEENS_22__allocator_destructorINS6_ISC_EEEEEC2B8ue170006IRSD_SG_EEOT_OT0_, symObjAddr: 0x66A4, symBinAddr: 0x1000102BC, symSize: 0x48 }
  - { offsetInCU: 0x24A27, offset: 0x39B96, size: 0x8, addend: 0x0, symName: __ZNSt3__122__compressed_pair_elemIPNS_10__function6__funcIZN5dgrad6TensorC1ENS_6vectorIdNS_9allocatorIdEEEEEUlvE0_NS6_IS9_EEFvvEEELi0ELb0EEC2B8ue170006IRSD_vEEOT_, symObjAddr: 0x66EC, symBinAddr: 0x100010304, symSize: 0x24 }
  - { offsetInCU: 0x24A69, offset: 0x39BD8, size: 0x8, addend: 0x0, symName: __ZNSt3__122__compressed_pair_elemINS_22__allocator_destructorINS_9allocatorINS_10__function6__funcIZN5dgrad6TensorC1ENS_6vectorIdNS2_IdEEEEEUlvE0_NS2_ISA_EEFvvEEEEEEELi1ELb0EEC2B8ue170006ISF_vEEOT_, symObjAddr: 0x6710, symBinAddr: 0x100010328, symSize: 0x24 }
  - { offsetInCU: 0x24AAB, offset: 0x39C1A, size: 0x8, addend: 0x0, symName: __ZNKSt3__117__compressed_pairIPNS_10__function6__funcIZN5dgrad6TensorC1ENS_6vectorIdNS_9allocatorIdEEEEEUlvE0_NS6_IS9_EEFvvEEENS_22__allocator_destructorINS6_ISC_EEEEE5firstB8ue170006Ev, symObjAddr: 0x6734, symBinAddr: 0x10001034C, symSize: 0x24 }
  - { offsetInCU: 0x24AD1, offset: 0x39C40, size: 0x8, addend: 0x0, symName: __ZNKSt3__122__compressed_pair_elemIPNS_10__function6__funcIZN5dgrad6TensorC1ENS_6vectorIdNS_9allocatorIdEEEEEUlvE0_NS6_IS9_EEFvvEEELi0ELb0EE5__getB8ue170006Ev, symObjAddr: 0x6758, symBinAddr: 0x100010370, symSize: 0x14 }
  - { offsetInCU: 0x24AF7, offset: 0x39C66, size: 0x8, addend: 0x0, symName: __ZNKSt3__117__compressed_pairIZN5dgrad6TensorC1ENS_6vectorIdNS_9allocatorIdEEEEEUlvE0_NS4_IS7_EEE5firstB8ue170006Ev, symObjAddr: 0x676C, symBinAddr: 0x100010384, symSize: 0x24 }
  - { offsetInCU: 0x24B1D, offset: 0x39C8C, size: 0x8, addend: 0x0, symName: __ZNKSt3__122__compressed_pair_elemIZN5dgrad6TensorC1ENS_6vectorIdNS_9allocatorIdEEEEEUlvE0_Li0ELb1EE5__getB8ue170006Ev, symObjAddr: 0x6790, symBinAddr: 0x1000103A8, symSize: 0x14 }
  - { offsetInCU: 0x24B43, offset: 0x39CB2, size: 0x8, addend: 0x0, symName: __ZNSt3__110__function6__funcIZN5dgrad6TensorC1ENS_6vectorIdNS_9allocatorIdEEEEEUlvE0_NS5_IS8_EEFvvEEC2B8ue170006ERKS8_OS9_, symObjAddr: 0x67A4, symBinAddr: 0x1000103BC, symSize: 0x88 }
  - { offsetInCU: 0x24B8B, offset: 0x39CFA, size: 0x8, addend: 0x0, symName: __ZNSt3__110__function12__alloc_funcIZN5dgrad6TensorC1ENS_6vectorIdNS_9allocatorIdEEEEEUlvE0_NS5_IS8_EEFvvEEC1B8ue170006ERKS8_OS9_, symObjAddr: 0x682C, symBinAddr: 0x100010444, symSize: 0x3C }
  - { offsetInCU: 0x24BD1, offset: 0x39D40, size: 0x8, addend: 0x0, symName: __ZNSt3__110__function12__alloc_funcIZN5dgrad6TensorC1ENS_6vectorIdNS_9allocatorIdEEEEEUlvE0_NS5_IS8_EEFvvEEC2B8ue170006ERKS8_OS9_, symObjAddr: 0x6868, symBinAddr: 0x100010480, symSize: 0x5C }
  - { offsetInCU: 0x24C17, offset: 0x39D86, size: 0x8, addend: 0x0, symName: __ZNSt3__117__compressed_pairIZN5dgrad6TensorC1ENS_6vectorIdNS_9allocatorIdEEEEEUlvE0_NS4_IS7_EEEC1B8ue170006IJRKS7_EJOS8_EEENS_21piecewise_construct_tENS_5tupleIJDpT_EEENSF_IJDpT0_EEE, symObjAddr: 0x68F0, symBinAddr: 0x100010508, symSize: 0x3C }
  - { offsetInCU: 0x24C81, offset: 0x39DF0, size: 0x8, addend: 0x0, symName: __ZNSt3__15tupleIJRKZN5dgrad6TensorC1ENS_6vectorIdNS_9allocatorIdEEEEEUlvE0_EEC1B8ue170006INS_4_AndELi0EEES9_, symObjAddr: 0x692C, symBinAddr: 0x100010544, symSize: 0x34 }
  - { offsetInCU: 0x24CC9, offset: 0x39E38, size: 0x8, addend: 0x0, symName: __ZNSt3__15tupleIJRKZN5dgrad6TensorC1ENS_6vectorIdNS_9allocatorIdEEEEEUlvE0_EEC2B8ue170006INS_4_AndELi0EEES9_, symObjAddr: 0x6960, symBinAddr: 0x100010578, symSize: 0x34 }
  - { offsetInCU: 0x24D11, offset: 0x39E80, size: 0x8, addend: 0x0, symName: __ZNSt3__112__tuple_implINS_15__tuple_indicesIJLm0EEEEJRKZN5dgrad6TensorC1ENS_6vectorIdNS_9allocatorIdEEEEEUlvE0_EEC1B8ue170006IJLm0EEJSB_EJEJEJSB_EEENS1_IJXspT_EEEENS_13__tuple_typesIJDpT0_EEENS1_IJXspT1_EEEENSF_IJDpT2_EEEDpOT3_, symObjAddr: 0x6994, symBinAddr: 0x1000105AC, symSize: 0x34 }
  - { offsetInCU: 0x24DA2, offset: 0x39F11, size: 0x8, addend: 0x0, symName: __ZNSt3__112__tuple_implINS_15__tuple_indicesIJLm0EEEEJRKZN5dgrad6TensorC1ENS_6vectorIdNS_9allocatorIdEEEEEUlvE0_EEC2B8ue170006IJLm0EEJSB_EJEJEJSB_EEENS1_IJXspT_EEEENS_13__tuple_typesIJDpT0_EEENS1_IJXspT1_EEEENSF_IJDpT2_EEEDpOT3_, symObjAddr: 0x69C8, symBinAddr: 0x1000105E0, symSize: 0x34 }
  - { offsetInCU: 0x24E33, offset: 0x39FA2, size: 0x8, addend: 0x0, symName: __ZNSt3__112__tuple_leafILm0ERKZN5dgrad6TensorC1ENS_6vectorIdNS_9allocatorIdEEEEEUlvE0_Lb0EEC2B8ue170006IS9_vEEOT_, symObjAddr: 0x69FC, symBinAddr: 0x100010614, symSize: 0x20 }
  - { offsetInCU: 0x24E76, offset: 0x39FE5, size: 0x8, addend: 0x0, symName: __ZNSt3__117__compressed_pairIZN5dgrad6TensorC1ENS_6vectorIdNS_9allocatorIdEEEEEUlvE0_NS4_IS7_EEEC2B8ue170006IJRKS7_EJOS8_EEENS_21piecewise_construct_tENS_5tupleIJDpT_EEENSF_IJDpT0_EEE, symObjAddr: 0x6A1C, symBinAddr: 0x100010634, symSize: 0x54 }
  - { offsetInCU: 0x24EE0, offset: 0x3A04F, size: 0x8, addend: 0x0, symName: __ZNSt3__122__compressed_pair_elemIZN5dgrad6TensorC1ENS_6vectorIdNS_9allocatorIdEEEEEUlvE0_Li0ELb1EEC2B8ue170006IJRKS7_EJLm0EEEENS_21piecewise_construct_tENS_5tupleIJDpT_EEENS_15__tuple_indicesIJXspT0_EEEE, symObjAddr: 0x6A70, symBinAddr: 0x100010688, symSize: 0x38 }
  - { offsetInCU: 0x24F43, offset: 0x3A0B2, size: 0x8, addend: 0x0, symName: __ZNSt3__112__tuple_leafILm0ERKZN5dgrad6TensorC1ENS_6vectorIdNS_9allocatorIdEEEEEUlvE0_Lb0EE3getB8ue170006Ev, symObjAddr: 0x6ACC, symBinAddr: 0x1000106E4, symSize: 0x18 }
  - { offsetInCU: 0x24F69, offset: 0x3A0D8, size: 0x8, addend: 0x0, symName: __ZNSt3__117__compressed_pairIPNS_10__function6__funcIZN5dgrad6TensorC1ENS_6vectorIdNS_9allocatorIdEEEEEUlvE0_NS6_IS9_EEFvvEEENS_22__allocator_destructorINS6_ISC_EEEEE5firstB8ue170006Ev, symObjAddr: 0x6AE4, symBinAddr: 0x1000106FC, symSize: 0x24 }
  - { offsetInCU: 0x24F8F, offset: 0x3A0FE, size: 0x8, addend: 0x0, symName: __ZNSt3__122__compressed_pair_elemIPNS_10__function6__funcIZN5dgrad6TensorC1ENS_6vectorIdNS_9allocatorIdEEEEEUlvE0_NS6_IS9_EEFvvEEELi0ELb0EE5__getB8ue170006Ev, symObjAddr: 0x6B08, symBinAddr: 0x100010720, symSize: 0x14 }
  - { offsetInCU: 0x24FB5, offset: 0x3A124, size: 0x8, addend: 0x0, symName: __ZNSt3__110unique_ptrINS_10__function6__funcIZN5dgrad6TensorC1ENS_6vectorIdNS_9allocatorIdEEEEEUlvE0_NS6_IS9_EEFvvEEENS_22__allocator_destructorINS6_ISC_EEEEED2B8ue170006Ev, symObjAddr: 0x6B1C, symBinAddr: 0x100010734, symSize: 0x30 }
  - { offsetInCU: 0x24FDF, offset: 0x3A14E, size: 0x8, addend: 0x0, symName: __ZNSt3__110unique_ptrINS_10__function6__funcIZN5dgrad6TensorC1ENS_6vectorIdNS_9allocatorIdEEEEEUlvE0_NS6_IS9_EEFvvEEENS_22__allocator_destructorINS6_ISC_EEEEE5resetB8ue170006EPSC_, symObjAddr: 0x6B4C, symBinAddr: 0x100010764, symSize: 0x78 }
  - { offsetInCU: 0x25023, offset: 0x3A192, size: 0x8, addend: 0x0, symName: __ZNSt3__117__compressed_pairIPNS_10__function6__funcIZN5dgrad6TensorC1ENS_6vectorIdNS_9allocatorIdEEEEEUlvE0_NS6_IS9_EEFvvEEENS_22__allocator_destructorINS6_ISC_EEEEE6secondB8ue170006Ev, symObjAddr: 0x6BC4, symBinAddr: 0x1000107DC, symSize: 0x28 }
  - { offsetInCU: 0x25049, offset: 0x3A1B8, size: 0x8, addend: 0x0, symName: __ZNSt3__122__allocator_destructorINS_9allocatorINS_10__function6__funcIZN5dgrad6TensorC1ENS_6vectorIdNS1_IdEEEEEUlvE0_NS1_IS9_EEFvvEEEEEEclB8ue170006EPSC_, symObjAddr: 0x6BEC, symBinAddr: 0x100010804, symSize: 0x34 }
  - { offsetInCU: 0x2507D, offset: 0x3A1EC, size: 0x8, addend: 0x0, symName: __ZNSt3__122__compressed_pair_elemINS_22__allocator_destructorINS_9allocatorINS_10__function6__funcIZN5dgrad6TensorC1ENS_6vectorIdNS2_IdEEEEEUlvE0_NS2_ISA_EEFvvEEEEEEELi1ELb0EE5__getB8ue170006Ev, symObjAddr: 0x6C20, symBinAddr: 0x100010838, symSize: 0x14 }
  - { offsetInCU: 0x250A3, offset: 0x3A212, size: 0x8, addend: 0x0, symName: __ZNSt3__116allocator_traitsINS_9allocatorINS_10__function6__funcIZN5dgrad6TensorC1ENS_6vectorIdNS1_IdEEEEEUlvE0_NS1_IS9_EEFvvEEEEEE10deallocateB8ue170006ERSD_PSC_m, symObjAddr: 0x6C34, symBinAddr: 0x10001084C, symSize: 0x34 }
  - { offsetInCU: 0x250E5, offset: 0x3A254, size: 0x8, addend: 0x0, symName: __ZNSt3__19allocatorINS_10__function6__funcIZN5dgrad6TensorC1ENS_6vectorIdNS0_IdEEEEEUlvE0_NS0_IS8_EEFvvEEEE10deallocateB8ue170006EPSB_m, symObjAddr: 0x6C68, symBinAddr: 0x100010880, symSize: 0x40 }
  - { offsetInCU: 0x25127, offset: 0x3A296, size: 0x8, addend: 0x0, symName: __ZNSt3__110__function6__funcIZN5dgrad6TensorC1ENS_6vectorIdNS_9allocatorIdEEEEEUlvE0_NS5_IS8_EEFvvEEC1B8ue170006ERKS8_RKS9_, symObjAddr: 0x6CA8, symBinAddr: 0x1000108C0, symSize: 0x3C }
  - { offsetInCU: 0x2516F, offset: 0x3A2DE, size: 0x8, addend: 0x0, symName: __ZNSt3__110__function6__funcIZN5dgrad6TensorC1ENS_6vectorIdNS_9allocatorIdEEEEEUlvE0_NS5_IS8_EEFvvEEC2B8ue170006ERKS8_RKS9_, symObjAddr: 0x6CE4, symBinAddr: 0x1000108FC, symSize: 0x88 }
  - { offsetInCU: 0x251B7, offset: 0x3A326, size: 0x8, addend: 0x0, symName: __ZNSt3__110__function12__alloc_funcIZN5dgrad6TensorC1ENS_6vectorIdNS_9allocatorIdEEEEEUlvE0_NS5_IS8_EEFvvEEC1B8ue170006ERKS8_RKS9_, symObjAddr: 0x6D6C, symBinAddr: 0x100010984, symSize: 0x3C }
  - { offsetInCU: 0x251FD, offset: 0x3A36C, size: 0x8, addend: 0x0, symName: __ZNSt3__110__function12__alloc_funcIZN5dgrad6TensorC1ENS_6vectorIdNS_9allocatorIdEEEEEUlvE0_NS5_IS8_EEFvvEEC2B8ue170006ERKS8_RKS9_, symObjAddr: 0x6DA8, symBinAddr: 0x1000109C0, symSize: 0x5C }
  - { offsetInCU: 0x25243, offset: 0x3A3B2, size: 0x8, addend: 0x0, symName: __ZNSt3__117__compressed_pairIZN5dgrad6TensorC1ENS_6vectorIdNS_9allocatorIdEEEEEUlvE0_NS4_IS7_EEEC1B8ue170006IJRKS7_EJRKS8_EEENS_21piecewise_construct_tENS_5tupleIJDpT_EEENSG_IJDpT0_EEE, symObjAddr: 0x6E30, symBinAddr: 0x100010A48, symSize: 0x3C }
  - { offsetInCU: 0x252AD, offset: 0x3A41C, size: 0x8, addend: 0x0, symName: __ZNSt3__15tupleIJRKNS_9allocatorIZN5dgrad6TensorC1ENS_6vectorIdNS1_IdEEEEEUlvE0_EEEEC1B8ue170006INS_4_AndELi0EEESA_, symObjAddr: 0x6E6C, symBinAddr: 0x100010A84, symSize: 0x34 }
  - { offsetInCU: 0x252F5, offset: 0x3A464, size: 0x8, addend: 0x0, symName: __ZNSt3__15tupleIJRKNS_9allocatorIZN5dgrad6TensorC1ENS_6vectorIdNS1_IdEEEEEUlvE0_EEEEC2B8ue170006INS_4_AndELi0EEESA_, symObjAddr: 0x6EA0, symBinAddr: 0x100010AB8, symSize: 0x34 }
  - { offsetInCU: 0x2533D, offset: 0x3A4AC, size: 0x8, addend: 0x0, symName: __ZNSt3__112__tuple_implINS_15__tuple_indicesIJLm0EEEEJRKNS_9allocatorIZN5dgrad6TensorC1ENS_6vectorIdNS3_IdEEEEEUlvE0_EEEEC1B8ue170006IJLm0EEJSC_EJEJEJSC_EEENS1_IJXspT_EEEENS_13__tuple_typesIJDpT0_EEENS1_IJXspT1_EEEENSG_IJDpT2_EEEDpOT3_, symObjAddr: 0x6ED4, symBinAddr: 0x100010AEC, symSize: 0x34 }
  - { offsetInCU: 0x253CE, offset: 0x3A53D, size: 0x8, addend: 0x0, symName: __ZNSt3__112__tuple_implINS_15__tuple_indicesIJLm0EEEEJRKNS_9allocatorIZN5dgrad6TensorC1ENS_6vectorIdNS3_IdEEEEEUlvE0_EEEEC2B8ue170006IJLm0EEJSC_EJEJEJSC_EEENS1_IJXspT_EEEENS_13__tuple_typesIJDpT0_EEENS1_IJXspT1_EEEENSG_IJDpT2_EEEDpOT3_, symObjAddr: 0x6F08, symBinAddr: 0x100010B20, symSize: 0x34 }
  - { offsetInCU: 0x2545F, offset: 0x3A5CE, size: 0x8, addend: 0x0, symName: __ZNSt3__112__tuple_leafILm0ERKNS_9allocatorIZN5dgrad6TensorC1ENS_6vectorIdNS1_IdEEEEEUlvE0_EELb0EEC2B8ue170006ISA_vEEOT_, symObjAddr: 0x6F3C, symBinAddr: 0x100010B54, symSize: 0x20 }
  - { offsetInCU: 0x254A2, offset: 0x3A611, size: 0x8, addend: 0x0, symName: __ZNSt3__117__compressed_pairIZN5dgrad6TensorC1ENS_6vectorIdNS_9allocatorIdEEEEEUlvE0_NS4_IS7_EEEC2B8ue170006IJRKS7_EJRKS8_EEENS_21piecewise_construct_tENS_5tupleIJDpT_EEENSG_IJDpT0_EEE, symObjAddr: 0x6F5C, symBinAddr: 0x100010B74, symSize: 0x54 }
  - { offsetInCU: 0x2550C, offset: 0x3A67B, size: 0x8, addend: 0x0, symName: __ZNSt3__122__compressed_pair_elemINS_9allocatorIZN5dgrad6TensorC1ENS_6vectorIdNS1_IdEEEEEUlvE0_EELi1ELb1EEC2B8ue170006IJRKS8_EJLm0EEEENS_21piecewise_construct_tENS_5tupleIJDpT_EEENS_15__tuple_indicesIJXspT0_EEEE, symObjAddr: 0x6FB0, symBinAddr: 0x100010BC8, symSize: 0x38 }
  - { offsetInCU: 0x2556F, offset: 0x3A6DE, size: 0x8, addend: 0x0, symName: __ZNSt3__112__tuple_leafILm0ERKNS_9allocatorIZN5dgrad6TensorC1ENS_6vectorIdNS1_IdEEEEEUlvE0_EELb0EE3getB8ue170006Ev, symObjAddr: 0x700C, symBinAddr: 0x100010C24, symSize: 0x18 }
  - { offsetInCU: 0x25595, offset: 0x3A704, size: 0x8, addend: 0x0, symName: __ZNSt3__110__function12__alloc_funcIZN5dgrad6TensorC1ENS_6vectorIdNS_9allocatorIdEEEEEUlvE0_NS5_IS8_EEFvvEE7destroyB8ue170006Ev, symObjAddr: 0x7024, symBinAddr: 0x100010C3C, symSize: 0x10 }
  - { offsetInCU: 0x255BB, offset: 0x3A72A, size: 0x8, addend: 0x0, symName: __ZNSt3__110__function12__alloc_funcIZN5dgrad6TensorC1ENS_6vectorIdNS_9allocatorIdEEEEEUlvE0_NS5_IS8_EEFvvEEclB8ue170006Ev, symObjAddr: 0x7034, symBinAddr: 0x100010C4C, symSize: 0x28 }
  - { offsetInCU: 0x255E1, offset: 0x3A750, size: 0x8, addend: 0x0, symName: __ZNSt3__128__invoke_void_return_wrapperIvLb1EE6__callB8ue170006IJRZN5dgrad6TensorC1ENS_6vectorIdNS_9allocatorIdEEEEEUlvE0_EEEvDpOT_, symObjAddr: 0x705C, symBinAddr: 0x100010C74, symSize: 0x24 }
  - { offsetInCU: 0x25610, offset: 0x3A77F, size: 0x8, addend: 0x0, symName: __ZNSt3__117__compressed_pairIZN5dgrad6TensorC1ENS_6vectorIdNS_9allocatorIdEEEEEUlvE0_NS4_IS7_EEE5firstB8ue170006Ev, symObjAddr: 0x7080, symBinAddr: 0x100010C98, symSize: 0x24 }
  - { offsetInCU: 0x2563B, offset: 0x3A7AA, size: 0x8, addend: 0x0, symName: __ZZN5dgrad6TensorC1ENSt3__16vectorIdNS1_9allocatorIdEEEEENKUlvE0_clEv, symObjAddr: 0x70C8, symBinAddr: 0x100010CE0, symSize: 0x10 }
  - { offsetInCU: 0x25665, offset: 0x3A7D4, size: 0x8, addend: 0x0, symName: __ZNSt3__122__compressed_pair_elemIZN5dgrad6TensorC1ENS_6vectorIdNS_9allocatorIdEEEEEUlvE0_Li0ELb1EE5__getB8ue170006Ev, symObjAddr: 0x70D8, symBinAddr: 0x100010CF0, symSize: 0x14 }
  - { offsetInCU: 0x25691, offset: 0x3A800, size: 0x8, addend: 0x0, symName: '__ZZN5dgrad3expEPNS_6TensorEEN3$_5D2Ev', symObjAddr: 0x7220, symBinAddr: 0x100010D04, symSize: 0x30 }
  - { offsetInCU: 0x256BD, offset: 0x3A82C, size: 0x8, addend: 0x0, symName: '__ZZN5dgrad4tanhEPNS_6TensorEEN3$_6D2Ev', symObjAddr: 0x7250, symBinAddr: 0x100010D34, symSize: 0x30 }
  - { offsetInCU: 0x256E9, offset: 0x3A858, size: 0x8, addend: 0x0, symName: __ZNKSt3__111__wrap_iterIPN5dgrad6TensorEE4baseB8ue170006Ev, symObjAddr: 0x72C8, symBinAddr: 0x100010DAC, symSize: 0x18 }
  - { offsetInCU: 0x25732, offset: 0x3A8A1, size: 0x8, addend: 0x0, symName: __ZNSt3__16vectorIdNS_9allocatorIdEEEC2ERKS3_, symObjAddr: 0x7FEC, symBinAddr: 0x100010DC4, symSize: 0x94 }
  - { offsetInCU: 0x2576D, offset: 0x3A8DC, size: 0x8, addend: 0x0, symName: __ZNSt3__116allocator_traitsINS_9allocatorIdEEE37select_on_container_copy_constructionB8ue170006IS2_vvEES2_RKS2_, symObjAddr: 0x8080, symBinAddr: 0x100010E58, symSize: 0x10 }
  - { offsetInCU: 0x257A2, offset: 0x3A911, size: 0x8, addend: 0x0, symName: __ZNSt3__117__compressed_pairIPdNS_9allocatorIdEEEC1B8ue170006IDnS3_EEOT_OT0_, symObjAddr: 0x8090, symBinAddr: 0x100010E68, symSize: 0x3C }
  - { offsetInCU: 0x257FA, offset: 0x3A969, size: 0x8, addend: 0x0, symName: __ZNSt3__16vectorIdNS_9allocatorIdEEE16__init_with_sizeB8ue170006IPdS5_EEvT_T0_m, symObjAddr: 0x80CC, symBinAddr: 0x100010EA4, symSize: 0xB8 }
  - { offsetInCU: 0x2586E, offset: 0x3A9DD, size: 0x8, addend: 0x0, symName: __ZNSt3__117__compressed_pairIPdNS_9allocatorIdEEEC2B8ue170006IDnS3_EEOT_OT0_, symObjAddr: 0x8184, symBinAddr: 0x100010F5C, symSize: 0x44 }
  - { offsetInCU: 0x258C6, offset: 0x3AA35, size: 0x8, addend: 0x0, symName: __ZNSt3__122__compressed_pair_elemINS_9allocatorIdEELi1ELb1EEC2B8ue170006IS2_vEEOT_, symObjAddr: 0x81C8, symBinAddr: 0x100010FA0, symSize: 0x18 }
  - { offsetInCU: 0x25908, offset: 0x3AA77, size: 0x8, addend: 0x0, symName: __ZNSt3__16vectorIdNS_9allocatorIdEEE18__construct_at_endIPdS5_EEvT_T0_m, symObjAddr: 0x81E0, symBinAddr: 0x100010FB8, symSize: 0x8C }
  - { offsetInCU: 0x2599E, offset: 0x3AB0D, size: 0x8, addend: 0x0, symName: __ZNSt3__14pairIPdS1_EC1B8ue170006IS1_S1_LPv0EEEOT_OT0_, symObjAddr: 0x841C, symBinAddr: 0x100011194, symSize: 0x3C }
  - { offsetInCU: 0x259FC, offset: 0x3AB6B, size: 0x8, addend: 0x0, symName: __ZNSt3__14pairIPdS1_EC2B8ue170006IS1_S1_LPv0EEEOT_OT0_, symObjAddr: 0x8458, symBinAddr: 0x1000111D0, symSize: 0x34 }
  - { offsetInCU: 0x25A5A, offset: 0x3ABC9, size: 0x8, addend: 0x0, symName: __ZNKSt3__114__copy_trivialclB8ue170006IddLi0EEENS_4pairIPT_PT0_EES4_S4_S6_, symObjAddr: 0x8608, symBinAddr: 0x100011380, symSize: 0x48 }
  - { offsetInCU: 0x25AC2, offset: 0x3AC31, size: 0x8, addend: 0x0, symName: __ZNSt3__14pairIPdS1_EC1B8ue170006IRS1_S1_LPv0EEEOT_OT0_, symObjAddr: 0x8798, symBinAddr: 0x100011510, symSize: 0x3C }
  - { offsetInCU: 0x25B20, offset: 0x3AC8F, size: 0x8, addend: 0x0, symName: __ZNSt3__14pairIPdS1_EC2B8ue170006IRS1_S1_LPv0EEEOT_OT0_, symObjAddr: 0x87D4, symBinAddr: 0x10001154C, symSize: 0x34 }
  - { offsetInCU: 0x25B7E, offset: 0x3ACED, size: 0x8, addend: 0x0, symName: __ZNSt3__16__treeINS_6vectorIdNS_9allocatorIdEEEENS_4lessIS4_EENS2_IS4_EEE4findIS4_EENS_15__tree_iteratorIS4_PNS_11__tree_nodeIS4_PvEElEERKT_, symObjAddr: 0x935C, symBinAddr: 0x100011580, symSize: 0xF8 }
  - { offsetInCU: 0x25BCD, offset: 0x3AD3C, size: 0x8, addend: 0x0, symName: __ZNSt3__121__tree_const_iteratorINS_6vectorIdNS_9allocatorIdEEEEPNS_11__tree_nodeIS4_PvEElEC1B8ue170006ENS_15__tree_iteratorIS4_S8_lEE, symObjAddr: 0x9454, symBinAddr: 0x100011678, symSize: 0x34 }
  - { offsetInCU: 0x25C06, offset: 0x3AD75, size: 0x8, addend: 0x0, symName: __ZNSt3__16__treeINS_6vectorIdNS_9allocatorIdEEEENS_4lessIS4_EENS2_IS4_EEE13__lower_boundIS4_EENS_15__tree_iteratorIS4_PNS_11__tree_nodeIS4_PvEElEERKT_SE_PNS_15__tree_end_nodeIPNS_16__tree_node_baseISC_EEEE, symObjAddr: 0x9488, symBinAddr: 0x1000116AC, symSize: 0xA4 }
  - { offsetInCU: 0x25C64, offset: 0x3ADD3, size: 0x8, addend: 0x0, symName: __ZNKSt3__16__treeINS_6vectorIdNS_9allocatorIdEEEENS_4lessIS4_EENS2_IS4_EEE6__rootB8ue170006Ev, symObjAddr: 0x952C, symBinAddr: 0x100011750, symSize: 0x28 }
  - { offsetInCU: 0x25C8A, offset: 0x3ADF9, size: 0x8, addend: 0x0, symName: __ZNSt3__16__treeINS_6vectorIdNS_9allocatorIdEEEENS_4lessIS4_EENS2_IS4_EEE10__end_nodeB8ue170006Ev, symObjAddr: 0x9554, symBinAddr: 0x100011778, symSize: 0x2C }
  - { offsetInCU: 0x25CB0, offset: 0x3AE1F, size: 0x8, addend: 0x0, symName: __ZNSt3__16__treeINS_6vectorIdNS_9allocatorIdEEEENS_4lessIS4_EENS2_IS4_EEE3endB8ue170006Ev, symObjAddr: 0x95B4, symBinAddr: 0x1000117D8, symSize: 0x34 }
  - { offsetInCU: 0x25CD6, offset: 0x3AE45, size: 0x8, addend: 0x0, symName: __ZNSt3__16__treeINS_6vectorIdNS_9allocatorIdEEEENS_4lessIS4_EENS2_IS4_EEE10value_compB8ue170006Ev, symObjAddr: 0x95E8, symBinAddr: 0x10001180C, symSize: 0x28 }
  - { offsetInCU: 0x25CFC, offset: 0x3AE6B, size: 0x8, addend: 0x0, symName: __ZNKSt3__14lessINS_6vectorIdNS_9allocatorIdEEEEEclB8ue170006ERKS4_S7_, symObjAddr: 0x9610, symBinAddr: 0x100011834, symSize: 0x34 }
  - { offsetInCU: 0x25D40, offset: 0x3AEAF, size: 0x8, addend: 0x0, symName: __ZNKSt3__115__tree_iteratorINS_6vectorIdNS_9allocatorIdEEEEPNS_11__tree_nodeIS4_PvEElEdeB8ue170006Ev, symObjAddr: 0x9644, symBinAddr: 0x100011868, symSize: 0x28 }
  - { offsetInCU: 0x25D66, offset: 0x3AED5, size: 0x8, addend: 0x0, symName: __ZNSt3__115__tree_iteratorINS_6vectorIdNS_9allocatorIdEEEEPNS_11__tree_nodeIS4_PvEElEC1B8ue170006EPNS_15__tree_end_nodeIPNS_16__tree_node_baseIS6_EEEE, symObjAddr: 0x966C, symBinAddr: 0x100011890, symSize: 0x34 }
  - { offsetInCU: 0x25D9F, offset: 0x3AF0E, size: 0x8, addend: 0x0, symName: __ZNSt3__115__tree_iteratorINS_6vectorIdNS_9allocatorIdEEEEPNS_11__tree_nodeIS4_PvEElEC2B8ue170006EPNS_15__tree_end_nodeIPNS_16__tree_node_baseIS6_EEEE, symObjAddr: 0x96A0, symBinAddr: 0x1000118C4, symSize: 0x20 }
  - { offsetInCU: 0x25DD8, offset: 0x3AF47, size: 0x8, addend: 0x0, symName: __ZNKSt3__16__treeINS_6vectorIdNS_9allocatorIdEEEENS_4lessIS4_EENS2_IS4_EEE10__end_nodeB8ue170006Ev, symObjAddr: 0x96C0, symBinAddr: 0x1000118E4, symSize: 0x2C }
  - { offsetInCU: 0x25DFE, offset: 0x3AF6D, size: 0x8, addend: 0x0, symName: __ZNSt3__114pointer_traitsIPNS_15__tree_end_nodeIPNS_16__tree_node_baseIPvEEEEE10pointer_toB8ue170006ERS6_, symObjAddr: 0x96EC, symBinAddr: 0x100011910, symSize: 0x14 }
  - { offsetInCU: 0x25E21, offset: 0x3AF90, size: 0x8, addend: 0x0, symName: __ZNKSt3__117__compressed_pairINS_15__tree_end_nodeIPNS_16__tree_node_baseIPvEEEENS_9allocatorINS_11__tree_nodeINS_6vectorIdNS7_IdEEEES3_EEEEE5firstB8ue170006Ev, symObjAddr: 0x9700, symBinAddr: 0x100011924, symSize: 0x24 }
  - { offsetInCU: 0x25E47, offset: 0x3AFB6, size: 0x8, addend: 0x0, symName: __ZNKSt3__122__compressed_pair_elemINS_15__tree_end_nodeIPNS_16__tree_node_baseIPvEEEELi0ELb0EE5__getB8ue170006Ev, symObjAddr: 0x9724, symBinAddr: 0x100011948, symSize: 0x14 }
  - { offsetInCU: 0x25E6D, offset: 0x3AFDC, size: 0x8, addend: 0x0, symName: __ZNSt3__117__compressed_pairINS_15__tree_end_nodeIPNS_16__tree_node_baseIPvEEEENS_9allocatorINS_11__tree_nodeINS_6vectorIdNS7_IdEEEES3_EEEEE5firstB8ue170006Ev, symObjAddr: 0x9738, symBinAddr: 0x10001195C, symSize: 0x24 }
  - { offsetInCU: 0x25E93, offset: 0x3B002, size: 0x8, addend: 0x0, symName: __ZNSt3__122__compressed_pair_elemINS_15__tree_end_nodeIPNS_16__tree_node_baseIPvEEEELi0ELb0EE5__getB8ue170006Ev, symObjAddr: 0x975C, symBinAddr: 0x100011980, symSize: 0x14 }
  - { offsetInCU: 0x25EB9, offset: 0x3B028, size: 0x8, addend: 0x0, symName: __ZNSt3__117__compressed_pairImNS_4lessINS_6vectorIdNS_9allocatorIdEEEEEEE6secondB8ue170006Ev, symObjAddr: 0x97A0, symBinAddr: 0x1000119C4, symSize: 0x24 }
  - { offsetInCU: 0x25EDF, offset: 0x3B04E, size: 0x8, addend: 0x0, symName: __ZNSt3__122__compressed_pair_elemINS_4lessINS_6vectorIdNS_9allocatorIdEEEEEELi1ELb1EE5__getB8ue170006Ev, symObjAddr: 0x97C4, symBinAddr: 0x1000119E8, symSize: 0x14 }
  - { offsetInCU: 0x25F05, offset: 0x3B074, size: 0x8, addend: 0x0, symName: __ZNKSt3__16vectorIdNS_9allocatorIdEEE5beginB8ue170006Ev, symObjAddr: 0x98A0, symBinAddr: 0x100011AC4, symSize: 0x30 }
  - { offsetInCU: 0x25F2D, offset: 0x3B09C, size: 0x8, addend: 0x0, symName: __ZNKSt3__16vectorIdNS_9allocatorIdEEE3endB8ue170006Ev, symObjAddr: 0x98D0, symBinAddr: 0x100011AF4, symSize: 0x30 }
  - { offsetInCU: 0x25F55, offset: 0x3B0C4, size: 0x8, addend: 0x0, symName: __ZNKSt3__16__lessIvvEclB8ue170006IddEEbRKT_RKT0_, symObjAddr: 0x9AFC, symBinAddr: 0x100011D20, symSize: 0x34 }
  - { offsetInCU: 0x25FA9, offset: 0x3B118, size: 0x8, addend: 0x0, symName: __ZNKSt3__111__wrap_iterIPKdEdeB8ue170006Ev, symObjAddr: 0x9B30, symBinAddr: 0x100011D54, symSize: 0x18 }
  - { offsetInCU: 0x25FCF, offset: 0x3B13E, size: 0x8, addend: 0x0, symName: __ZNSt3__111__wrap_iterIPKdEppB8ue170006Ev, symObjAddr: 0x9B48, symBinAddr: 0x100011D6C, symSize: 0x20 }
  - { offsetInCU: 0x25FF5, offset: 0x3B164, size: 0x8, addend: 0x0, symName: __ZNKSt3__111__wrap_iterIPKdE4baseB8ue170006Ev, symObjAddr: 0x9B68, symBinAddr: 0x100011D8C, symSize: 0x18 }
  - { offsetInCU: 0x2601B, offset: 0x3B18A, size: 0x8, addend: 0x0, symName: __ZNKSt3__16vectorIdNS_9allocatorIdEEE11__make_iterB8ue170006EPKd, symObjAddr: 0x9B80, symBinAddr: 0x100011DA4, symSize: 0x30 }
  - { offsetInCU: 0x26050, offset: 0x3B1BF, size: 0x8, addend: 0x0, symName: __ZNSt3__111__wrap_iterIPKdEC1B8ue170006ES2_, symObjAddr: 0x9BB0, symBinAddr: 0x100011DD4, symSize: 0x34 }
  - { offsetInCU: 0x26088, offset: 0x3B1F7, size: 0x8, addend: 0x0, symName: __ZNSt3__111__wrap_iterIPKdEC2B8ue170006ES2_, symObjAddr: 0x9BE4, symBinAddr: 0x100011E08, symSize: 0x20 }
  - { offsetInCU: 0x260C0, offset: 0x3B22F, size: 0x8, addend: 0x0, symName: __ZNKSt3__115__tree_iteratorINS_6vectorIdNS_9allocatorIdEEEEPNS_11__tree_nodeIS4_PvEElE8__get_npB8ue170006Ev, symObjAddr: 0x9C04, symBinAddr: 0x100011E28, symSize: 0x18 }
  - { offsetInCU: 0x260E6, offset: 0x3B255, size: 0x8, addend: 0x0, symName: __ZNSt3__121__tree_const_iteratorINS_6vectorIdNS_9allocatorIdEEEEPNS_11__tree_nodeIS4_PvEElEC2B8ue170006ENS_15__tree_iteratorIS4_S8_lEE, symObjAddr: 0x9C1C, symBinAddr: 0x100011E40, symSize: 0x20 }
  - { offsetInCU: 0x2611F, offset: 0x3B28E, size: 0x8, addend: 0x0, symName: __ZNSt3__16__treeINS_6vectorIdNS_9allocatorIdEEEENS_4lessIS4_EENS2_IS4_EEE15__insert_uniqueB8ue170006ERKS4_, symObjAddr: 0x9C3C, symBinAddr: 0x100011E60, symSize: 0x50 }
  - { offsetInCU: 0x26154, offset: 0x3B2C3, size: 0x8, addend: 0x0, symName: __ZNSt3__14pairINS_21__tree_const_iteratorINS_6vectorIdNS_9allocatorIdEEEEPNS_11__tree_nodeIS5_PvEElEEbEC1B8ue170006INS_15__tree_iteratorIS5_S9_lEEbLS7_0EEEONS0_IT_T0_EE, symObjAddr: 0x9C8C, symBinAddr: 0x100011EB0, symSize: 0x34 }
  - { offsetInCU: 0x261A5, offset: 0x3B314, size: 0x8, addend: 0x0, symName: __ZNSt3__16__treeINS_6vectorIdNS_9allocatorIdEEEENS_4lessIS4_EENS2_IS4_EEE25__emplace_unique_key_argsIS4_JRKS4_EEENS_4pairINS_15__tree_iteratorIS4_PNS_11__tree_nodeIS4_PvEElEEbEERKT_DpOT0_, symObjAddr: 0x9CC0, symBinAddr: 0x100011EE4, symSize: 0xF0 }
  - { offsetInCU: 0x26251, offset: 0x3B3C0, size: 0x8, addend: 0x0, symName: __ZNSt3__122__tree_key_value_typesINS_6vectorIdNS_9allocatorIdEEEEE9__get_keyB8ue170006ERKS4_, symObjAddr: 0x9DB0, symBinAddr: 0x100011FD4, symSize: 0x14 }
  - { offsetInCU: 0x26275, offset: 0x3B3E4, size: 0x8, addend: 0x0, symName: __ZNSt3__16__treeINS_6vectorIdNS_9allocatorIdEEEENS_4lessIS4_EENS2_IS4_EEE12__find_equalIS4_EERPNS_16__tree_node_baseIPvEERPNS_15__tree_end_nodeISD_EERKT_, symObjAddr: 0x9DC4, symBinAddr: 0x100011FE8, symSize: 0x184 }
  - { offsetInCU: 0x262E2, offset: 0x3B451, size: 0x8, addend: 0x0, symName: __ZNSt3__16__treeINS_6vectorIdNS_9allocatorIdEEEENS_4lessIS4_EENS2_IS4_EEE16__construct_nodeIJRKS4_EEENS_10unique_ptrINS_11__tree_nodeIS4_PvEENS_22__tree_node_destructorINS2_ISF_EEEEEEDpOT_, symObjAddr: 0x9F48, symBinAddr: 0x10001216C, symSize: 0x110 }
  - { offsetInCU: 0x26343, offset: 0x3B4B2, size: 0x8, addend: 0x0, symName: __ZNSt3__16__treeINS_6vectorIdNS_9allocatorIdEEEENS_4lessIS4_EENS2_IS4_EEE16__insert_node_atEPNS_15__tree_end_nodeIPNS_16__tree_node_baseIPvEEEERSD_SD_, symObjAddr: 0xA058, symBinAddr: 0x10001227C, symSize: 0xCC }
  - { offsetInCU: 0x26398, offset: 0x3B507, size: 0x8, addend: 0x0, symName: __ZNKSt3__110unique_ptrINS_11__tree_nodeINS_6vectorIdNS_9allocatorIdEEEEPvEENS_22__tree_node_destructorINS3_IS7_EEEEE3getB8ue170006Ev, symObjAddr: 0xA124, symBinAddr: 0x100012348, symSize: 0x28 }
  - { offsetInCU: 0x263BE, offset: 0x3B52D, size: 0x8, addend: 0x0, symName: __ZNSt3__110unique_ptrINS_11__tree_nodeINS_6vectorIdNS_9allocatorIdEEEEPvEENS_22__tree_node_destructorINS3_IS7_EEEEE7releaseB8ue170006Ev, symObjAddr: 0xA14C, symBinAddr: 0x100012370, symSize: 0x44 }
  - { offsetInCU: 0x263F3, offset: 0x3B562, size: 0x8, addend: 0x0, symName: __ZNSt3__110unique_ptrINS_11__tree_nodeINS_6vectorIdNS_9allocatorIdEEEEPvEENS_22__tree_node_destructorINS3_IS7_EEEEED1B8ue170006Ev, symObjAddr: 0xA190, symBinAddr: 0x1000123B4, symSize: 0x2C }
  - { offsetInCU: 0x2641D, offset: 0x3B58C, size: 0x8, addend: 0x0, symName: __ZNSt3__115__tree_iteratorINS_6vectorIdNS_9allocatorIdEEEEPNS_11__tree_nodeIS4_PvEElEC1B8ue170006ES8_, symObjAddr: 0xA1BC, symBinAddr: 0x1000123E0, symSize: 0x34 }
  - { offsetInCU: 0x26461, offset: 0x3B5D0, size: 0x8, addend: 0x0, symName: __ZNSt3__14pairINS_15__tree_iteratorINS_6vectorIdNS_9allocatorIdEEEEPNS_11__tree_nodeIS5_PvEElEEbEC1B8ue170006ISA_RbLS7_0EEEOT_OT0_, symObjAddr: 0xA1F0, symBinAddr: 0x100012414, symSize: 0x3C }
  - { offsetInCU: 0x264BF, offset: 0x3B62E, size: 0x8, addend: 0x0, symName: __ZNKSt3__16__treeINS_6vectorIdNS_9allocatorIdEEEENS_4lessIS4_EENS2_IS4_EEE10__root_ptrB8ue170006Ev, symObjAddr: 0xA22C, symBinAddr: 0x100012450, symSize: 0x24 }
  - { offsetInCU: 0x264E5, offset: 0x3B654, size: 0x8, addend: 0x0, symName: __ZNSt3__16__treeINS_6vectorIdNS_9allocatorIdEEEENS_4lessIS4_EENS2_IS4_EEE12__node_allocB8ue170006Ev, symObjAddr: 0xA250, symBinAddr: 0x100012474, symSize: 0x28 }
  - { offsetInCU: 0x2650B, offset: 0x3B67A, size: 0x8, addend: 0x0, symName: __ZNSt3__116allocator_traitsINS_9allocatorINS_11__tree_nodeINS_6vectorIdNS1_IdEEEEPvEEEEE8allocateB8ue170006ERS8_m, symObjAddr: 0xA278, symBinAddr: 0x10001249C, symSize: 0x2C }
  - { offsetInCU: 0x2653E, offset: 0x3B6AD, size: 0x8, addend: 0x0, symName: __ZNSt3__122__tree_node_destructorINS_9allocatorINS_11__tree_nodeINS_6vectorIdNS1_IdEEEEPvEEEEEC1B8ue170006ERS8_b, symObjAddr: 0xA2A4, symBinAddr: 0x1000124C8, symSize: 0x48 }
  - { offsetInCU: 0x2658C, offset: 0x3B6FB, size: 0x8, addend: 0x0, symName: __ZNSt3__110unique_ptrINS_11__tree_nodeINS_6vectorIdNS_9allocatorIdEEEEPvEENS_22__tree_node_destructorINS3_IS7_EEEEEC1B8ue170006ILb1EvEEPS7_NS_16__dependent_typeINS_27__unique_ptr_deleter_sfinaeISA_EEXT_EE20__good_rval_ref_typeE, symObjAddr: 0xA2EC, symBinAddr: 0x100012510, symSize: 0x3C }
  - { offsetInCU: 0x265DD, offset: 0x3B74C, size: 0x8, addend: 0x0, symName: __ZNSt3__116allocator_traitsINS_9allocatorINS_11__tree_nodeINS_6vectorIdNS1_IdEEEEPvEEEEE9constructB8ue170006IS5_JRKS5_EvEEvRS8_PT_DpOT0_, symObjAddr: 0xA328, symBinAddr: 0x10001254C, symSize: 0x34 }
  - { offsetInCU: 0x26634, offset: 0x3B7A3, size: 0x8, addend: 0x0, symName: __ZNSt3__122__tree_key_value_typesINS_6vectorIdNS_9allocatorIdEEEEE9__get_ptrB8ue170006ERS4_, symObjAddr: 0xA35C, symBinAddr: 0x100012580, symSize: 0x14 }
  - { offsetInCU: 0x26658, offset: 0x3B7C7, size: 0x8, addend: 0x0, symName: __ZNKSt3__110unique_ptrINS_11__tree_nodeINS_6vectorIdNS_9allocatorIdEEEEPvEENS_22__tree_node_destructorINS3_IS7_EEEEEptB8ue170006Ev, symObjAddr: 0xA370, symBinAddr: 0x100012594, symSize: 0x28 }
  - { offsetInCU: 0x2667E, offset: 0x3B7ED, size: 0x8, addend: 0x0, symName: __ZNSt3__110unique_ptrINS_11__tree_nodeINS_6vectorIdNS_9allocatorIdEEEEPvEENS_22__tree_node_destructorINS3_IS7_EEEEE11get_deleterB8ue170006Ev, symObjAddr: 0xA398, symBinAddr: 0x1000125BC, symSize: 0x24 }
  - { offsetInCU: 0x266A4, offset: 0x3B813, size: 0x8, addend: 0x0, symName: __ZNSt3__117__compressed_pairINS_15__tree_end_nodeIPNS_16__tree_node_baseIPvEEEENS_9allocatorINS_11__tree_nodeINS_6vectorIdNS7_IdEEEES3_EEEEE6secondB8ue170006Ev, symObjAddr: 0xA3BC, symBinAddr: 0x1000125E0, symSize: 0x24 }
  - { offsetInCU: 0x266CA, offset: 0x3B839, size: 0x8, addend: 0x0, symName: __ZNSt3__122__compressed_pair_elemINS_9allocatorINS_11__tree_nodeINS_6vectorIdNS1_IdEEEEPvEEEELi1ELb1EE5__getB8ue170006Ev, symObjAddr: 0xA3E0, symBinAddr: 0x100012604, symSize: 0x14 }
  - { offsetInCU: 0x266F0, offset: 0x3B85F, size: 0x8, addend: 0x0, symName: __ZNSt3__19allocatorINS_11__tree_nodeINS_6vectorIdNS0_IdEEEEPvEEE8allocateB8ue170006Em, symObjAddr: 0xA3F4, symBinAddr: 0x100012618, symSize: 0x5C }
  - { offsetInCU: 0x2672E, offset: 0x3B89D, size: 0x8, addend: 0x0, symName: __ZNSt3__116allocator_traitsINS_9allocatorINS_11__tree_nodeINS_6vectorIdNS1_IdEEEEPvEEEEE8max_sizeB8ue170006IS8_vEEmRKS8_, symObjAddr: 0xA450, symBinAddr: 0x100012674, symSize: 0x24 }
  - { offsetInCU: 0x2675C, offset: 0x3B8CB, size: 0x8, addend: 0x0, symName: __ZNKSt3__19allocatorINS_11__tree_nodeINS_6vectorIdNS0_IdEEEEPvEEE8max_sizeB8ue170006Ev, symObjAddr: 0xA474, symBinAddr: 0x100012698, symSize: 0x20 }
  - { offsetInCU: 0x26782, offset: 0x3B8F1, size: 0x8, addend: 0x0, symName: __ZNSt3__122__tree_node_destructorINS_9allocatorINS_11__tree_nodeINS_6vectorIdNS1_IdEEEEPvEEEEEC2B8ue170006ERS8_b, symObjAddr: 0xA494, symBinAddr: 0x1000126B8, symSize: 0x38 }
  - { offsetInCU: 0x267CA, offset: 0x3B939, size: 0x8, addend: 0x0, symName: __ZNSt3__110unique_ptrINS_11__tree_nodeINS_6vectorIdNS_9allocatorIdEEEEPvEENS_22__tree_node_destructorINS3_IS7_EEEEEC2B8ue170006ILb1EvEEPS7_NS_16__dependent_typeINS_27__unique_ptr_deleter_sfinaeISA_EEXT_EE20__good_rval_ref_typeE, symObjAddr: 0xA4CC, symBinAddr: 0x1000126F0, symSize: 0x48 }
  - { offsetInCU: 0x2681B, offset: 0x3B98A, size: 0x8, addend: 0x0, symName: __ZNSt3__117__compressed_pairIPNS_11__tree_nodeINS_6vectorIdNS_9allocatorIdEEEEPvEENS_22__tree_node_destructorINS3_IS7_EEEEEC1B8ue170006IRS8_SB_EEOT_OT0_, symObjAddr: 0xA514, symBinAddr: 0x100012738, symSize: 0x3C }
  - { offsetInCU: 0x26873, offset: 0x3B9E2, size: 0x8, addend: 0x0, symName: __ZNSt3__117__compressed_pairIPNS_11__tree_nodeINS_6vectorIdNS_9allocatorIdEEEEPvEENS_22__tree_node_destructorINS3_IS7_EEEEEC2B8ue170006IRS8_SB_EEOT_OT0_, symObjAddr: 0xA550, symBinAddr: 0x100012774, symSize: 0x48 }
  - { offsetInCU: 0x268CB, offset: 0x3BA3A, size: 0x8, addend: 0x0, symName: __ZNSt3__122__compressed_pair_elemIPNS_11__tree_nodeINS_6vectorIdNS_9allocatorIdEEEEPvEELi0ELb0EEC2B8ue170006IRS8_vEEOT_, symObjAddr: 0xA598, symBinAddr: 0x1000127BC, symSize: 0x24 }
  - { offsetInCU: 0x2690D, offset: 0x3BA7C, size: 0x8, addend: 0x0, symName: __ZNSt3__122__compressed_pair_elemINS_22__tree_node_destructorINS_9allocatorINS_11__tree_nodeINS_6vectorIdNS2_IdEEEEPvEEEEEELi1ELb0EEC2B8ue170006ISA_vEEOT_, symObjAddr: 0xA5BC, symBinAddr: 0x1000127E0, symSize: 0x24 }
  - { offsetInCU: 0x2694F, offset: 0x3BABE, size: 0x8, addend: 0x0, symName: __ZNSt3__19allocatorINS_11__tree_nodeINS_6vectorIdNS0_IdEEEEPvEEE9constructB8ue170006IS4_JRKS4_EEEvPT_DpOT0_, symObjAddr: 0xA5E0, symBinAddr: 0x100012804, symSize: 0x30 }
  - { offsetInCU: 0x269A5, offset: 0x3BB14, size: 0x8, addend: 0x0, symName: __ZNKSt3__117__compressed_pairIPNS_11__tree_nodeINS_6vectorIdNS_9allocatorIdEEEEPvEENS_22__tree_node_destructorINS3_IS7_EEEEE5firstB8ue170006Ev, symObjAddr: 0xA610, symBinAddr: 0x100012834, symSize: 0x24 }
  - { offsetInCU: 0x269CB, offset: 0x3BB3A, size: 0x8, addend: 0x0, symName: __ZNKSt3__122__compressed_pair_elemIPNS_11__tree_nodeINS_6vectorIdNS_9allocatorIdEEEEPvEELi0ELb0EE5__getB8ue170006Ev, symObjAddr: 0xA634, symBinAddr: 0x100012858, symSize: 0x14 }
  - { offsetInCU: 0x269F1, offset: 0x3BB60, size: 0x8, addend: 0x0, symName: __ZNSt3__117__compressed_pairIPNS_11__tree_nodeINS_6vectorIdNS_9allocatorIdEEEEPvEENS_22__tree_node_destructorINS3_IS7_EEEEE6secondB8ue170006Ev, symObjAddr: 0xA648, symBinAddr: 0x10001286C, symSize: 0x28 }
  - { offsetInCU: 0x26A17, offset: 0x3BB86, size: 0x8, addend: 0x0, symName: __ZNSt3__122__compressed_pair_elemINS_22__tree_node_destructorINS_9allocatorINS_11__tree_nodeINS_6vectorIdNS2_IdEEEEPvEEEEEELi1ELb0EE5__getB8ue170006Ev, symObjAddr: 0xA670, symBinAddr: 0x100012894, symSize: 0x14 }
  - { offsetInCU: 0x26A3D, offset: 0x3BBAC, size: 0x8, addend: 0x0, symName: __ZNSt3__16__treeINS_6vectorIdNS_9allocatorIdEEEENS_4lessIS4_EENS2_IS4_EEE12__begin_nodeB8ue170006Ev, symObjAddr: 0xA684, symBinAddr: 0x1000128A8, symSize: 0x14 }
  - { offsetInCU: 0x26A63, offset: 0x3BBD2, size: 0x8, addend: 0x0, symName: __ZNSt3__16__treeINS_6vectorIdNS_9allocatorIdEEEENS_4lessIS4_EENS2_IS4_EEE4sizeB8ue170006Ev, symObjAddr: 0xA9C4, symBinAddr: 0x100012BE8, symSize: 0x28 }
  - { offsetInCU: 0x26A89, offset: 0x3BBF8, size: 0x8, addend: 0x0, symName: __ZNKSt3__116__tree_node_baseIPvE15__parent_unsafeB8ue170006Ev, symObjAddr: 0xA9EC, symBinAddr: 0x100012C10, symSize: 0x18 }
  - { offsetInCU: 0x26AAF, offset: 0x3BC1E, size: 0x8, addend: 0x0, symName: __ZNSt3__116__tree_node_baseIPvE12__set_parentB8ue170006EPS2_, symObjAddr: 0xABD4, symBinAddr: 0x100012DF8, symSize: 0x20 }
  - { offsetInCU: 0x26AE4, offset: 0x3BC53, size: 0x8, addend: 0x0, symName: __ZNSt3__117__compressed_pairImNS_4lessINS_6vectorIdNS_9allocatorIdEEEEEEE5firstB8ue170006Ev, symObjAddr: 0xABF4, symBinAddr: 0x100012E18, symSize: 0x24 }
  - { offsetInCU: 0x26B0A, offset: 0x3BC79, size: 0x8, addend: 0x0, symName: __ZNSt3__122__compressed_pair_elemImLi0ELb0EE5__getB8ue170006Ev, symObjAddr: 0xAC18, symBinAddr: 0x100012E3C, symSize: 0x14 }
  - { offsetInCU: 0x26B30, offset: 0x3BC9F, size: 0x8, addend: 0x0, symName: __ZNSt3__117__compressed_pairIPNS_11__tree_nodeINS_6vectorIdNS_9allocatorIdEEEEPvEENS_22__tree_node_destructorINS3_IS7_EEEEE5firstB8ue170006Ev, symObjAddr: 0xAC2C, symBinAddr: 0x100012E50, symSize: 0x24 }
  - { offsetInCU: 0x26B56, offset: 0x3BCC5, size: 0x8, addend: 0x0, symName: __ZNSt3__122__compressed_pair_elemIPNS_11__tree_nodeINS_6vectorIdNS_9allocatorIdEEEEPvEELi0ELb0EE5__getB8ue170006Ev, symObjAddr: 0xAC50, symBinAddr: 0x100012E74, symSize: 0x14 }
  - { offsetInCU: 0x26B7C, offset: 0x3BCEB, size: 0x8, addend: 0x0, symName: __ZNSt3__110unique_ptrINS_11__tree_nodeINS_6vectorIdNS_9allocatorIdEEEEPvEENS_22__tree_node_destructorINS3_IS7_EEEEED2B8ue170006Ev, symObjAddr: 0xAC64, symBinAddr: 0x100012E88, symSize: 0x30 }
  - { offsetInCU: 0x26BA6, offset: 0x3BD15, size: 0x8, addend: 0x0, symName: __ZNSt3__110unique_ptrINS_11__tree_nodeINS_6vectorIdNS_9allocatorIdEEEEPvEENS_22__tree_node_destructorINS3_IS7_EEEEE5resetB8ue170006EPS7_, symObjAddr: 0xAC94, symBinAddr: 0x100012EB8, symSize: 0x78 }
  - { offsetInCU: 0x26BEA, offset: 0x3BD59, size: 0x8, addend: 0x0, symName: __ZNSt3__122__tree_node_destructorINS_9allocatorINS_11__tree_nodeINS_6vectorIdNS1_IdEEEEPvEEEEEclB8ue170006EPS7_, symObjAddr: 0xAD0C, symBinAddr: 0x100012F30, symSize: 0x90 }
  - { offsetInCU: 0x26C1F, offset: 0x3BD8E, size: 0x8, addend: 0x0, symName: __ZNSt3__116allocator_traitsINS_9allocatorINS_11__tree_nodeINS_6vectorIdNS1_IdEEEEPvEEEEE7destroyB8ue170006IS5_vvEEvRS8_PT_, symObjAddr: 0xAD9C, symBinAddr: 0x100012FC0, symSize: 0x28 }
  - { offsetInCU: 0x26C59, offset: 0x3BDC8, size: 0x8, addend: 0x0, symName: __ZNSt3__116allocator_traitsINS_9allocatorINS_11__tree_nodeINS_6vectorIdNS1_IdEEEEPvEEEEE10deallocateB8ue170006ERS8_PS7_m, symObjAddr: 0xADC4, symBinAddr: 0x100012FE8, symSize: 0x34 }
  - { offsetInCU: 0x26C9B, offset: 0x3BE0A, size: 0x8, addend: 0x0, symName: __ZNSt3__19allocatorINS_11__tree_nodeINS_6vectorIdNS0_IdEEEEPvEEE10deallocateB8ue170006EPS6_m, symObjAddr: 0xADF8, symBinAddr: 0x10001301C, symSize: 0x44 }
  - { offsetInCU: 0x26CDD, offset: 0x3BE4C, size: 0x8, addend: 0x0, symName: __ZNSt3__115__tree_iteratorINS_6vectorIdNS_9allocatorIdEEEEPNS_11__tree_nodeIS4_PvEElEC2B8ue170006ES8_, symObjAddr: 0xAE3C, symBinAddr: 0x100013060, symSize: 0x20 }
  - { offsetInCU: 0x26D16, offset: 0x3BE85, size: 0x8, addend: 0x0, symName: __ZNSt3__14pairINS_15__tree_iteratorINS_6vectorIdNS_9allocatorIdEEEEPNS_11__tree_nodeIS5_PvEElEEbEC2B8ue170006ISA_RbLS7_0EEEOT_OT0_, symObjAddr: 0xAE5C, symBinAddr: 0x100013080, symSize: 0x38 }
  - { offsetInCU: 0x26D74, offset: 0x3BEE3, size: 0x8, addend: 0x0, symName: __ZNSt3__14pairINS_21__tree_const_iteratorINS_6vectorIdNS_9allocatorIdEEEEPNS_11__tree_nodeIS5_PvEElEEbEC2B8ue170006INS_15__tree_iteratorIS5_S9_lEEbLS7_0EEEONS0_IT_T0_EE, symObjAddr: 0xAE94, symBinAddr: 0x1000130B8, symSize: 0x50 }
  - { offsetInCU: 0x26DC5, offset: 0x3BF34, size: 0x8, addend: 0x0, symName: __ZNSt3__16vectorIPN5dgrad6TensorENS_9allocatorIS3_EEE11__make_iterB8ue170006EPS3_, symObjAddr: 0xAEE4, symBinAddr: 0x100013108, symSize: 0x30 }
  - { offsetInCU: 0x26DFA, offset: 0x3BF69, size: 0x8, addend: 0x0, symName: __ZNSt3__111__wrap_iterIPPN5dgrad6TensorEEC1B8ue170006ES4_, symObjAddr: 0xAF14, symBinAddr: 0x100013138, symSize: 0x34 }
  - { offsetInCU: 0x26E32, offset: 0x3BFA1, size: 0x8, addend: 0x0, symName: __ZNSt3__111__wrap_iterIPPN5dgrad6TensorEEC2B8ue170006ES4_, symObjAddr: 0xAF48, symBinAddr: 0x10001316C, symSize: 0x20 }
  - { offsetInCU: 0x26E6A, offset: 0x3BFD9, size: 0x8, addend: 0x0, symName: __ZNSt3__16vectorIN5dgrad6TensorENS_9allocatorIS2_EEE9__end_capB8ue170006Ev, symObjAddr: 0xAF68, symBinAddr: 0x10001318C, symSize: 0x28 }
  - { offsetInCU: 0x26E90, offset: 0x3BFFF, size: 0x8, addend: 0x0, symName: __ZNSt3__16vectorIN5dgrad6TensorENS_9allocatorIS2_EEE22__construct_one_at_endB8ue170006IJRKS2_EEEvDpOT_, symObjAddr: 0xAF90, symBinAddr: 0x1000131B4, symSize: 0x90 }
  - { offsetInCU: 0x26EDF, offset: 0x3C04E, size: 0x8, addend: 0x0, symName: __ZNSt3__16vectorIN5dgrad6TensorENS_9allocatorIS2_EEE21__push_back_slow_pathIRKS2_EEvOT_, symObjAddr: 0xB020, symBinAddr: 0x100013244, symSize: 0xD8 }
  - { offsetInCU: 0x26F3D, offset: 0x3C0AC, size: 0x8, addend: 0x0, symName: __ZNSt3__117__compressed_pairIPN5dgrad6TensorENS_9allocatorIS2_EEE5firstB8ue170006Ev, symObjAddr: 0xB0F8, symBinAddr: 0x10001331C, symSize: 0x24 }
  - { offsetInCU: 0x26F63, offset: 0x3C0D2, size: 0x8, addend: 0x0, symName: __ZNSt3__122__compressed_pair_elemIPN5dgrad6TensorELi0ELb0EE5__getB8ue170006Ev, symObjAddr: 0xB11C, symBinAddr: 0x100013340, symSize: 0x14 }
  - { offsetInCU: 0x26FA2, offset: 0x3C111, size: 0x8, addend: 0x0, symName: __ZNSt3__16vectorIN5dgrad6TensorENS_9allocatorIS2_EEE21_ConstructTransactionC1B8ue170006ERS5_m, symObjAddr: 0xB130, symBinAddr: 0x100013354, symSize: 0x3C }
  - { offsetInCU: 0x26FEA, offset: 0x3C159, size: 0x8, addend: 0x0, symName: __ZNSt3__116allocator_traitsINS_9allocatorIN5dgrad6TensorEEEE9constructB8ue170006IS3_JRKS3_EvEEvRS4_PT_DpOT0_, symObjAddr: 0xB16C, symBinAddr: 0x100013390, symSize: 0x34 }
  - { offsetInCU: 0x27041, offset: 0x3C1B0, size: 0x8, addend: 0x0, symName: __ZNSt3__16vectorIN5dgrad6TensorENS_9allocatorIS2_EEE7__allocB8ue170006Ev, symObjAddr: 0xB1A0, symBinAddr: 0x1000133C4, symSize: 0x28 }
  - { offsetInCU: 0x27067, offset: 0x3C1D6, size: 0x8, addend: 0x0, symName: __ZNSt3__16vectorIN5dgrad6TensorENS_9allocatorIS2_EEE21_ConstructTransactionD1B8ue170006Ev, symObjAddr: 0xB1DC, symBinAddr: 0x100013400, symSize: 0x2C }
  - { offsetInCU: 0x27091, offset: 0x3C200, size: 0x8, addend: 0x0, symName: __ZNSt3__16vectorIN5dgrad6TensorENS_9allocatorIS2_EEE21_ConstructTransactionC2B8ue170006ERS5_m, symObjAddr: 0xB208, symBinAddr: 0x10001342C, symSize: 0x4C }
  - { offsetInCU: 0x270D9, offset: 0x3C248, size: 0x8, addend: 0x0, symName: __ZNSt3__19allocatorIN5dgrad6TensorEE9constructB8ue170006IS2_JRKS2_EEEvPT_DpOT0_, symObjAddr: 0xB254, symBinAddr: 0x100013478, symSize: 0x30 }
  - { offsetInCU: 0x2712F, offset: 0x3C29E, size: 0x8, addend: 0x0, symName: __ZNSt3__117__compressed_pairIPN5dgrad6TensorENS_9allocatorIS2_EEE6secondB8ue170006Ev, symObjAddr: 0xB284, symBinAddr: 0x1000134A8, symSize: 0x24 }
  - { offsetInCU: 0x27155, offset: 0x3C2C4, size: 0x8, addend: 0x0, symName: __ZNSt3__122__compressed_pair_elemINS_9allocatorIN5dgrad6TensorEEELi1ELb1EE5__getB8ue170006Ev, symObjAddr: 0xB2A8, symBinAddr: 0x1000134CC, symSize: 0x14 }
  - { offsetInCU: 0x2717B, offset: 0x3C2EA, size: 0x8, addend: 0x0, symName: __ZNSt3__16vectorIN5dgrad6TensorENS_9allocatorIS2_EEE21_ConstructTransactionD2B8ue170006Ev, symObjAddr: 0xB2BC, symBinAddr: 0x1000134E0, symSize: 0x20 }
  - { offsetInCU: 0x271A5, offset: 0x3C314, size: 0x8, addend: 0x0, symName: __ZNKSt3__16vectorIN5dgrad6TensorENS_9allocatorIS2_EEE11__recommendB8ue170006Em, symObjAddr: 0xB2DC, symBinAddr: 0x100013500, symSize: 0xB4 }
  - { offsetInCU: 0x271FA, offset: 0x3C369, size: 0x8, addend: 0x0, symName: __ZNKSt3__16vectorIN5dgrad6TensorENS_9allocatorIS2_EEE4sizeB8ue170006Ev, symObjAddr: 0xB390, symBinAddr: 0x1000135B4, symSize: 0x28 }
  - { offsetInCU: 0x27220, offset: 0x3C38F, size: 0x8, addend: 0x0, symName: __ZNSt3__114__split_bufferIN5dgrad6TensorERNS_9allocatorIS2_EEEC1EmmS5_, symObjAddr: 0xB3B8, symBinAddr: 0x1000135DC, symSize: 0x44 }
  - { offsetInCU: 0x27276, offset: 0x3C3E5, size: 0x8, addend: 0x0, symName: __ZNSt3__114__split_bufferIN5dgrad6TensorERNS_9allocatorIS2_EEED1Ev, symObjAddr: 0xB50C, symBinAddr: 0x100013730, symSize: 0x2C }
  - { offsetInCU: 0x272A2, offset: 0x3C411, size: 0x8, addend: 0x0, symName: __ZNKSt3__16vectorIN5dgrad6TensorENS_9allocatorIS2_EEE8max_sizeEv, symObjAddr: 0xB538, symBinAddr: 0x10001375C, symSize: 0x60 }
  - { offsetInCU: 0x272CA, offset: 0x3C439, size: 0x8, addend: 0x0, symName: __ZNKSt3__16vectorIN5dgrad6TensorENS_9allocatorIS2_EEE20__throw_length_errorB8ue170006Ev, symObjAddr: 0xB598, symBinAddr: 0x1000137BC, symSize: 0x1C }
  - { offsetInCU: 0x272F0, offset: 0x3C45F, size: 0x8, addend: 0x0, symName: __ZNKSt3__16vectorIN5dgrad6TensorENS_9allocatorIS2_EEE8capacityB8ue170006Ev, symObjAddr: 0xB5B4, symBinAddr: 0x1000137D8, symSize: 0x40 }
  - { offsetInCU: 0x27320, offset: 0x3C48F, size: 0x8, addend: 0x0, symName: __ZNSt3__116allocator_traitsINS_9allocatorIN5dgrad6TensorEEEE8max_sizeB8ue170006IS4_vEEmRKS4_, symObjAddr: 0xB620, symBinAddr: 0x100013844, symSize: 0x24 }
  - { offsetInCU: 0x2734E, offset: 0x3C4BD, size: 0x8, addend: 0x0, symName: __ZNKSt3__16vectorIN5dgrad6TensorENS_9allocatorIS2_EEE7__allocB8ue170006Ev, symObjAddr: 0xB644, symBinAddr: 0x100013868, symSize: 0x28 }
  - { offsetInCU: 0x27374, offset: 0x3C4E3, size: 0x8, addend: 0x0, symName: __ZNKSt3__19allocatorIN5dgrad6TensorEE8max_sizeB8ue170006Ev, symObjAddr: 0xB66C, symBinAddr: 0x100013890, symSize: 0x20 }
  - { offsetInCU: 0x2739A, offset: 0x3C509, size: 0x8, addend: 0x0, symName: __ZNKSt3__117__compressed_pairIPN5dgrad6TensorENS_9allocatorIS2_EEE6secondB8ue170006Ev, symObjAddr: 0xB68C, symBinAddr: 0x1000138B0, symSize: 0x24 }
  - { offsetInCU: 0x273C0, offset: 0x3C52F, size: 0x8, addend: 0x0, symName: __ZNKSt3__122__compressed_pair_elemINS_9allocatorIN5dgrad6TensorEEELi1ELb1EE5__getB8ue170006Ev, symObjAddr: 0xB6B0, symBinAddr: 0x1000138D4, symSize: 0x14 }
  - { offsetInCU: 0x273E6, offset: 0x3C555, size: 0x8, addend: 0x0, symName: __ZNKSt3__16vectorIN5dgrad6TensorENS_9allocatorIS2_EEE9__end_capB8ue170006Ev, symObjAddr: 0xB6C4, symBinAddr: 0x1000138E8, symSize: 0x28 }
  - { offsetInCU: 0x2740C, offset: 0x3C57B, size: 0x8, addend: 0x0, symName: __ZNKSt3__117__compressed_pairIPN5dgrad6TensorENS_9allocatorIS2_EEE5firstB8ue170006Ev, symObjAddr: 0xB6EC, symBinAddr: 0x100013910, symSize: 0x24 }
  - { offsetInCU: 0x27432, offset: 0x3C5A1, size: 0x8, addend: 0x0, symName: __ZNKSt3__122__compressed_pair_elemIPN5dgrad6TensorELi0ELb0EE5__getB8ue170006Ev, symObjAddr: 0xB710, symBinAddr: 0x100013934, symSize: 0x14 }
  - { offsetInCU: 0x27458, offset: 0x3C5C7, size: 0x8, addend: 0x0, symName: __ZNSt3__114__split_bufferIN5dgrad6TensorERNS_9allocatorIS2_EEEC2EmmS5_, symObjAddr: 0xB778, symBinAddr: 0x10001399C, symSize: 0xE0 }
  - { offsetInCU: 0x274CB, offset: 0x3C63A, size: 0x8, addend: 0x0, symName: __ZNSt3__117__compressed_pairIPN5dgrad6TensorERNS_9allocatorIS2_EEEC1B8ue170006IDnS6_EEOT_OT0_, symObjAddr: 0xB858, symBinAddr: 0x100013A7C, symSize: 0x3C }
  - { offsetInCU: 0x27523, offset: 0x3C692, size: 0x8, addend: 0x0, symName: __ZNSt3__114__split_bufferIN5dgrad6TensorERNS_9allocatorIS2_EEE7__allocB8ue170006Ev, symObjAddr: 0xB8D4, symBinAddr: 0x100013AF8, symSize: 0x28 }
  - { offsetInCU: 0x27549, offset: 0x3C6B8, size: 0x8, addend: 0x0, symName: __ZNSt3__114__split_bufferIN5dgrad6TensorERNS_9allocatorIS2_EEE9__end_capB8ue170006Ev, symObjAddr: 0xB8FC, symBinAddr: 0x100013B20, symSize: 0x28 }
  - { offsetInCU: 0x2756F, offset: 0x3C6DE, size: 0x8, addend: 0x0, symName: __ZNSt3__117__compressed_pairIPN5dgrad6TensorERNS_9allocatorIS2_EEEC2B8ue170006IDnS6_EEOT_OT0_, symObjAddr: 0xB924, symBinAddr: 0x100013B48, symSize: 0x48 }
  - { offsetInCU: 0x275C7, offset: 0x3C736, size: 0x8, addend: 0x0, symName: __ZNSt3__122__compressed_pair_elemIPN5dgrad6TensorELi0ELb0EEC2B8ue170006IDnvEEOT_, symObjAddr: 0xB96C, symBinAddr: 0x100013B90, symSize: 0x1C }
  - { offsetInCU: 0x27609, offset: 0x3C778, size: 0x8, addend: 0x0, symName: __ZNSt3__122__compressed_pair_elemIRNS_9allocatorIN5dgrad6TensorEEELi1ELb0EEC2B8ue170006IS5_vEEOT_, symObjAddr: 0xB988, symBinAddr: 0x100013BAC, symSize: 0x20 }
  - { offsetInCU: 0x2764B, offset: 0x3C7BA, size: 0x8, addend: 0x0, symName: __ZNSt3__19allocatorIN5dgrad6TensorEE8allocateB8ue170006Em, symObjAddr: 0xB9A8, symBinAddr: 0x100013BCC, symSize: 0x5C }
  - { offsetInCU: 0x2767F, offset: 0x3C7EE, size: 0x8, addend: 0x0, symName: __ZNSt3__117__compressed_pairIPN5dgrad6TensorERNS_9allocatorIS2_EEE6secondB8ue170006Ev, symObjAddr: 0xBA04, symBinAddr: 0x100013C28, symSize: 0x28 }
  - { offsetInCU: 0x276A5, offset: 0x3C814, size: 0x8, addend: 0x0, symName: __ZNSt3__122__compressed_pair_elemIRNS_9allocatorIN5dgrad6TensorEEELi1ELb0EE5__getB8ue170006Ev, symObjAddr: 0xBA2C, symBinAddr: 0x100013C50, symSize: 0x18 }
  - { offsetInCU: 0x276CB, offset: 0x3C83A, size: 0x8, addend: 0x0, symName: __ZNSt3__117__compressed_pairIPN5dgrad6TensorERNS_9allocatorIS2_EEE5firstB8ue170006Ev, symObjAddr: 0xBA44, symBinAddr: 0x100013C68, symSize: 0x24 }
  - { offsetInCU: 0x276F1, offset: 0x3C860, size: 0x8, addend: 0x0, symName: __ZNKSt3__16vectorIN5dgrad6TensorENS_9allocatorIS2_EEE17__annotate_deleteB8ue170006Ev, symObjAddr: 0xBA68, symBinAddr: 0x100013C8C, symSize: 0xD4 }
  - { offsetInCU: 0x27717, offset: 0x3C886, size: 0x8, addend: 0x0, symName: __ZNSt3__116reverse_iteratorIPN5dgrad6TensorEEC1B8ue170006ES3_, symObjAddr: 0xBC68, symBinAddr: 0x100013E8C, symSize: 0x34 }
  - { offsetInCU: 0x2774F, offset: 0x3C8BE, size: 0x8, addend: 0x0, symName: __ZNKSt3__116reverse_iteratorIPN5dgrad6TensorEE4baseB8ue170006Ev, symObjAddr: 0xBC9C, symBinAddr: 0x100013EC0, symSize: 0x18 }
  - { offsetInCU: 0x27775, offset: 0x3C8E4, size: 0x8, addend: 0x0, symName: __ZNKSt3__16vectorIN5dgrad6TensorENS_9allocatorIS2_EEE14__annotate_newB8ue170006Em, symObjAddr: 0xBCF0, symBinAddr: 0x100013F14, symSize: 0xC8 }
  - { offsetInCU: 0x277AA, offset: 0x3C919, size: 0x8, addend: 0x0, symName: __ZNKSt3__16vectorIN5dgrad6TensorENS_9allocatorIS2_EEE31__annotate_contiguous_containerB8ue170006EPKvS7_S7_S7_, symObjAddr: 0xBDB8, symBinAddr: 0x100013FDC, symSize: 0x20 }
  - { offsetInCU: 0x277FC, offset: 0x3C96B, size: 0x8, addend: 0x0, symName: __ZNKSt3__16vectorIN5dgrad6TensorENS_9allocatorIS2_EEE4dataB8ue170006Ev, symObjAddr: 0xBDD8, symBinAddr: 0x100013FFC, symSize: 0x28 }
  - { offsetInCU: 0x27822, offset: 0x3C991, size: 0x8, addend: 0x0, symName: __ZNSt3__129_AllocatorDestroyRangeReverseINS_9allocatorIN5dgrad6TensorEEENS_16reverse_iteratorIPS3_EEEC1B8ue170006ERS4_RS7_SA_, symObjAddr: 0xBE4C, symBinAddr: 0x100014070, symSize: 0x44 }
  - { offsetInCU: 0x2787F, offset: 0x3C9EE, size: 0x8, addend: 0x0, symName: __ZNSt3__116allocator_traitsINS_9allocatorIN5dgrad6TensorEEEE9constructB8ue170006IS3_JS3_EvEEvRS4_PT_DpOT0_, symObjAddr: 0xBED8, symBinAddr: 0x1000140FC, symSize: 0x34 }
  - { offsetInCU: 0x278D6, offset: 0x3CA45, size: 0x8, addend: 0x0, symName: __ZNKSt3__116reverse_iteratorIPN5dgrad6TensorEEdeB8ue170006Ev, symObjAddr: 0xBF30, symBinAddr: 0x100014154, symSize: 0x28 }
  - { offsetInCU: 0x2790A, offset: 0x3CA79, size: 0x8, addend: 0x0, symName: __ZNSt3__116reverse_iteratorIPN5dgrad6TensorEEppB8ue170006Ev, symObjAddr: 0xBF58, symBinAddr: 0x10001417C, symSize: 0x20 }
  - { offsetInCU: 0x27930, offset: 0x3CA9F, size: 0x8, addend: 0x0, symName: __ZNSt3__128__exception_guard_exceptionsINS_29_AllocatorDestroyRangeReverseINS_9allocatorIN5dgrad6TensorEEENS_16reverse_iteratorIPS4_EEEEE10__completeB8ue170006Ev, symObjAddr: 0xBF78, symBinAddr: 0x10001419C, symSize: 0x1C }
  - { offsetInCU: 0x27956, offset: 0x3CAC5, size: 0x8, addend: 0x0, symName: __ZNSt3__128__exception_guard_exceptionsINS_29_AllocatorDestroyRangeReverseINS_9allocatorIN5dgrad6TensorEEENS_16reverse_iteratorIPS4_EEEEED1B8ue170006Ev, symObjAddr: 0xBF94, symBinAddr: 0x1000141B8, symSize: 0x2C }
  - { offsetInCU: 0x27980, offset: 0x3CAEF, size: 0x8, addend: 0x0, symName: __ZNSt3__128__exception_guard_exceptionsINS_29_AllocatorDestroyRangeReverseINS_9allocatorIN5dgrad6TensorEEENS_16reverse_iteratorIPS4_EEEEEC1B8ue170006ES9_, symObjAddr: 0xBFC0, symBinAddr: 0x1000141E4, symSize: 0x34 }
  - { offsetInCU: 0x279B9, offset: 0x3CB28, size: 0x8, addend: 0x0, symName: __ZNSt3__128__exception_guard_exceptionsINS_29_AllocatorDestroyRangeReverseINS_9allocatorIN5dgrad6TensorEEENS_16reverse_iteratorIPS4_EEEEEC2B8ue170006ES9_, symObjAddr: 0xBFF4, symBinAddr: 0x100014218, symSize: 0x30 }
  - { offsetInCU: 0x279F2, offset: 0x3CB61, size: 0x8, addend: 0x0, symName: __ZNSt3__129_AllocatorDestroyRangeReverseINS_9allocatorIN5dgrad6TensorEEENS_16reverse_iteratorIPS3_EEEC2B8ue170006ERS4_RS7_SA_, symObjAddr: 0xC024, symBinAddr: 0x100014248, symSize: 0x38 }
  - { offsetInCU: 0x27A49, offset: 0x3CBB8, size: 0x8, addend: 0x0, symName: __ZNSt3__19allocatorIN5dgrad6TensorEE9constructB8ue170006IS2_JS2_EEEvPT_DpOT0_, symObjAddr: 0xC05C, symBinAddr: 0x100014280, symSize: 0x30 }
  - { offsetInCU: 0x27A9F, offset: 0x3CC0E, size: 0x8, addend: 0x0, symName: __ZN5dgrad6TensorC1EOS0_, symObjAddr: 0xC08C, symBinAddr: 0x1000142B0, symSize: 0x34 }
  - { offsetInCU: 0x27AD4, offset: 0x3CC43, size: 0x8, addend: 0x0, symName: __ZN5dgrad6TensorC2EOS0_, symObjAddr: 0xC0C0, symBinAddr: 0x1000142E4, symSize: 0x90 }
  - { offsetInCU: 0x27B09, offset: 0x3CC78, size: 0x8, addend: 0x0, symName: __ZNSt3__18functionIFvvEEC1EOS2_, symObjAddr: 0xC150, symBinAddr: 0x100014374, symSize: 0x34 }
  - { offsetInCU: 0x27B44, offset: 0x3CCB3, size: 0x8, addend: 0x0, symName: __ZNSt3__16vectorIPN5dgrad6TensorENS_9allocatorIS3_EEEC1B8ue170006EOS6_, symObjAddr: 0xC184, symBinAddr: 0x1000143A8, symSize: 0x34 }
  - { offsetInCU: 0x27B7F, offset: 0x3CCEE, size: 0x8, addend: 0x0, symName: __ZNSt3__16vectorIdNS_9allocatorIdEEEC1B8ue170006EOS3_, symObjAddr: 0xC1B8, symBinAddr: 0x1000143DC, symSize: 0x34 }
  - { offsetInCU: 0x27BBA, offset: 0x3CD29, size: 0x8, addend: 0x0, symName: __ZNSt3__18functionIFvvEEC2EOS2_, symObjAddr: 0xC1EC, symBinAddr: 0x100014410, symSize: 0x34 }
  - { offsetInCU: 0x27BF5, offset: 0x3CD64, size: 0x8, addend: 0x0, symName: __ZNSt3__110__function12__value_funcIFvvEEC1B8ue170006EOS3_, symObjAddr: 0xC220, symBinAddr: 0x100014444, symSize: 0x34 }
  - { offsetInCU: 0x27C2E, offset: 0x3CD9D, size: 0x8, addend: 0x0, symName: __ZNSt3__110__function12__value_funcIFvvEEC2B8ue170006EOS3_, symObjAddr: 0xC254, symBinAddr: 0x100014478, symSize: 0xC4 }
  - { offsetInCU: 0x27C67, offset: 0x3CDD6, size: 0x8, addend: 0x0, symName: __ZNSt3__16vectorIPN5dgrad6TensorENS_9allocatorIS3_EEEC2B8ue170006EOS6_, symObjAddr: 0xC318, symBinAddr: 0x10001453C, symSize: 0xC4 }
  - { offsetInCU: 0x27CA2, offset: 0x3CE11, size: 0x8, addend: 0x0, symName: __ZNSt3__16vectorIdNS_9allocatorIdEEEC2B8ue170006EOS3_, symObjAddr: 0xC3DC, symBinAddr: 0x100014600, symSize: 0xC4 }
  - { offsetInCU: 0x27CE2, offset: 0x3CE51, size: 0x8, addend: 0x0, symName: __ZNSt3__119__to_address_helperINS_16reverse_iteratorIPN5dgrad6TensorEEEvE6__callB8ue170006ERKS5_, symObjAddr: 0xC4A0, symBinAddr: 0x1000146C4, symSize: 0x38 }
  - { offsetInCU: 0x27D05, offset: 0x3CE74, size: 0x8, addend: 0x0, symName: __ZNKSt3__116reverse_iteratorIPN5dgrad6TensorEEptB8ue170006Ev, symObjAddr: 0xC4D8, symBinAddr: 0x1000146FC, symSize: 0x24 }
  - { offsetInCU: 0x27D2B, offset: 0x3CE9A, size: 0x8, addend: 0x0, symName: __ZNSt3__128__exception_guard_exceptionsINS_29_AllocatorDestroyRangeReverseINS_9allocatorIN5dgrad6TensorEEENS_16reverse_iteratorIPS4_EEEEED2B8ue170006Ev, symObjAddr: 0xC4FC, symBinAddr: 0x100014720, symSize: 0x50 }
  - { offsetInCU: 0x27D55, offset: 0x3CEC4, size: 0x8, addend: 0x0, symName: __ZNKSt3__129_AllocatorDestroyRangeReverseINS_9allocatorIN5dgrad6TensorEEENS_16reverse_iteratorIPS3_EEEclB8ue170006Ev, symObjAddr: 0xC54C, symBinAddr: 0x100014770, symSize: 0xB4 }
  - { offsetInCU: 0x27D7C, offset: 0x3CEEB, size: 0x8, addend: 0x0, symName: __ZNSt3__116reverse_iteratorINS0_IPN5dgrad6TensorEEEEC1B8ue170006ES4_, symObjAddr: 0xC670, symBinAddr: 0x100014894, symSize: 0x3C }
  - { offsetInCU: 0x27DB4, offset: 0x3CF23, size: 0x8, addend: 0x0, symName: __ZNSt3__116allocator_traitsINS_9allocatorIN5dgrad6TensorEEEE7destroyB8ue170006IS3_vEEvRS4_PT_, symObjAddr: 0xC70C, symBinAddr: 0x100014930, symSize: 0x2C }
  - { offsetInCU: 0x27DF1, offset: 0x3CF60, size: 0x8, addend: 0x0, symName: __ZNSt3__116reverse_iteratorINS0_IPN5dgrad6TensorEEEEppB8ue170006Ev, symObjAddr: 0xC75C, symBinAddr: 0x100014980, symSize: 0x30 }
  - { offsetInCU: 0x27E17, offset: 0x3CF86, size: 0x8, addend: 0x0, symName: __ZNKSt3__116reverse_iteratorINS0_IPN5dgrad6TensorEEEE4baseB8ue170006Ev, symObjAddr: 0xC78C, symBinAddr: 0x1000149B0, symSize: 0x24 }
  - { offsetInCU: 0x27E3D, offset: 0x3CFAC, size: 0x8, addend: 0x0, symName: __ZNSt3__19allocatorIN5dgrad6TensorEE7destroyB8ue170006EPS2_, symObjAddr: 0xC7B0, symBinAddr: 0x1000149D4, symSize: 0x28 }
  - { offsetInCU: 0x27E76, offset: 0x3CFE5, size: 0x8, addend: 0x0, symName: __ZNSt3__119__to_address_helperINS_16reverse_iteratorINS1_IPN5dgrad6TensorEEEEEvE6__callB8ue170006ERKS6_, symObjAddr: 0xC7D8, symBinAddr: 0x1000149FC, symSize: 0x38 }
  - { offsetInCU: 0x27E99, offset: 0x3D008, size: 0x8, addend: 0x0, symName: __ZNKSt3__116reverse_iteratorINS0_IPN5dgrad6TensorEEEEptB8ue170006Ev, symObjAddr: 0xC810, symBinAddr: 0x100014A34, symSize: 0x24 }
  - { offsetInCU: 0x27EBF, offset: 0x3D02E, size: 0x8, addend: 0x0, symName: __ZNKSt3__116reverse_iteratorINS0_IPN5dgrad6TensorEEEEdeB8ue170006Ev, symObjAddr: 0xC834, symBinAddr: 0x100014A58, symSize: 0x34 }
  - { offsetInCU: 0x27EF3, offset: 0x3D062, size: 0x8, addend: 0x0, symName: __ZNSt3__116reverse_iteratorIPN5dgrad6TensorEEmmB8ue170006Ev, symObjAddr: 0xC868, symBinAddr: 0x100014A8C, symSize: 0x20 }
  - { offsetInCU: 0x27F19, offset: 0x3D088, size: 0x8, addend: 0x0, symName: __ZNSt3__116reverse_iteratorINS0_IPN5dgrad6TensorEEEEC2B8ue170006ES4_, symObjAddr: 0xC888, symBinAddr: 0x100014AAC, symSize: 0x2C }
  - { offsetInCU: 0x27F51, offset: 0x3D0C0, size: 0x8, addend: 0x0, symName: __ZNSt3__116reverse_iteratorIPN5dgrad6TensorEEC2B8ue170006ES3_, symObjAddr: 0xC8B4, symBinAddr: 0x100014AD8, symSize: 0x28 }
  - { offsetInCU: 0x27F89, offset: 0x3D0F8, size: 0x8, addend: 0x0, symName: __ZNSt3__114__split_bufferIN5dgrad6TensorERNS_9allocatorIS2_EEED2Ev, symObjAddr: 0xC8DC, symBinAddr: 0x100014B00, symSize: 0x8C }
  - { offsetInCU: 0x27FB5, offset: 0x3D124, size: 0x8, addend: 0x0, symName: __ZNSt3__114__split_bufferIN5dgrad6TensorERNS_9allocatorIS2_EEE5clearB8ue170006Ev, symObjAddr: 0xC968, symBinAddr: 0x100014B8C, symSize: 0x28 }
  - { offsetInCU: 0x27FDB, offset: 0x3D14A, size: 0x8, addend: 0x0, symName: __ZNSt3__116allocator_traitsINS_9allocatorIN5dgrad6TensorEEEE10deallocateB8ue170006ERS4_PS3_m, symObjAddr: 0xC990, symBinAddr: 0x100014BB4, symSize: 0x34 }
  - { offsetInCU: 0x2801D, offset: 0x3D18C, size: 0x8, addend: 0x0, symName: __ZNKSt3__114__split_bufferIN5dgrad6TensorERNS_9allocatorIS2_EEE8capacityB8ue170006Ev, symObjAddr: 0xC9C4, symBinAddr: 0x100014BE8, symSize: 0x40 }
  - { offsetInCU: 0x28043, offset: 0x3D1B2, size: 0x8, addend: 0x0, symName: __ZNSt3__114__split_bufferIN5dgrad6TensorERNS_9allocatorIS2_EEE17__destruct_at_endB8ue170006EPS2_, symObjAddr: 0xCA04, symBinAddr: 0x100014C28, symSize: 0x2C }
  - { offsetInCU: 0x28077, offset: 0x3D1E6, size: 0x8, addend: 0x0, symName: __ZNSt3__114__split_bufferIN5dgrad6TensorERNS_9allocatorIS2_EEE17__destruct_at_endB8ue170006EPS2_NS_17integral_constantIbLb0EEE, symObjAddr: 0xCA30, symBinAddr: 0x100014C54, symSize: 0x80 }
  - { offsetInCU: 0x280B7, offset: 0x3D226, size: 0x8, addend: 0x0, symName: __ZNSt3__19allocatorIN5dgrad6TensorEE10deallocateB8ue170006EPS2_m, symObjAddr: 0xCAB0, symBinAddr: 0x100014CD4, symSize: 0x44 }
  - { offsetInCU: 0x280F9, offset: 0x3D268, size: 0x8, addend: 0x0, symName: __ZNKSt3__114__split_bufferIN5dgrad6TensorERNS_9allocatorIS2_EEE9__end_capB8ue170006Ev, symObjAddr: 0xCAF4, symBinAddr: 0x100014D18, symSize: 0x28 }
  - { offsetInCU: 0x2811F, offset: 0x3D28E, size: 0x8, addend: 0x0, symName: __ZNKSt3__117__compressed_pairIPN5dgrad6TensorERNS_9allocatorIS2_EEE5firstB8ue170006Ev, symObjAddr: 0xCB1C, symBinAddr: 0x100014D40, symSize: 0x24 }
  - { offsetInCU: 0x28145, offset: 0x3D2B4, size: 0x8, addend: 0x0, symName: __ZNSt3__16vectorIPN5dgrad6TensorENS_9allocatorIS3_EEE22__construct_one_at_endB8ue170006IJRKS3_EEEvDpOT_, symObjAddr: 0xCB40, symBinAddr: 0x100014D64, symSize: 0x90 }
  - { offsetInCU: 0x28194, offset: 0x3D303, size: 0x8, addend: 0x0, symName: __ZNSt3__16vectorIPN5dgrad6TensorENS_9allocatorIS3_EEE21__push_back_slow_pathIRKS3_EEvOT_, symObjAddr: 0xCBD0, symBinAddr: 0x100014DF4, symSize: 0xD8 }
  - { offsetInCU: 0x281F2, offset: 0x3D361, size: 0x8, addend: 0x0, symName: __ZNSt3__116allocator_traitsINS_9allocatorIPN5dgrad6TensorEEEE9constructB8ue170006IS4_JRKS4_EvEEvRS5_PT_DpOT0_, symObjAddr: 0xCCA8, symBinAddr: 0x100014ECC, symSize: 0x34 }
  - { offsetInCU: 0x28249, offset: 0x3D3B8, size: 0x8, addend: 0x0, symName: __ZNSt3__19allocatorIPN5dgrad6TensorEE9constructB8ue170006IS3_JRKS3_EEEvPT_DpOT0_, symObjAddr: 0xCCDC, symBinAddr: 0x100014F00, symSize: 0x28 }
  - { offsetInCU: 0x2829F, offset: 0x3D40E, size: 0x8, addend: 0x0, symName: __ZNKSt3__16vectorIPN5dgrad6TensorENS_9allocatorIS3_EEE11__recommendB8ue170006Em, symObjAddr: 0xCD04, symBinAddr: 0x100014F28, symSize: 0xB4 }
  - { offsetInCU: 0x282F4, offset: 0x3D463, size: 0x8, addend: 0x0, symName: __ZNSt3__114__split_bufferIPN5dgrad6TensorERNS_9allocatorIS3_EEEC1EmmS6_, symObjAddr: 0xCDB8, symBinAddr: 0x100014FDC, symSize: 0x44 }
  - { offsetInCU: 0x2834A, offset: 0x3D4B9, size: 0x8, addend: 0x0, symName: __ZNSt3__114__split_bufferIPN5dgrad6TensorERNS_9allocatorIS3_EEED1Ev, symObjAddr: 0xCF0C, symBinAddr: 0x100015130, symSize: 0x2C }
  - { offsetInCU: 0x28376, offset: 0x3D4E5, size: 0x8, addend: 0x0, symName: __ZNSt3__114__split_bufferIPN5dgrad6TensorERNS_9allocatorIS3_EEEC2EmmS6_, symObjAddr: 0xCF38, symBinAddr: 0x10001515C, symSize: 0xD4 }
  - { offsetInCU: 0x283E9, offset: 0x3D558, size: 0x8, addend: 0x0, symName: __ZNSt3__117__compressed_pairIPPN5dgrad6TensorERNS_9allocatorIS3_EEEC1B8ue170006IDnS7_EEOT_OT0_, symObjAddr: 0xD00C, symBinAddr: 0x100015230, symSize: 0x3C }
  - { offsetInCU: 0x28441, offset: 0x3D5B0, size: 0x8, addend: 0x0, symName: __ZNSt3__114__split_bufferIPN5dgrad6TensorERNS_9allocatorIS3_EEE7__allocB8ue170006Ev, symObjAddr: 0xD048, symBinAddr: 0x10001526C, symSize: 0x28 }
  - { offsetInCU: 0x28467, offset: 0x3D5D6, size: 0x8, addend: 0x0, symName: __ZNSt3__114__split_bufferIPN5dgrad6TensorERNS_9allocatorIS3_EEE9__end_capB8ue170006Ev, symObjAddr: 0xD070, symBinAddr: 0x100015294, symSize: 0x28 }
  - { offsetInCU: 0x2848D, offset: 0x3D5FC, size: 0x8, addend: 0x0, symName: __ZNSt3__117__compressed_pairIPPN5dgrad6TensorERNS_9allocatorIS3_EEEC2B8ue170006IDnS7_EEOT_OT0_, symObjAddr: 0xD098, symBinAddr: 0x1000152BC, symSize: 0x48 }
  - { offsetInCU: 0x284E5, offset: 0x3D654, size: 0x8, addend: 0x0, symName: __ZNSt3__122__compressed_pair_elemIRNS_9allocatorIPN5dgrad6TensorEEELi1ELb0EEC2B8ue170006IS6_vEEOT_, symObjAddr: 0xD0E0, symBinAddr: 0x100015304, symSize: 0x20 }
  - { offsetInCU: 0x28527, offset: 0x3D696, size: 0x8, addend: 0x0, symName: __ZNSt3__117__compressed_pairIPPN5dgrad6TensorERNS_9allocatorIS3_EEE6secondB8ue170006Ev, symObjAddr: 0xD100, symBinAddr: 0x100015324, symSize: 0x28 }
  - { offsetInCU: 0x2854D, offset: 0x3D6BC, size: 0x8, addend: 0x0, symName: __ZNSt3__122__compressed_pair_elemIRNS_9allocatorIPN5dgrad6TensorEEELi1ELb0EE5__getB8ue170006Ev, symObjAddr: 0xD128, symBinAddr: 0x10001534C, symSize: 0x18 }
  - { offsetInCU: 0x28573, offset: 0x3D6E2, size: 0x8, addend: 0x0, symName: __ZNSt3__117__compressed_pairIPPN5dgrad6TensorERNS_9allocatorIS3_EEE5firstB8ue170006Ev, symObjAddr: 0xD140, symBinAddr: 0x100015364, symSize: 0x24 }
  - { offsetInCU: 0x28599, offset: 0x3D708, size: 0x8, addend: 0x0, symName: __ZNSt3__116reverse_iteratorIPPN5dgrad6TensorEEC1B8ue170006ES4_, symObjAddr: 0xD1DC, symBinAddr: 0x100015400, symSize: 0x34 }
  - { offsetInCU: 0x285D1, offset: 0x3D740, size: 0x8, addend: 0x0, symName: __ZNKSt3__116reverse_iteratorIPPN5dgrad6TensorEE4baseB8ue170006Ev, symObjAddr: 0xD210, symBinAddr: 0x100015434, symSize: 0x18 }
  - { offsetInCU: 0x2861B, offset: 0x3D78A, size: 0x8, addend: 0x0, symName: __ZNKSt3__111__move_loopINS_17_ClassicAlgPolicyEEclB8ue170006INS_16reverse_iteratorIPPN5dgrad6TensorEEES9_S9_EENS_4pairIT_T1_EESB_T0_SC_, symObjAddr: 0xD554, symBinAddr: 0x100015778, symSize: 0xA0 }
  - { offsetInCU: 0x2868C, offset: 0x3D7FB, size: 0x8, addend: 0x0, symName: __ZNSt3__18_IterOpsINS_17_ClassicAlgPolicyEE11__iter_moveB8ue170006IRNS_16reverse_iteratorIPPN5dgrad6TensorEEEEENS_9enable_ifIXsr12is_referenceIDTdeclsr3stdE7declvalIRT_EEEEE5valueEDTclsr3stdE4movedeclsr3stdE7declvalISD_EEEEE4typeEOSC_, symObjAddr: 0xD788, symBinAddr: 0x1000159AC, symSize: 0x28 }
  - { offsetInCU: 0x286B8, offset: 0x3D827, size: 0x8, addend: 0x0, symName: __ZNKSt3__116reverse_iteratorIPPN5dgrad6TensorEEdeB8ue170006Ev, symObjAddr: 0xD7B0, symBinAddr: 0x1000159D4, symSize: 0x28 }
  - { offsetInCU: 0x286EC, offset: 0x3D85B, size: 0x8, addend: 0x0, symName: __ZNSt3__116reverse_iteratorIPPN5dgrad6TensorEEppB8ue170006Ev, symObjAddr: 0xD7D8, symBinAddr: 0x1000159FC, symSize: 0x20 }
  - { offsetInCU: 0x28712, offset: 0x3D881, size: 0x8, addend: 0x0, symName: __ZNSt3__18_IterOpsINS_17_ClassicAlgPolicyEE25__validate_iter_referenceB8ue170006IRNS_16reverse_iteratorIPPN5dgrad6TensorEEEEEvv, symObjAddr: 0xD7F8, symBinAddr: 0x100015A1C, symSize: 0x4 }
  - { offsetInCU: 0x28730, offset: 0x3D89F, size: 0x8, addend: 0x0, symName: __ZNSt3__118__unwrap_iter_implINS_16reverse_iteratorIPPN5dgrad6TensorEEELb0EE8__unwrapB8ue170006ES6_, symObjAddr: 0xD7FC, symBinAddr: 0x100015A20, symSize: 0x24 }
  - { offsetInCU: 0x28759, offset: 0x3D8C8, size: 0x8, addend: 0x0, symName: __ZNSt3__14pairINS_16reverse_iteratorIPPN5dgrad6TensorEEES6_EC1B8ue170006IS6_S6_LPv0EEEOT_OT0_, symObjAddr: 0xD820, symBinAddr: 0x100015A44, symSize: 0x3C }
  - { offsetInCU: 0x287B7, offset: 0x3D926, size: 0x8, addend: 0x0, symName: __ZNSt3__14pairINS_16reverse_iteratorIPPN5dgrad6TensorEEES6_EC2B8ue170006IS6_S6_LPv0EEEOT_OT0_, symObjAddr: 0xD85C, symBinAddr: 0x100015A80, symSize: 0x34 }
  - { offsetInCU: 0x28815, offset: 0x3D984, size: 0x8, addend: 0x0, symName: __ZNSt3__118__unwrap_iter_implINS_16reverse_iteratorIPPN5dgrad6TensorEEELb0EE8__rewrapB8ue170006ES6_S6_, symObjAddr: 0xD890, symBinAddr: 0x100015AB4, symSize: 0x2C }
  - { offsetInCU: 0x28842, offset: 0x3D9B1, size: 0x8, addend: 0x0, symName: __ZNSt3__116reverse_iteratorIPPN5dgrad6TensorEEC2B8ue170006ES4_, symObjAddr: 0xD8BC, symBinAddr: 0x100015AE0, symSize: 0x28 }
  - { offsetInCU: 0x2887A, offset: 0x3D9E9, size: 0x8, addend: 0x0, symName: __ZNSt3__114__split_bufferIPN5dgrad6TensorERNS_9allocatorIS3_EEED2Ev, symObjAddr: 0xD8E4, symBinAddr: 0x100015B08, symSize: 0x8C }
  - { offsetInCU: 0x288A6, offset: 0x3DA15, size: 0x8, addend: 0x0, symName: __ZNSt3__114__split_bufferIPN5dgrad6TensorERNS_9allocatorIS3_EEE5clearB8ue170006Ev, symObjAddr: 0xD970, symBinAddr: 0x100015B94, symSize: 0x28 }
  - { offsetInCU: 0x288CC, offset: 0x3DA3B, size: 0x8, addend: 0x0, symName: __ZNKSt3__114__split_bufferIPN5dgrad6TensorERNS_9allocatorIS3_EEE8capacityB8ue170006Ev, symObjAddr: 0xD998, symBinAddr: 0x100015BBC, symSize: 0x40 }
  - { offsetInCU: 0x288F2, offset: 0x3DA61, size: 0x8, addend: 0x0, symName: __ZNSt3__114__split_bufferIPN5dgrad6TensorERNS_9allocatorIS3_EEE17__destruct_at_endB8ue170006EPS3_, symObjAddr: 0xD9D8, symBinAddr: 0x100015BFC, symSize: 0x2C }
  - { offsetInCU: 0x28926, offset: 0x3DA95, size: 0x8, addend: 0x0, symName: __ZNSt3__114__split_bufferIPN5dgrad6TensorERNS_9allocatorIS3_EEE17__destruct_at_endB8ue170006EPS3_NS_17integral_constantIbLb0EEE, symObjAddr: 0xDA04, symBinAddr: 0x100015C28, symSize: 0x80 }
  - { offsetInCU: 0x28966, offset: 0x3DAD5, size: 0x8, addend: 0x0, symName: __ZNKSt3__114__split_bufferIPN5dgrad6TensorERNS_9allocatorIS3_EEE9__end_capB8ue170006Ev, symObjAddr: 0xDA84, symBinAddr: 0x100015CA8, symSize: 0x28 }
  - { offsetInCU: 0x2898C, offset: 0x3DAFB, size: 0x8, addend: 0x0, symName: __ZNKSt3__117__compressed_pairIPPN5dgrad6TensorERNS_9allocatorIS3_EEE5firstB8ue170006Ev, symObjAddr: 0xDAAC, symBinAddr: 0x100015CD0, symSize: 0x24 }
  - { offsetInCU: 0x289B2, offset: 0x3DB21, size: 0x8, addend: 0x0, symName: '__ZNSt3__18functionIFvvEEC1IZN5dgrad3addEPNS4_6TensorES6_E3$_0vEET_', symObjAddr: 0xDAD0, symBinAddr: 0x100015CF4, symSize: 0x34 }
  - { offsetInCU: 0x289F8, offset: 0x3DB67, size: 0x8, addend: 0x0, symName: __ZNSt3__18functionIFvvEE4swapERS2_, symObjAddr: 0xDB04, symBinAddr: 0x100015D28, symSize: 0x2C }
  - { offsetInCU: 0x28A2F, offset: 0x3DB9E, size: 0x8, addend: 0x0, symName: '__ZNSt3__18functionIFvvEEC2IZN5dgrad3addEPNS4_6TensorES6_E3$_0vEET_', symObjAddr: 0xDB30, symBinAddr: 0x100015D54, symSize: 0x34 }
  - { offsetInCU: 0x28A75, offset: 0x3DBE4, size: 0x8, addend: 0x0, symName: '__ZNSt3__110__function12__value_funcIFvvEEC1B8ue170006IZN5dgrad3addEPNS5_6TensorES7_E3$_0vEEOT_', symObjAddr: 0xDB64, symBinAddr: 0x100015D88, symSize: 0x50 }
  - { offsetInCU: 0x28AB8, offset: 0x3DC27, size: 0x8, addend: 0x0, symName: '__ZNSt3__19allocatorIZN5dgrad3addEPNS1_6TensorES3_E3$_0EC1B8ue170006Ev', symObjAddr: 0xDBB4, symBinAddr: 0x100015DD8, symSize: 0x2C }
  - { offsetInCU: 0x28AE2, offset: 0x3DC51, size: 0x8, addend: 0x0, symName: '__ZNSt3__110__function12__value_funcIFvvEEC1B8ue170006IZN5dgrad3addEPNS5_6TensorES7_E3$_0NS_9allocatorIS8_EEEEOT_RKT0_', symObjAddr: 0xDBE0, symBinAddr: 0x100015E04, symSize: 0x3C }
  - { offsetInCU: 0x28B3C, offset: 0x3DCAB, size: 0x8, addend: 0x0, symName: '__ZNSt3__19allocatorIZN5dgrad3addEPNS1_6TensorES3_E3$_0EC2B8ue170006Ev', symObjAddr: 0xDC1C, symBinAddr: 0x100015E40, symSize: 0x2C }
  - { offsetInCU: 0x28B66, offset: 0x3DCD5, size: 0x8, addend: 0x0, symName: '__ZNSt3__116__non_trivial_ifILb1ENS_9allocatorIZN5dgrad3addEPNS2_6TensorES4_E3$_0EEEC2B8ue170006Ev', symObjAddr: 0xDC48, symBinAddr: 0x100015E6C, symSize: 0x14 }
  - { offsetInCU: 0x28B90, offset: 0x3DCFF, size: 0x8, addend: 0x0, symName: '__ZNSt3__110__function12__value_funcIFvvEEC2B8ue170006IZN5dgrad3addEPNS5_6TensorES7_E3$_0NS_9allocatorIS8_EEEEOT_RKT0_', symObjAddr: 0xDC5C, symBinAddr: 0x100015E80, symSize: 0xF4 }
  - { offsetInCU: 0x28C43, offset: 0x3DDB2, size: 0x8, addend: 0x0, symName: '__ZNSt3__19allocatorINS_10__function6__funcIZN5dgrad3addEPNS3_6TensorES5_E3$_0NS0_IS6_EEFvvEEEEC1B8ue170006IS6_EERKNS0_IT_EE', symObjAddr: 0xDD68, symBinAddr: 0x100015F8C, symSize: 0x34 }
  - { offsetInCU: 0x28C80, offset: 0x3DDEF, size: 0x8, addend: 0x0, symName: '__ZNSt3__19allocatorINS_10__function6__funcIZN5dgrad3addEPNS3_6TensorES5_E3$_0NS0_IS6_EEFvvEEEE8allocateB8ue170006Em', symObjAddr: 0xDD9C, symBinAddr: 0x100015FC0, symSize: 0x58 }
  - { offsetInCU: 0x28CC3, offset: 0x3DE32, size: 0x8, addend: 0x0, symName: '__ZNSt3__122__allocator_destructorINS_9allocatorINS_10__function6__funcIZN5dgrad3addEPNS4_6TensorES6_E3$_0NS1_IS7_EEFvvEEEEEEC1B8ue170006ERSB_m', symObjAddr: 0xDDF4, symBinAddr: 0x100016018, symSize: 0x3C }
  - { offsetInCU: 0x28D97, offset: 0x3DF06, size: 0x8, addend: 0x0, symName: '__ZNSt3__110unique_ptrINS_10__function6__baseIFvvEEENS_22__allocator_destructorINS_9allocatorINS1_6__funcIZN5dgrad3addEPNS8_6TensorESA_E3$_0NS6_ISB_EES3_EEEEEEEC1B8ue170006ILb1EvEEPSD_NS_16__dependent_typeINS_27__unique_ptr_deleter_sfinaeISF_EEXT_EE20__good_rval_ref_typeE', symObjAddr: 0xDE30, symBinAddr: 0x100016054, symSize: 0x3C }
  - { offsetInCU: 0x28DE8, offset: 0x3DF57, size: 0x8, addend: 0x0, symName: '__ZNKSt3__110unique_ptrINS_10__function6__baseIFvvEEENS_22__allocator_destructorINS_9allocatorINS1_6__funcIZN5dgrad3addEPNS8_6TensorESA_E3$_0NS6_ISB_EES3_EEEEEEE3getB8ue170006Ev', symObjAddr: 0xDE6C, symBinAddr: 0x100016090, symSize: 0x28 }
  - { offsetInCU: 0x28E0E, offset: 0x3DF7D, size: 0x8, addend: 0x0, symName: '__ZNSt3__110__function6__funcIZN5dgrad3addEPNS2_6TensorES4_E3$_0NS_9allocatorIS5_EEFvvEEC1B8ue170006EOS5_OS7_', symObjAddr: 0xDE94, symBinAddr: 0x1000160B8, symSize: 0x3C }
  - { offsetInCU: 0x28E56, offset: 0x3DFC5, size: 0x8, addend: 0x0, symName: '__ZNSt3__110unique_ptrINS_10__function6__baseIFvvEEENS_22__allocator_destructorINS_9allocatorINS1_6__funcIZN5dgrad3addEPNS8_6TensorESA_E3$_0NS6_ISB_EES3_EEEEEEE7releaseB8ue170006Ev', symObjAddr: 0xDED0, symBinAddr: 0x1000160F4, symSize: 0x44 }
  - { offsetInCU: 0x28E8B, offset: 0x3DFFA, size: 0x8, addend: 0x0, symName: '__ZNSt3__110unique_ptrINS_10__function6__baseIFvvEEENS_22__allocator_destructorINS_9allocatorINS1_6__funcIZN5dgrad3addEPNS8_6TensorESA_E3$_0NS6_ISB_EES3_EEEEEEED1B8ue170006Ev', symObjAddr: 0xDF14, symBinAddr: 0x100016138, symSize: 0x2C }
  - { offsetInCU: 0x28EB5, offset: 0x3E024, size: 0x8, addend: 0x0, symName: '__ZNSt3__19allocatorINS_10__function6__funcIZN5dgrad3addEPNS3_6TensorES5_E3$_0NS0_IS6_EEFvvEEEEC2B8ue170006IS6_EERKNS0_IT_EE', symObjAddr: 0xDF40, symBinAddr: 0x100016164, symSize: 0x30 }
  - { offsetInCU: 0x28EF2, offset: 0x3E061, size: 0x8, addend: 0x0, symName: '__ZNSt3__116__non_trivial_ifILb1ENS_9allocatorINS_10__function6__funcIZN5dgrad3addEPNS4_6TensorES6_E3$_0NS1_IS7_EEFvvEEEEEEC2B8ue170006Ev', symObjAddr: 0xDF70, symBinAddr: 0x100016194, symSize: 0x14 }
  - { offsetInCU: 0x28F26, offset: 0x3E095, size: 0x8, addend: 0x0, symName: '__ZNSt3__116allocator_traitsINS_9allocatorINS_10__function6__funcIZN5dgrad3addEPNS4_6TensorES6_E3$_0NS1_IS7_EEFvvEEEEEE8max_sizeB8ue170006ISB_vEEmRKSB_', symObjAddr: 0xDF84, symBinAddr: 0x1000161A8, symSize: 0x24 }
  - { offsetInCU: 0x28F54, offset: 0x3E0C3, size: 0x8, addend: 0x0, symName: '__ZNKSt3__19allocatorINS_10__function6__funcIZN5dgrad3addEPNS3_6TensorES5_E3$_0NS0_IS6_EEFvvEEEE8max_sizeB8ue170006Ev', symObjAddr: 0xDFA8, symBinAddr: 0x1000161CC, symSize: 0x14 }
  - { offsetInCU: 0x28F7A, offset: 0x3E0E9, size: 0x8, addend: 0x0, symName: '__ZNSt3__122__allocator_destructorINS_9allocatorINS_10__function6__funcIZN5dgrad3addEPNS4_6TensorES6_E3$_0NS1_IS7_EEFvvEEEEEEC2B8ue170006ERSB_m', symObjAddr: 0xDFBC, symBinAddr: 0x1000161E0, symSize: 0x2C }
  - { offsetInCU: 0x28FC0, offset: 0x3E12F, size: 0x8, addend: 0x0, symName: '__ZNSt3__110unique_ptrINS_10__function6__baseIFvvEEENS_22__allocator_destructorINS_9allocatorINS1_6__funcIZN5dgrad3addEPNS8_6TensorESA_E3$_0NS6_ISB_EES3_EEEEEEEC2B8ue170006ILb1EvEEPSD_NS_16__dependent_typeINS_27__unique_ptr_deleter_sfinaeISF_EEXT_EE20__good_rval_ref_typeE', symObjAddr: 0xDFE8, symBinAddr: 0x10001620C, symSize: 0x48 }
  - { offsetInCU: 0x29011, offset: 0x3E180, size: 0x8, addend: 0x0, symName: '__ZNSt3__117__compressed_pairIPNS_10__function6__funcIZN5dgrad3addEPNS3_6TensorES5_E3$_0NS_9allocatorIS6_EEFvvEEENS_22__allocator_destructorINS7_ISA_EEEEEC1B8ue170006IRSB_SE_EEOT_OT0_', symObjAddr: 0xE030, symBinAddr: 0x100016254, symSize: 0x3C }
  - { offsetInCU: 0x29069, offset: 0x3E1D8, size: 0x8, addend: 0x0, symName: '__ZNSt3__117__compressed_pairIPNS_10__function6__funcIZN5dgrad3addEPNS3_6TensorES5_E3$_0NS_9allocatorIS6_EEFvvEEENS_22__allocator_destructorINS7_ISA_EEEEEC2B8ue170006IRSB_SE_EEOT_OT0_', symObjAddr: 0xE06C, symBinAddr: 0x100016290, symSize: 0x48 }
  - { offsetInCU: 0x290C1, offset: 0x3E230, size: 0x8, addend: 0x0, symName: '__ZNSt3__122__compressed_pair_elemIPNS_10__function6__funcIZN5dgrad3addEPNS3_6TensorES5_E3$_0NS_9allocatorIS6_EEFvvEEELi0ELb0EEC2B8ue170006IRSB_vEEOT_', symObjAddr: 0xE0B4, symBinAddr: 0x1000162D8, symSize: 0x24 }
  - { offsetInCU: 0x29103, offset: 0x3E272, size: 0x8, addend: 0x0, symName: '__ZNSt3__122__compressed_pair_elemINS_22__allocator_destructorINS_9allocatorINS_10__function6__funcIZN5dgrad3addEPNS5_6TensorES7_E3$_0NS2_IS8_EEFvvEEEEEEELi1ELb0EEC2B8ue170006ISD_vEEOT_', symObjAddr: 0xE0D8, symBinAddr: 0x1000162FC, symSize: 0x24 }
  - { offsetInCU: 0x29145, offset: 0x3E2B4, size: 0x8, addend: 0x0, symName: '__ZNKSt3__117__compressed_pairIPNS_10__function6__funcIZN5dgrad3addEPNS3_6TensorES5_E3$_0NS_9allocatorIS6_EEFvvEEENS_22__allocator_destructorINS7_ISA_EEEEE5firstB8ue170006Ev', symObjAddr: 0xE0FC, symBinAddr: 0x100016320, symSize: 0x24 }
  - { offsetInCU: 0x2916B, offset: 0x3E2DA, size: 0x8, addend: 0x0, symName: '__ZNKSt3__122__compressed_pair_elemIPNS_10__function6__funcIZN5dgrad3addEPNS3_6TensorES5_E3$_0NS_9allocatorIS6_EEFvvEEELi0ELb0EE5__getB8ue170006Ev', symObjAddr: 0xE120, symBinAddr: 0x100016344, symSize: 0x14 }
  - { offsetInCU: 0x29191, offset: 0x3E300, size: 0x8, addend: 0x0, symName: '__ZNSt3__110__function6__funcIZN5dgrad3addEPNS2_6TensorES4_E3$_0NS_9allocatorIS5_EEFvvEEC2B8ue170006EOS5_OS7_', symObjAddr: 0xE134, symBinAddr: 0x100016358, symSize: 0x88 }
  - { offsetInCU: 0x291D9, offset: 0x3E348, size: 0x8, addend: 0x0, symName: '__ZNSt3__110__function12__alloc_funcIZN5dgrad3addEPNS2_6TensorES4_E3$_0NS_9allocatorIS5_EEFvvEEC1B8ue170006EOS5_OS7_', symObjAddr: 0xE1BC, symBinAddr: 0x1000163E0, symSize: 0x3C }
  - { offsetInCU: 0x2921F, offset: 0x3E38E, size: 0x8, addend: 0x0, symName: '__ZNSt3__110__function6__funcIZN5dgrad3addEPNS2_6TensorES4_E3$_0NS_9allocatorIS5_EEFvvEED1Ev', symObjAddr: 0xE1F8, symBinAddr: 0x10001641C, symSize: 0x2C }
  - { offsetInCU: 0x2924C, offset: 0x3E3BB, size: 0x8, addend: 0x0, symName: '__ZNSt3__110__function6__funcIZN5dgrad3addEPNS2_6TensorES4_E3$_0NS_9allocatorIS5_EEFvvEED0Ev', symObjAddr: 0xE224, symBinAddr: 0x100016448, symSize: 0x30 }
  - { offsetInCU: 0x29279, offset: 0x3E3E8, size: 0x8, addend: 0x0, symName: '__ZNKSt3__110__function6__funcIZN5dgrad3addEPNS2_6TensorES4_E3$_0NS_9allocatorIS5_EEFvvEE7__cloneEv', symObjAddr: 0xE254, symBinAddr: 0x100016478, symSize: 0xFC }
  - { offsetInCU: 0x292CB, offset: 0x3E43A, size: 0x8, addend: 0x0, symName: '__ZNKSt3__110__function6__funcIZN5dgrad3addEPNS2_6TensorES4_E3$_0NS_9allocatorIS5_EEFvvEE7__cloneEPNS0_6__baseIS8_EE', symObjAddr: 0xE350, symBinAddr: 0x100016574, symSize: 0x58 }
  - { offsetInCU: 0x29302, offset: 0x3E471, size: 0x8, addend: 0x0, symName: '__ZNSt3__110__function6__funcIZN5dgrad3addEPNS2_6TensorES4_E3$_0NS_9allocatorIS5_EEFvvEE7destroyEv', symObjAddr: 0xE3A8, symBinAddr: 0x1000165CC, symSize: 0x28 }
  - { offsetInCU: 0x2932A, offset: 0x3E499, size: 0x8, addend: 0x0, symName: '__ZNSt3__110__function6__funcIZN5dgrad3addEPNS2_6TensorES4_E3$_0NS_9allocatorIS5_EEFvvEE18destroy_deallocateEv', symObjAddr: 0xE3D0, symBinAddr: 0x1000165F4, symSize: 0x58 }
  - { offsetInCU: 0x2936D, offset: 0x3E4DC, size: 0x8, addend: 0x0, symName: '__ZNSt3__110__function6__funcIZN5dgrad3addEPNS2_6TensorES4_E3$_0NS_9allocatorIS5_EEFvvEEclEv', symObjAddr: 0xE428, symBinAddr: 0x10001664C, symSize: 0x28 }
  - { offsetInCU: 0x29395, offset: 0x3E504, size: 0x8, addend: 0x0, symName: '__ZNKSt3__110__function6__funcIZN5dgrad3addEPNS2_6TensorES4_E3$_0NS_9allocatorIS5_EEFvvEE6targetERKSt9type_info', symObjAddr: 0xE450, symBinAddr: 0x100016674, symSize: 0x60 }
  - { offsetInCU: 0x293CC, offset: 0x3E53B, size: 0x8, addend: 0x0, symName: '__ZNKSt3__110__function6__funcIZN5dgrad3addEPNS2_6TensorES4_E3$_0NS_9allocatorIS5_EEFvvEE11target_typeEv', symObjAddr: 0xE4B0, symBinAddr: 0x1000166D4, symSize: 0x18 }
  - { offsetInCU: 0x293F4, offset: 0x3E563, size: 0x8, addend: 0x0, symName: '__ZNSt3__110__function12__alloc_funcIZN5dgrad3addEPNS2_6TensorES4_E3$_0NS_9allocatorIS5_EEFvvEEC2B8ue170006EOS5_OS7_', symObjAddr: 0xE4C8, symBinAddr: 0x1000166EC, symSize: 0x5C }
  - { offsetInCU: 0x2943A, offset: 0x3E5A9, size: 0x8, addend: 0x0, symName: '__ZNSt3__117__compressed_pairIZN5dgrad3addEPNS1_6TensorES3_E3$_0NS_9allocatorIS4_EEEC1B8ue170006IJOS4_EJOS6_EEENS_21piecewise_construct_tENS_5tupleIJDpT_EEENSC_IJDpT0_EEE', symObjAddr: 0xE57C, symBinAddr: 0x1000167A0, symSize: 0x3C }
  - { offsetInCU: 0x294A4, offset: 0x3E613, size: 0x8, addend: 0x0, symName: '__ZNSt3__15tupleIJOZN5dgrad3addEPNS1_6TensorES3_E3$_0EEC1B8ue170006IJS4_ELi0EEEDpOT_', symObjAddr: 0xE5B8, symBinAddr: 0x1000167DC, symSize: 0x34 }
  - { offsetInCU: 0x294EE, offset: 0x3E65D, size: 0x8, addend: 0x0, symName: '__ZNSt3__15tupleIJOZN5dgrad3addEPNS1_6TensorES3_E3$_0EEC2B8ue170006IJS4_ELi0EEEDpOT_', symObjAddr: 0xE5EC, symBinAddr: 0x100016810, symSize: 0x34 }
  - { offsetInCU: 0x29538, offset: 0x3E6A7, size: 0x8, addend: 0x0, symName: '__ZNSt3__112__tuple_implINS_15__tuple_indicesIJLm0EEEEJOZN5dgrad3addEPNS3_6TensorES5_E3$_0EEC1B8ue170006IJLm0EEJS7_EJEJEJS6_EEENS1_IJXspT_EEEENS_13__tuple_typesIJDpT0_EEENS1_IJXspT1_EEEENSB_IJDpT2_EEEDpOT3_', symObjAddr: 0xE620, symBinAddr: 0x100016844, symSize: 0x34 }
  - { offsetInCU: 0x295C9, offset: 0x3E738, size: 0x8, addend: 0x0, symName: '__ZNSt3__112__tuple_implINS_15__tuple_indicesIJLm0EEEEJOZN5dgrad3addEPNS3_6TensorES5_E3$_0EEC2B8ue170006IJLm0EEJS7_EJEJEJS6_EEENS1_IJXspT_EEEENS_13__tuple_typesIJDpT0_EEENS1_IJXspT1_EEEENSB_IJDpT2_EEEDpOT3_', symObjAddr: 0xE654, symBinAddr: 0x100016878, symSize: 0x34 }
  - { offsetInCU: 0x2965A, offset: 0x3E7C9, size: 0x8, addend: 0x0, symName: '__ZNSt3__112__tuple_leafILm0EOZN5dgrad3addEPNS1_6TensorES3_E3$_0Lb0EEC2B8ue170006IS4_vEEOT_', symObjAddr: 0xE688, symBinAddr: 0x1000168AC, symSize: 0x20 }
  - { offsetInCU: 0x2969D, offset: 0x3E80C, size: 0x8, addend: 0x0, symName: '__ZNSt3__15tupleIJONS_9allocatorIZN5dgrad3addEPNS2_6TensorES4_E3$_0EEEEC1B8ue170006IJS6_ELi0EEEDpOT_', symObjAddr: 0xE6A8, symBinAddr: 0x1000168CC, symSize: 0x34 }
  - { offsetInCU: 0x296E7, offset: 0x3E856, size: 0x8, addend: 0x0, symName: '__ZNSt3__15tupleIJONS_9allocatorIZN5dgrad3addEPNS2_6TensorES4_E3$_0EEEEC2B8ue170006IJS6_ELi0EEEDpOT_', symObjAddr: 0xE6DC, symBinAddr: 0x100016900, symSize: 0x34 }
  - { offsetInCU: 0x29731, offset: 0x3E8A0, size: 0x8, addend: 0x0, symName: '__ZNSt3__112__tuple_implINS_15__tuple_indicesIJLm0EEEEJONS_9allocatorIZN5dgrad3addEPNS4_6TensorES6_E3$_0EEEEC1B8ue170006IJLm0EEJS9_EJEJEJS8_EEENS1_IJXspT_EEEENS_13__tuple_typesIJDpT0_EEENS1_IJXspT1_EEEENSD_IJDpT2_EEEDpOT3_', symObjAddr: 0xE710, symBinAddr: 0x100016934, symSize: 0x34 }
  - { offsetInCU: 0x297C2, offset: 0x3E931, size: 0x8, addend: 0x0, symName: '__ZNSt3__112__tuple_implINS_15__tuple_indicesIJLm0EEEEJONS_9allocatorIZN5dgrad3addEPNS4_6TensorES6_E3$_0EEEEC2B8ue170006IJLm0EEJS9_EJEJEJS8_EEENS1_IJXspT_EEEENS_13__tuple_typesIJDpT0_EEENS1_IJXspT1_EEEENSD_IJDpT2_EEEDpOT3_', symObjAddr: 0xE744, symBinAddr: 0x100016968, symSize: 0x34 }
  - { offsetInCU: 0x29853, offset: 0x3E9C2, size: 0x8, addend: 0x0, symName: '__ZNSt3__112__tuple_leafILm0EONS_9allocatorIZN5dgrad3addEPNS2_6TensorES4_E3$_0EELb0EEC2B8ue170006IS6_vEEOT_', symObjAddr: 0xE778, symBinAddr: 0x10001699C, symSize: 0x20 }
  - { offsetInCU: 0x29896, offset: 0x3EA05, size: 0x8, addend: 0x0, symName: '__ZNSt3__117__compressed_pairIZN5dgrad3addEPNS1_6TensorES3_E3$_0NS_9allocatorIS4_EEEC2B8ue170006IJOS4_EJOS6_EEENS_21piecewise_construct_tENS_5tupleIJDpT_EEENSC_IJDpT0_EEE', symObjAddr: 0xE798, symBinAddr: 0x1000169BC, symSize: 0x54 }
  - { offsetInCU: 0x29900, offset: 0x3EA6F, size: 0x8, addend: 0x0, symName: '__ZNSt3__122__compressed_pair_elemIZN5dgrad3addEPNS1_6TensorES3_E3$_0Li0ELb0EEC2B8ue170006IJOS4_EJLm0EEEENS_21piecewise_construct_tENS_5tupleIJDpT_EEENS_15__tuple_indicesIJXspT0_EEEE', symObjAddr: 0xE7EC, symBinAddr: 0x100016A10, symSize: 0x4C }
  - { offsetInCU: 0x29963, offset: 0x3EAD2, size: 0x8, addend: 0x0, symName: '__ZNSt3__122__compressed_pair_elemINS_9allocatorIZN5dgrad3addEPNS2_6TensorES4_E3$_0EELi1ELb1EEC2B8ue170006IJOS6_EJLm0EEEENS_21piecewise_construct_tENS_5tupleIJDpT_EEENS_15__tuple_indicesIJXspT0_EEEE', symObjAddr: 0xE838, symBinAddr: 0x100016A5C, symSize: 0x38 }
  - { offsetInCU: 0x299C6, offset: 0x3EB35, size: 0x8, addend: 0x0, symName: '__ZNSt3__112__tuple_leafILm0EOZN5dgrad3addEPNS1_6TensorES3_E3$_0Lb0EE3getB8ue170006Ev', symObjAddr: 0xE894, symBinAddr: 0x100016AB8, symSize: 0x18 }
  - { offsetInCU: 0x299EC, offset: 0x3EB5B, size: 0x8, addend: 0x0, symName: '__ZNSt3__112__tuple_leafILm0EONS_9allocatorIZN5dgrad3addEPNS2_6TensorES4_E3$_0EELb0EE3getB8ue170006Ev', symObjAddr: 0xE8D0, symBinAddr: 0x100016AF4, symSize: 0x18 }
  - { offsetInCU: 0x29A12, offset: 0x3EB81, size: 0x8, addend: 0x0, symName: '__ZNSt3__110__function6__funcIZN5dgrad3addEPNS2_6TensorES4_E3$_0NS_9allocatorIS5_EEFvvEED2Ev', symObjAddr: 0xE8E8, symBinAddr: 0x100016B0C, symSize: 0x2C }
  - { offsetInCU: 0x29A3F, offset: 0x3EBAE, size: 0x8, addend: 0x0, symName: '__ZNKSt3__110__function12__alloc_funcIZN5dgrad3addEPNS2_6TensorES4_E3$_0NS_9allocatorIS5_EEFvvEE15__get_allocatorB8ue170006Ev', symObjAddr: 0xE914, symBinAddr: 0x100016B38, symSize: 0x24 }
  - { offsetInCU: 0x29A8E, offset: 0x3EBFD, size: 0x8, addend: 0x0, symName: '__ZNSt3__110unique_ptrINS_10__function6__funcIZN5dgrad3addEPNS3_6TensorES5_E3$_0NS_9allocatorIS6_EEFvvEEENS_22__allocator_destructorINS7_ISA_EEEEEC1B8ue170006ILb1EvEEPSA_NS_16__dependent_typeINS_27__unique_ptr_deleter_sfinaeISD_EEXT_EE20__good_rval_ref_typeE', symObjAddr: 0xE938, symBinAddr: 0x100016B5C, symSize: 0x3C }
  - { offsetInCU: 0x29ADF, offset: 0x3EC4E, size: 0x8, addend: 0x0, symName: '__ZNKSt3__110unique_ptrINS_10__function6__funcIZN5dgrad3addEPNS3_6TensorES5_E3$_0NS_9allocatorIS6_EEFvvEEENS_22__allocator_destructorINS7_ISA_EEEEE3getB8ue170006Ev', symObjAddr: 0xE974, symBinAddr: 0x100016B98, symSize: 0x28 }
  - { offsetInCU: 0x29B05, offset: 0x3EC74, size: 0x8, addend: 0x0, symName: '__ZNKSt3__110__function12__alloc_funcIZN5dgrad3addEPNS2_6TensorES4_E3$_0NS_9allocatorIS5_EEFvvEE8__targetB8ue170006Ev', symObjAddr: 0xE99C, symBinAddr: 0x100016BC0, symSize: 0x24 }
  - { offsetInCU: 0x29B30, offset: 0x3EC9F, size: 0x8, addend: 0x0, symName: '__ZNSt3__19allocatorIZN5dgrad3addEPNS1_6TensorES3_E3$_0EC1B8ue170006INS_10__function6__funcIS4_S5_FvvEEEEERKNS0_IT_EE', symObjAddr: 0xE9C0, symBinAddr: 0x100016BE4, symSize: 0x34 }
  - { offsetInCU: 0x29B6D, offset: 0x3ECDC, size: 0x8, addend: 0x0, symName: '__ZNSt3__110__function6__funcIZN5dgrad3addEPNS2_6TensorES4_E3$_0NS_9allocatorIS5_EEFvvEEC1B8ue170006ERKS5_OS7_', symObjAddr: 0xE9F4, symBinAddr: 0x100016C18, symSize: 0x3C }
  - { offsetInCU: 0x29BB5, offset: 0x3ED24, size: 0x8, addend: 0x0, symName: '__ZNSt3__110unique_ptrINS_10__function6__funcIZN5dgrad3addEPNS3_6TensorES5_E3$_0NS_9allocatorIS6_EEFvvEEENS_22__allocator_destructorINS7_ISA_EEEEE7releaseB8ue170006Ev', symObjAddr: 0xEA30, symBinAddr: 0x100016C54, symSize: 0x44 }
  - { offsetInCU: 0x29BEA, offset: 0x3ED59, size: 0x8, addend: 0x0, symName: '__ZNSt3__110unique_ptrINS_10__function6__funcIZN5dgrad3addEPNS3_6TensorES5_E3$_0NS_9allocatorIS6_EEFvvEEENS_22__allocator_destructorINS7_ISA_EEEEED1B8ue170006Ev', symObjAddr: 0xEA74, symBinAddr: 0x100016C98, symSize: 0x2C }
  - { offsetInCU: 0x29C14, offset: 0x3ED83, size: 0x8, addend: 0x0, symName: '__ZNKSt3__117__compressed_pairIZN5dgrad3addEPNS1_6TensorES3_E3$_0NS_9allocatorIS4_EEE6secondB8ue170006Ev', symObjAddr: 0xEAA0, symBinAddr: 0x100016CC4, symSize: 0x24 }
  - { offsetInCU: 0x29C3A, offset: 0x3EDA9, size: 0x8, addend: 0x0, symName: '__ZNKSt3__122__compressed_pair_elemINS_9allocatorIZN5dgrad3addEPNS2_6TensorES4_E3$_0EELi1ELb1EE5__getB8ue170006Ev', symObjAddr: 0xEAC4, symBinAddr: 0x100016CE8, symSize: 0x14 }
  - { offsetInCU: 0x29C60, offset: 0x3EDCF, size: 0x8, addend: 0x0, symName: '__ZNSt3__110unique_ptrINS_10__function6__funcIZN5dgrad3addEPNS3_6TensorES5_E3$_0NS_9allocatorIS6_EEFvvEEENS_22__allocator_destructorINS7_ISA_EEEEEC2B8ue170006ILb1EvEEPSA_NS_16__dependent_typeINS_27__unique_ptr_deleter_sfinaeISD_EEXT_EE20__good_rval_ref_typeE', symObjAddr: 0xEAD8, symBinAddr: 0x100016CFC, symSize: 0x48 }
  - { offsetInCU: 0x29CB1, offset: 0x3EE20, size: 0x8, addend: 0x0, symName: '__ZNKSt3__117__compressed_pairIZN5dgrad3addEPNS1_6TensorES3_E3$_0NS_9allocatorIS4_EEE5firstB8ue170006Ev', symObjAddr: 0xEB20, symBinAddr: 0x100016D44, symSize: 0x24 }
  - { offsetInCU: 0x29CD7, offset: 0x3EE46, size: 0x8, addend: 0x0, symName: '__ZNKSt3__122__compressed_pair_elemIZN5dgrad3addEPNS1_6TensorES3_E3$_0Li0ELb0EE5__getB8ue170006Ev', symObjAddr: 0xEB44, symBinAddr: 0x100016D68, symSize: 0x14 }
  - { offsetInCU: 0x29CFD, offset: 0x3EE6C, size: 0x8, addend: 0x0, symName: '__ZNSt3__19allocatorIZN5dgrad3addEPNS1_6TensorES3_E3$_0EC2B8ue170006INS_10__function6__funcIS4_S5_FvvEEEEERKNS0_IT_EE', symObjAddr: 0xEB58, symBinAddr: 0x100016D7C, symSize: 0x30 }
  - { offsetInCU: 0x29D3A, offset: 0x3EEA9, size: 0x8, addend: 0x0, symName: '__ZNSt3__110__function6__funcIZN5dgrad3addEPNS2_6TensorES4_E3$_0NS_9allocatorIS5_EEFvvEEC2B8ue170006ERKS5_OS7_', symObjAddr: 0xEB88, symBinAddr: 0x100016DAC, symSize: 0x88 }
  - { offsetInCU: 0x29D82, offset: 0x3EEF1, size: 0x8, addend: 0x0, symName: '__ZNSt3__110__function12__alloc_funcIZN5dgrad3addEPNS2_6TensorES4_E3$_0NS_9allocatorIS5_EEFvvEEC1B8ue170006ERKS5_OS7_', symObjAddr: 0xEC10, symBinAddr: 0x100016E34, symSize: 0x3C }
  - { offsetInCU: 0x29DC8, offset: 0x3EF37, size: 0x8, addend: 0x0, symName: '__ZNSt3__110__function12__alloc_funcIZN5dgrad3addEPNS2_6TensorES4_E3$_0NS_9allocatorIS5_EEFvvEEC2B8ue170006ERKS5_OS7_', symObjAddr: 0xEC4C, symBinAddr: 0x100016E70, symSize: 0x5C }
  - { offsetInCU: 0x29E0E, offset: 0x3EF7D, size: 0x8, addend: 0x0, symName: '__ZNSt3__117__compressed_pairIZN5dgrad3addEPNS1_6TensorES3_E3$_0NS_9allocatorIS4_EEEC1B8ue170006IJRKS4_EJOS6_EEENS_21piecewise_construct_tENS_5tupleIJDpT_EEENSD_IJDpT0_EEE', symObjAddr: 0xECD4, symBinAddr: 0x100016EF8, symSize: 0x3C }
  - { offsetInCU: 0x29E78, offset: 0x3EFE7, size: 0x8, addend: 0x0, symName: '__ZNSt3__15tupleIJRKZN5dgrad3addEPNS1_6TensorES3_E3$_0EEC1B8ue170006INS_4_AndELi0EEES6_', symObjAddr: 0xED10, symBinAddr: 0x100016F34, symSize: 0x34 }
  - { offsetInCU: 0x29EC0, offset: 0x3F02F, size: 0x8, addend: 0x0, symName: '__ZNSt3__15tupleIJRKZN5dgrad3addEPNS1_6TensorES3_E3$_0EEC2B8ue170006INS_4_AndELi0EEES6_', symObjAddr: 0xED44, symBinAddr: 0x100016F68, symSize: 0x34 }
  - { offsetInCU: 0x29F08, offset: 0x3F077, size: 0x8, addend: 0x0, symName: '__ZNSt3__112__tuple_implINS_15__tuple_indicesIJLm0EEEEJRKZN5dgrad3addEPNS3_6TensorES5_E3$_0EEC1B8ue170006IJLm0EEJS8_EJEJEJS8_EEENS1_IJXspT_EEEENS_13__tuple_typesIJDpT0_EEENS1_IJXspT1_EEEENSC_IJDpT2_EEEDpOT3_', symObjAddr: 0xED78, symBinAddr: 0x100016F9C, symSize: 0x34 }
  - { offsetInCU: 0x29F99, offset: 0x3F108, size: 0x8, addend: 0x0, symName: '__ZNSt3__112__tuple_implINS_15__tuple_indicesIJLm0EEEEJRKZN5dgrad3addEPNS3_6TensorES5_E3$_0EEC2B8ue170006IJLm0EEJS8_EJEJEJS8_EEENS1_IJXspT_EEEENS_13__tuple_typesIJDpT0_EEENS1_IJXspT1_EEEENSC_IJDpT2_EEEDpOT3_', symObjAddr: 0xEDAC, symBinAddr: 0x100016FD0, symSize: 0x34 }
  - { offsetInCU: 0x2A02A, offset: 0x3F199, size: 0x8, addend: 0x0, symName: '__ZNSt3__112__tuple_leafILm0ERKZN5dgrad3addEPNS1_6TensorES3_E3$_0Lb0EEC2B8ue170006IS6_vEEOT_', symObjAddr: 0xEDE0, symBinAddr: 0x100017004, symSize: 0x20 }
  - { offsetInCU: 0x2A06D, offset: 0x3F1DC, size: 0x8, addend: 0x0, symName: '__ZNSt3__117__compressed_pairIZN5dgrad3addEPNS1_6TensorES3_E3$_0NS_9allocatorIS4_EEEC2B8ue170006IJRKS4_EJOS6_EEENS_21piecewise_construct_tENS_5tupleIJDpT_EEENSD_IJDpT0_EEE', symObjAddr: 0xEE00, symBinAddr: 0x100017024, symSize: 0x54 }
  - { offsetInCU: 0x2A0D7, offset: 0x3F246, size: 0x8, addend: 0x0, symName: '__ZNSt3__122__compressed_pair_elemIZN5dgrad3addEPNS1_6TensorES3_E3$_0Li0ELb0EEC2B8ue170006IJRKS4_EJLm0EEEENS_21piecewise_construct_tENS_5tupleIJDpT_EEENS_15__tuple_indicesIJXspT0_EEEE', symObjAddr: 0xEE54, symBinAddr: 0x100017078, symSize: 0x4C }
  - { offsetInCU: 0x2A13A, offset: 0x3F2A9, size: 0x8, addend: 0x0, symName: '__ZNSt3__112__tuple_leafILm0ERKZN5dgrad3addEPNS1_6TensorES3_E3$_0Lb0EE3getB8ue170006Ev', symObjAddr: 0xEEC4, symBinAddr: 0x1000170E8, symSize: 0x18 }
  - { offsetInCU: 0x2A160, offset: 0x3F2CF, size: 0x8, addend: 0x0, symName: '__ZNSt3__117__compressed_pairIPNS_10__function6__funcIZN5dgrad3addEPNS3_6TensorES5_E3$_0NS_9allocatorIS6_EEFvvEEENS_22__allocator_destructorINS7_ISA_EEEEE5firstB8ue170006Ev', symObjAddr: 0xEEDC, symBinAddr: 0x100017100, symSize: 0x24 }
  - { offsetInCU: 0x2A186, offset: 0x3F2F5, size: 0x8, addend: 0x0, symName: '__ZNSt3__122__compressed_pair_elemIPNS_10__function6__funcIZN5dgrad3addEPNS3_6TensorES5_E3$_0NS_9allocatorIS6_EEFvvEEELi0ELb0EE5__getB8ue170006Ev', symObjAddr: 0xEF00, symBinAddr: 0x100017124, symSize: 0x14 }
  - { offsetInCU: 0x2A1AC, offset: 0x3F31B, size: 0x8, addend: 0x0, symName: '__ZNSt3__110unique_ptrINS_10__function6__funcIZN5dgrad3addEPNS3_6TensorES5_E3$_0NS_9allocatorIS6_EEFvvEEENS_22__allocator_destructorINS7_ISA_EEEEED2B8ue170006Ev', symObjAddr: 0xEF14, symBinAddr: 0x100017138, symSize: 0x30 }
  - { offsetInCU: 0x2A1D6, offset: 0x3F345, size: 0x8, addend: 0x0, symName: '__ZNSt3__110unique_ptrINS_10__function6__funcIZN5dgrad3addEPNS3_6TensorES5_E3$_0NS_9allocatorIS6_EEFvvEEENS_22__allocator_destructorINS7_ISA_EEEEE5resetB8ue170006EPSA_', symObjAddr: 0xEF44, symBinAddr: 0x100017168, symSize: 0x78 }
  - { offsetInCU: 0x2A21A, offset: 0x3F389, size: 0x8, addend: 0x0, symName: '__ZNSt3__117__compressed_pairIPNS_10__function6__funcIZN5dgrad3addEPNS3_6TensorES5_E3$_0NS_9allocatorIS6_EEFvvEEENS_22__allocator_destructorINS7_ISA_EEEEE6secondB8ue170006Ev', symObjAddr: 0xEFBC, symBinAddr: 0x1000171E0, symSize: 0x28 }
  - { offsetInCU: 0x2A240, offset: 0x3F3AF, size: 0x8, addend: 0x0, symName: '__ZNSt3__122__allocator_destructorINS_9allocatorINS_10__function6__funcIZN5dgrad3addEPNS4_6TensorES6_E3$_0NS1_IS7_EEFvvEEEEEEclB8ue170006EPSA_', symObjAddr: 0xEFE4, symBinAddr: 0x100017208, symSize: 0x34 }
  - { offsetInCU: 0x2A274, offset: 0x3F3E3, size: 0x8, addend: 0x0, symName: '__ZNSt3__122__compressed_pair_elemINS_22__allocator_destructorINS_9allocatorINS_10__function6__funcIZN5dgrad3addEPNS5_6TensorES7_E3$_0NS2_IS8_EEFvvEEEEEEELi1ELb0EE5__getB8ue170006Ev', symObjAddr: 0xF018, symBinAddr: 0x10001723C, symSize: 0x14 }
  - { offsetInCU: 0x2A29A, offset: 0x3F409, size: 0x8, addend: 0x0, symName: '__ZNSt3__116allocator_traitsINS_9allocatorINS_10__function6__funcIZN5dgrad3addEPNS4_6TensorES6_E3$_0NS1_IS7_EEFvvEEEEEE10deallocateB8ue170006ERSB_PSA_m', symObjAddr: 0xF02C, symBinAddr: 0x100017250, symSize: 0x34 }
  - { offsetInCU: 0x2A2DC, offset: 0x3F44B, size: 0x8, addend: 0x0, symName: '__ZNSt3__19allocatorINS_10__function6__funcIZN5dgrad3addEPNS3_6TensorES5_E3$_0NS0_IS6_EEFvvEEEE10deallocateB8ue170006EPS9_m', symObjAddr: 0xF060, symBinAddr: 0x100017284, symSize: 0x40 }
  - { offsetInCU: 0x2A31E, offset: 0x3F48D, size: 0x8, addend: 0x0, symName: '__ZNSt3__110__function6__funcIZN5dgrad3addEPNS2_6TensorES4_E3$_0NS_9allocatorIS5_EEFvvEEC1B8ue170006ERKS5_RKS7_', symObjAddr: 0xF0A0, symBinAddr: 0x1000172C4, symSize: 0x3C }
  - { offsetInCU: 0x2A366, offset: 0x3F4D5, size: 0x8, addend: 0x0, symName: '__ZNSt3__110__function6__funcIZN5dgrad3addEPNS2_6TensorES4_E3$_0NS_9allocatorIS5_EEFvvEEC2B8ue170006ERKS5_RKS7_', symObjAddr: 0xF0DC, symBinAddr: 0x100017300, symSize: 0x88 }
  - { offsetInCU: 0x2A3AE, offset: 0x3F51D, size: 0x8, addend: 0x0, symName: '__ZNSt3__110__function12__alloc_funcIZN5dgrad3addEPNS2_6TensorES4_E3$_0NS_9allocatorIS5_EEFvvEEC1B8ue170006ERKS5_RKS7_', symObjAddr: 0xF164, symBinAddr: 0x100017388, symSize: 0x3C }
  - { offsetInCU: 0x2A3F4, offset: 0x3F563, size: 0x8, addend: 0x0, symName: '__ZNSt3__110__function12__alloc_funcIZN5dgrad3addEPNS2_6TensorES4_E3$_0NS_9allocatorIS5_EEFvvEEC2B8ue170006ERKS5_RKS7_', symObjAddr: 0xF1A0, symBinAddr: 0x1000173C4, symSize: 0x5C }
  - { offsetInCU: 0x2A43A, offset: 0x3F5A9, size: 0x8, addend: 0x0, symName: '__ZNSt3__117__compressed_pairIZN5dgrad3addEPNS1_6TensorES3_E3$_0NS_9allocatorIS4_EEEC1B8ue170006IJRKS4_EJRKS6_EEENS_21piecewise_construct_tENS_5tupleIJDpT_EEENSE_IJDpT0_EEE', symObjAddr: 0xF228, symBinAddr: 0x10001744C, symSize: 0x3C }
  - { offsetInCU: 0x2A4A4, offset: 0x3F613, size: 0x8, addend: 0x0, symName: '__ZNSt3__15tupleIJRKNS_9allocatorIZN5dgrad3addEPNS2_6TensorES4_E3$_0EEEEC1B8ue170006INS_4_AndELi0EEES8_', symObjAddr: 0xF264, symBinAddr: 0x100017488, symSize: 0x34 }
  - { offsetInCU: 0x2A4EC, offset: 0x3F65B, size: 0x8, addend: 0x0, symName: '__ZNSt3__15tupleIJRKNS_9allocatorIZN5dgrad3addEPNS2_6TensorES4_E3$_0EEEEC2B8ue170006INS_4_AndELi0EEES8_', symObjAddr: 0xF298, symBinAddr: 0x1000174BC, symSize: 0x34 }
  - { offsetInCU: 0x2A534, offset: 0x3F6A3, size: 0x8, addend: 0x0, symName: '__ZNSt3__112__tuple_implINS_15__tuple_indicesIJLm0EEEEJRKNS_9allocatorIZN5dgrad3addEPNS4_6TensorES6_E3$_0EEEEC1B8ue170006IJLm0EEJSA_EJEJEJSA_EEENS1_IJXspT_EEEENS_13__tuple_typesIJDpT0_EEENS1_IJXspT1_EEEENSE_IJDpT2_EEEDpOT3_', symObjAddr: 0xF2CC, symBinAddr: 0x1000174F0, symSize: 0x34 }
  - { offsetInCU: 0x2A5C5, offset: 0x3F734, size: 0x8, addend: 0x0, symName: '__ZNSt3__112__tuple_implINS_15__tuple_indicesIJLm0EEEEJRKNS_9allocatorIZN5dgrad3addEPNS4_6TensorES6_E3$_0EEEEC2B8ue170006IJLm0EEJSA_EJEJEJSA_EEENS1_IJXspT_EEEENS_13__tuple_typesIJDpT0_EEENS1_IJXspT1_EEEENSE_IJDpT2_EEEDpOT3_', symObjAddr: 0xF300, symBinAddr: 0x100017524, symSize: 0x34 }
  - { offsetInCU: 0x2A656, offset: 0x3F7C5, size: 0x8, addend: 0x0, symName: '__ZNSt3__112__tuple_leafILm0ERKNS_9allocatorIZN5dgrad3addEPNS2_6TensorES4_E3$_0EELb0EEC2B8ue170006IS8_vEEOT_', symObjAddr: 0xF334, symBinAddr: 0x100017558, symSize: 0x20 }
  - { offsetInCU: 0x2A699, offset: 0x3F808, size: 0x8, addend: 0x0, symName: '__ZNSt3__117__compressed_pairIZN5dgrad3addEPNS1_6TensorES3_E3$_0NS_9allocatorIS4_EEEC2B8ue170006IJRKS4_EJRKS6_EEENS_21piecewise_construct_tENS_5tupleIJDpT_EEENSE_IJDpT0_EEE', symObjAddr: 0xF354, symBinAddr: 0x100017578, symSize: 0x54 }
  - { offsetInCU: 0x2A703, offset: 0x3F872, size: 0x8, addend: 0x0, symName: '__ZNSt3__122__compressed_pair_elemINS_9allocatorIZN5dgrad3addEPNS2_6TensorES4_E3$_0EELi1ELb1EEC2B8ue170006IJRKS6_EJLm0EEEENS_21piecewise_construct_tENS_5tupleIJDpT_EEENS_15__tuple_indicesIJXspT0_EEEE', symObjAddr: 0xF3A8, symBinAddr: 0x1000175CC, symSize: 0x38 }
  - { offsetInCU: 0x2A766, offset: 0x3F8D5, size: 0x8, addend: 0x0, symName: '__ZNSt3__112__tuple_leafILm0ERKNS_9allocatorIZN5dgrad3addEPNS2_6TensorES4_E3$_0EELb0EE3getB8ue170006Ev', symObjAddr: 0xF404, symBinAddr: 0x100017628, symSize: 0x18 }
  - { offsetInCU: 0x2A78C, offset: 0x3F8FB, size: 0x8, addend: 0x0, symName: '__ZNSt3__110__function12__alloc_funcIZN5dgrad3addEPNS2_6TensorES4_E3$_0NS_9allocatorIS5_EEFvvEE7destroyB8ue170006Ev', symObjAddr: 0xF41C, symBinAddr: 0x100017640, symSize: 0x10 }
  - { offsetInCU: 0x2A7B2, offset: 0x3F921, size: 0x8, addend: 0x0, symName: '__ZNSt3__110__function12__alloc_funcIZN5dgrad3addEPNS2_6TensorES4_E3$_0NS_9allocatorIS5_EEFvvEEclB8ue170006Ev', symObjAddr: 0xF42C, symBinAddr: 0x100017650, symSize: 0x28 }
  - { offsetInCU: 0x2A7D8, offset: 0x3F947, size: 0x8, addend: 0x0, symName: '__ZNSt3__128__invoke_void_return_wrapperIvLb1EE6__callB8ue170006IJRZN5dgrad3addEPNS3_6TensorES5_E3$_0EEEvDpOT_', symObjAddr: 0xF454, symBinAddr: 0x100017678, symSize: 0x24 }
  - { offsetInCU: 0x2A807, offset: 0x3F976, size: 0x8, addend: 0x0, symName: '__ZNSt3__117__compressed_pairIZN5dgrad3addEPNS1_6TensorES3_E3$_0NS_9allocatorIS4_EEE5firstB8ue170006Ev', symObjAddr: 0xF478, symBinAddr: 0x10001769C, symSize: 0x24 }
  - { offsetInCU: 0x2A832, offset: 0x3F9A1, size: 0x8, addend: 0x0, symName: '__ZZN5dgrad3addEPNS_6TensorES1_ENK3$_0clEv', symObjAddr: 0xF4C0, symBinAddr: 0x1000176E4, symSize: 0xE8 }
  - { offsetInCU: 0x2A878, offset: 0x3F9E7, size: 0x8, addend: 0x0, symName: '__ZNSt3__122__compressed_pair_elemIZN5dgrad3addEPNS1_6TensorES3_E3$_0Li0ELb0EE5__getB8ue170006Ev', symObjAddr: 0xF5A8, symBinAddr: 0x1000177CC, symSize: 0x14 }
  - { offsetInCU: 0x2A89E, offset: 0x3FA0D, size: 0x8, addend: 0x0, symName: '__ZNSt3__110unique_ptrINS_10__function6__baseIFvvEEENS_22__allocator_destructorINS_9allocatorINS1_6__funcIZN5dgrad3addEPNS8_6TensorESA_E3$_0NS6_ISB_EES3_EEEEEEED2B8ue170006Ev', symObjAddr: 0xF5BC, symBinAddr: 0x1000177E0, symSize: 0x30 }
  - { offsetInCU: 0x2A8C8, offset: 0x3FA37, size: 0x8, addend: 0x0, symName: '__ZNSt3__110unique_ptrINS_10__function6__baseIFvvEEENS_22__allocator_destructorINS_9allocatorINS1_6__funcIZN5dgrad3addEPNS8_6TensorESA_E3$_0NS6_ISB_EES3_EEEEEEE5resetB8ue170006EPSD_', symObjAddr: 0xF5EC, symBinAddr: 0x100017810, symSize: 0x78 }
  - { offsetInCU: 0x2A90C, offset: 0x3FA7B, size: 0x8, addend: 0x0, symName: __ZNSt3__110__function12__value_funcIFvvEE4swapB8ue170006ERS3_, symObjAddr: 0xF664, symBinAddr: 0x100017888, symSize: 0x2A8 }
  - { offsetInCU: 0x2A965, offset: 0x3FAD4, size: 0x8, addend: 0x0, symName: '__ZNSt3__18functionIFvvEEC1IZN5dgrad4subsEPNS4_6TensorES6_E3$_1vEET_', symObjAddr: 0xF948, symBinAddr: 0x100017B6C, symSize: 0x34 }
  - { offsetInCU: 0x2A9AB, offset: 0x3FB1A, size: 0x8, addend: 0x0, symName: '__ZNSt3__18functionIFvvEEC2IZN5dgrad4subsEPNS4_6TensorES6_E3$_1vEET_', symObjAddr: 0xF97C, symBinAddr: 0x100017BA0, symSize: 0x34 }
  - { offsetInCU: 0x2A9F1, offset: 0x3FB60, size: 0x8, addend: 0x0, symName: '__ZNSt3__110__function12__value_funcIFvvEEC1B8ue170006IZN5dgrad4subsEPNS5_6TensorES7_E3$_1vEEOT_', symObjAddr: 0xF9B0, symBinAddr: 0x100017BD4, symSize: 0x50 }
  - { offsetInCU: 0x2AA34, offset: 0x3FBA3, size: 0x8, addend: 0x0, symName: '__ZNSt3__19allocatorIZN5dgrad4subsEPNS1_6TensorES3_E3$_1EC1B8ue170006Ev', symObjAddr: 0xFA00, symBinAddr: 0x100017C24, symSize: 0x2C }
  - { offsetInCU: 0x2AA5E, offset: 0x3FBCD, size: 0x8, addend: 0x0, symName: '__ZNSt3__110__function12__value_funcIFvvEEC1B8ue170006IZN5dgrad4subsEPNS5_6TensorES7_E3$_1NS_9allocatorIS8_EEEEOT_RKT0_', symObjAddr: 0xFA2C, symBinAddr: 0x100017C50, symSize: 0x3C }
  - { offsetInCU: 0x2AAB8, offset: 0x3FC27, size: 0x8, addend: 0x0, symName: '__ZNSt3__19allocatorIZN5dgrad4subsEPNS1_6TensorES3_E3$_1EC2B8ue170006Ev', symObjAddr: 0xFA68, symBinAddr: 0x100017C8C, symSize: 0x2C }
  - { offsetInCU: 0x2AAE2, offset: 0x3FC51, size: 0x8, addend: 0x0, symName: '__ZNSt3__116__non_trivial_ifILb1ENS_9allocatorIZN5dgrad4subsEPNS2_6TensorES4_E3$_1EEEC2B8ue170006Ev', symObjAddr: 0xFA94, symBinAddr: 0x100017CB8, symSize: 0x14 }
  - { offsetInCU: 0x2AB0C, offset: 0x3FC7B, size: 0x8, addend: 0x0, symName: '__ZNSt3__110__function12__value_funcIFvvEEC2B8ue170006IZN5dgrad4subsEPNS5_6TensorES7_E3$_1NS_9allocatorIS8_EEEEOT_RKT0_', symObjAddr: 0xFAA8, symBinAddr: 0x100017CCC, symSize: 0xF4 }
  - { offsetInCU: 0x2ABBF, offset: 0x3FD2E, size: 0x8, addend: 0x0, symName: '__ZNSt3__19allocatorINS_10__function6__funcIZN5dgrad4subsEPNS3_6TensorES5_E3$_1NS0_IS6_EEFvvEEEEC1B8ue170006IS6_EERKNS0_IT_EE', symObjAddr: 0xFBB4, symBinAddr: 0x100017DD8, symSize: 0x34 }
  - { offsetInCU: 0x2ABFC, offset: 0x3FD6B, size: 0x8, addend: 0x0, symName: '__ZNSt3__19allocatorINS_10__function6__funcIZN5dgrad4subsEPNS3_6TensorES5_E3$_1NS0_IS6_EEFvvEEEE8allocateB8ue170006Em', symObjAddr: 0xFBE8, symBinAddr: 0x100017E0C, symSize: 0x58 }
  - { offsetInCU: 0x2AC3F, offset: 0x3FDAE, size: 0x8, addend: 0x0, symName: '__ZNSt3__122__allocator_destructorINS_9allocatorINS_10__function6__funcIZN5dgrad4subsEPNS4_6TensorES6_E3$_1NS1_IS7_EEFvvEEEEEEC1B8ue170006ERSB_m', symObjAddr: 0xFC40, symBinAddr: 0x100017E64, symSize: 0x3C }
  - { offsetInCU: 0x2AD13, offset: 0x3FE82, size: 0x8, addend: 0x0, symName: '__ZNSt3__110unique_ptrINS_10__function6__baseIFvvEEENS_22__allocator_destructorINS_9allocatorINS1_6__funcIZN5dgrad4subsEPNS8_6TensorESA_E3$_1NS6_ISB_EES3_EEEEEEEC1B8ue170006ILb1EvEEPSD_NS_16__dependent_typeINS_27__unique_ptr_deleter_sfinaeISF_EEXT_EE20__good_rval_ref_typeE', symObjAddr: 0xFC7C, symBinAddr: 0x100017EA0, symSize: 0x3C }
  - { offsetInCU: 0x2AD64, offset: 0x3FED3, size: 0x8, addend: 0x0, symName: '__ZNKSt3__110unique_ptrINS_10__function6__baseIFvvEEENS_22__allocator_destructorINS_9allocatorINS1_6__funcIZN5dgrad4subsEPNS8_6TensorESA_E3$_1NS6_ISB_EES3_EEEEEEE3getB8ue170006Ev', symObjAddr: 0xFCB8, symBinAddr: 0x100017EDC, symSize: 0x28 }
  - { offsetInCU: 0x2AD8A, offset: 0x3FEF9, size: 0x8, addend: 0x0, symName: '__ZNSt3__110__function6__funcIZN5dgrad4subsEPNS2_6TensorES4_E3$_1NS_9allocatorIS5_EEFvvEEC1B8ue170006EOS5_OS7_', symObjAddr: 0xFCE0, symBinAddr: 0x100017F04, symSize: 0x3C }
  - { offsetInCU: 0x2ADD2, offset: 0x3FF41, size: 0x8, addend: 0x0, symName: '__ZNSt3__110unique_ptrINS_10__function6__baseIFvvEEENS_22__allocator_destructorINS_9allocatorINS1_6__funcIZN5dgrad4subsEPNS8_6TensorESA_E3$_1NS6_ISB_EES3_EEEEEEE7releaseB8ue170006Ev', symObjAddr: 0xFD1C, symBinAddr: 0x100017F40, symSize: 0x44 }
  - { offsetInCU: 0x2AE07, offset: 0x3FF76, size: 0x8, addend: 0x0, symName: '__ZNSt3__110unique_ptrINS_10__function6__baseIFvvEEENS_22__allocator_destructorINS_9allocatorINS1_6__funcIZN5dgrad4subsEPNS8_6TensorESA_E3$_1NS6_ISB_EES3_EEEEEEED1B8ue170006Ev', symObjAddr: 0xFD60, symBinAddr: 0x100017F84, symSize: 0x2C }
  - { offsetInCU: 0x2AE31, offset: 0x3FFA0, size: 0x8, addend: 0x0, symName: '__ZNSt3__19allocatorINS_10__function6__funcIZN5dgrad4subsEPNS3_6TensorES5_E3$_1NS0_IS6_EEFvvEEEEC2B8ue170006IS6_EERKNS0_IT_EE', symObjAddr: 0xFD8C, symBinAddr: 0x100017FB0, symSize: 0x30 }
  - { offsetInCU: 0x2AE6E, offset: 0x3FFDD, size: 0x8, addend: 0x0, symName: '__ZNSt3__116__non_trivial_ifILb1ENS_9allocatorINS_10__function6__funcIZN5dgrad4subsEPNS4_6TensorES6_E3$_1NS1_IS7_EEFvvEEEEEEC2B8ue170006Ev', symObjAddr: 0xFDBC, symBinAddr: 0x100017FE0, symSize: 0x14 }
  - { offsetInCU: 0x2AEA2, offset: 0x40011, size: 0x8, addend: 0x0, symName: '__ZNSt3__116allocator_traitsINS_9allocatorINS_10__function6__funcIZN5dgrad4subsEPNS4_6TensorES6_E3$_1NS1_IS7_EEFvvEEEEEE8max_sizeB8ue170006ISB_vEEmRKSB_', symObjAddr: 0xFDD0, symBinAddr: 0x100017FF4, symSize: 0x24 }
  - { offsetInCU: 0x2AED0, offset: 0x4003F, size: 0x8, addend: 0x0, symName: '__ZNKSt3__19allocatorINS_10__function6__funcIZN5dgrad4subsEPNS3_6TensorES5_E3$_1NS0_IS6_EEFvvEEEE8max_sizeB8ue170006Ev', symObjAddr: 0xFDF4, symBinAddr: 0x100018018, symSize: 0x14 }
  - { offsetInCU: 0x2AEF6, offset: 0x40065, size: 0x8, addend: 0x0, symName: '__ZNSt3__122__allocator_destructorINS_9allocatorINS_10__function6__funcIZN5dgrad4subsEPNS4_6TensorES6_E3$_1NS1_IS7_EEFvvEEEEEEC2B8ue170006ERSB_m', symObjAddr: 0xFE08, symBinAddr: 0x10001802C, symSize: 0x2C }
  - { offsetInCU: 0x2AF3C, offset: 0x400AB, size: 0x8, addend: 0x0, symName: '__ZNSt3__110unique_ptrINS_10__function6__baseIFvvEEENS_22__allocator_destructorINS_9allocatorINS1_6__funcIZN5dgrad4subsEPNS8_6TensorESA_E3$_1NS6_ISB_EES3_EEEEEEEC2B8ue170006ILb1EvEEPSD_NS_16__dependent_typeINS_27__unique_ptr_deleter_sfinaeISF_EEXT_EE20__good_rval_ref_typeE', symObjAddr: 0xFE34, symBinAddr: 0x100018058, symSize: 0x48 }
  - { offsetInCU: 0x2AF8D, offset: 0x400FC, size: 0x8, addend: 0x0, symName: '__ZNSt3__117__compressed_pairIPNS_10__function6__funcIZN5dgrad4subsEPNS3_6TensorES5_E3$_1NS_9allocatorIS6_EEFvvEEENS_22__allocator_destructorINS7_ISA_EEEEEC1B8ue170006IRSB_SE_EEOT_OT0_', symObjAddr: 0xFE7C, symBinAddr: 0x1000180A0, symSize: 0x3C }
  - { offsetInCU: 0x2AFE5, offset: 0x40154, size: 0x8, addend: 0x0, symName: '__ZNSt3__117__compressed_pairIPNS_10__function6__funcIZN5dgrad4subsEPNS3_6TensorES5_E3$_1NS_9allocatorIS6_EEFvvEEENS_22__allocator_destructorINS7_ISA_EEEEEC2B8ue170006IRSB_SE_EEOT_OT0_', symObjAddr: 0xFEB8, symBinAddr: 0x1000180DC, symSize: 0x48 }
  - { offsetInCU: 0x2B03D, offset: 0x401AC, size: 0x8, addend: 0x0, symName: '__ZNSt3__122__compressed_pair_elemIPNS_10__function6__funcIZN5dgrad4subsEPNS3_6TensorES5_E3$_1NS_9allocatorIS6_EEFvvEEELi0ELb0EEC2B8ue170006IRSB_vEEOT_', symObjAddr: 0xFF00, symBinAddr: 0x100018124, symSize: 0x24 }
  - { offsetInCU: 0x2B07F, offset: 0x401EE, size: 0x8, addend: 0x0, symName: '__ZNSt3__122__compressed_pair_elemINS_22__allocator_destructorINS_9allocatorINS_10__function6__funcIZN5dgrad4subsEPNS5_6TensorES7_E3$_1NS2_IS8_EEFvvEEEEEEELi1ELb0EEC2B8ue170006ISD_vEEOT_', symObjAddr: 0xFF24, symBinAddr: 0x100018148, symSize: 0x24 }
  - { offsetInCU: 0x2B0C1, offset: 0x40230, size: 0x8, addend: 0x0, symName: '__ZNKSt3__117__compressed_pairIPNS_10__function6__funcIZN5dgrad4subsEPNS3_6TensorES5_E3$_1NS_9allocatorIS6_EEFvvEEENS_22__allocator_destructorINS7_ISA_EEEEE5firstB8ue170006Ev', symObjAddr: 0xFF48, symBinAddr: 0x10001816C, symSize: 0x24 }
  - { offsetInCU: 0x2B0E7, offset: 0x40256, size: 0x8, addend: 0x0, symName: '__ZNKSt3__122__compressed_pair_elemIPNS_10__function6__funcIZN5dgrad4subsEPNS3_6TensorES5_E3$_1NS_9allocatorIS6_EEFvvEEELi0ELb0EE5__getB8ue170006Ev', symObjAddr: 0xFF6C, symBinAddr: 0x100018190, symSize: 0x14 }
  - { offsetInCU: 0x2B10D, offset: 0x4027C, size: 0x8, addend: 0x0, symName: '__ZNSt3__110__function6__funcIZN5dgrad4subsEPNS2_6TensorES4_E3$_1NS_9allocatorIS5_EEFvvEEC2B8ue170006EOS5_OS7_', symObjAddr: 0xFF80, symBinAddr: 0x1000181A4, symSize: 0x88 }
  - { offsetInCU: 0x2B155, offset: 0x402C4, size: 0x8, addend: 0x0, symName: '__ZNSt3__110__function12__alloc_funcIZN5dgrad4subsEPNS2_6TensorES4_E3$_1NS_9allocatorIS5_EEFvvEEC1B8ue170006EOS5_OS7_', symObjAddr: 0x10008, symBinAddr: 0x10001822C, symSize: 0x3C }
  - { offsetInCU: 0x2B19B, offset: 0x4030A, size: 0x8, addend: 0x0, symName: '__ZNSt3__110__function6__funcIZN5dgrad4subsEPNS2_6TensorES4_E3$_1NS_9allocatorIS5_EEFvvEED1Ev', symObjAddr: 0x10044, symBinAddr: 0x100018268, symSize: 0x2C }
  - { offsetInCU: 0x2B1C8, offset: 0x40337, size: 0x8, addend: 0x0, symName: '__ZNSt3__110__function6__funcIZN5dgrad4subsEPNS2_6TensorES4_E3$_1NS_9allocatorIS5_EEFvvEED0Ev', symObjAddr: 0x10070, symBinAddr: 0x100018294, symSize: 0x30 }
  - { offsetInCU: 0x2B1F5, offset: 0x40364, size: 0x8, addend: 0x0, symName: '__ZNKSt3__110__function6__funcIZN5dgrad4subsEPNS2_6TensorES4_E3$_1NS_9allocatorIS5_EEFvvEE7__cloneEv', symObjAddr: 0x100A0, symBinAddr: 0x1000182C4, symSize: 0xFC }
  - { offsetInCU: 0x2B247, offset: 0x403B6, size: 0x8, addend: 0x0, symName: '__ZNKSt3__110__function6__funcIZN5dgrad4subsEPNS2_6TensorES4_E3$_1NS_9allocatorIS5_EEFvvEE7__cloneEPNS0_6__baseIS8_EE', symObjAddr: 0x1019C, symBinAddr: 0x1000183C0, symSize: 0x58 }
  - { offsetInCU: 0x2B27E, offset: 0x403ED, size: 0x8, addend: 0x0, symName: '__ZNSt3__110__function6__funcIZN5dgrad4subsEPNS2_6TensorES4_E3$_1NS_9allocatorIS5_EEFvvEE7destroyEv', symObjAddr: 0x101F4, symBinAddr: 0x100018418, symSize: 0x28 }
  - { offsetInCU: 0x2B2A6, offset: 0x40415, size: 0x8, addend: 0x0, symName: '__ZNSt3__110__function6__funcIZN5dgrad4subsEPNS2_6TensorES4_E3$_1NS_9allocatorIS5_EEFvvEE18destroy_deallocateEv', symObjAddr: 0x1021C, symBinAddr: 0x100018440, symSize: 0x58 }
  - { offsetInCU: 0x2B2E9, offset: 0x40458, size: 0x8, addend: 0x0, symName: '__ZNSt3__110__function6__funcIZN5dgrad4subsEPNS2_6TensorES4_E3$_1NS_9allocatorIS5_EEFvvEEclEv', symObjAddr: 0x10274, symBinAddr: 0x100018498, symSize: 0x28 }
  - { offsetInCU: 0x2B311, offset: 0x40480, size: 0x8, addend: 0x0, symName: '__ZNKSt3__110__function6__funcIZN5dgrad4subsEPNS2_6TensorES4_E3$_1NS_9allocatorIS5_EEFvvEE6targetERKSt9type_info', symObjAddr: 0x1029C, symBinAddr: 0x1000184C0, symSize: 0x60 }
  - { offsetInCU: 0x2B348, offset: 0x404B7, size: 0x8, addend: 0x0, symName: '__ZNKSt3__110__function6__funcIZN5dgrad4subsEPNS2_6TensorES4_E3$_1NS_9allocatorIS5_EEFvvEE11target_typeEv', symObjAddr: 0x102FC, symBinAddr: 0x100018520, symSize: 0x18 }
  - { offsetInCU: 0x2B370, offset: 0x404DF, size: 0x8, addend: 0x0, symName: '__ZNSt3__110__function12__alloc_funcIZN5dgrad4subsEPNS2_6TensorES4_E3$_1NS_9allocatorIS5_EEFvvEEC2B8ue170006EOS5_OS7_', symObjAddr: 0x10314, symBinAddr: 0x100018538, symSize: 0x5C }
  - { offsetInCU: 0x2B3B6, offset: 0x40525, size: 0x8, addend: 0x0, symName: '__ZNSt3__117__compressed_pairIZN5dgrad4subsEPNS1_6TensorES3_E3$_1NS_9allocatorIS4_EEEC1B8ue170006IJOS4_EJOS6_EEENS_21piecewise_construct_tENS_5tupleIJDpT_EEENSC_IJDpT0_EEE', symObjAddr: 0x103C8, symBinAddr: 0x1000185EC, symSize: 0x3C }
  - { offsetInCU: 0x2B420, offset: 0x4058F, size: 0x8, addend: 0x0, symName: '__ZNSt3__15tupleIJOZN5dgrad4subsEPNS1_6TensorES3_E3$_1EEC1B8ue170006IJS4_ELi0EEEDpOT_', symObjAddr: 0x10404, symBinAddr: 0x100018628, symSize: 0x34 }
  - { offsetInCU: 0x2B46A, offset: 0x405D9, size: 0x8, addend: 0x0, symName: '__ZNSt3__15tupleIJOZN5dgrad4subsEPNS1_6TensorES3_E3$_1EEC2B8ue170006IJS4_ELi0EEEDpOT_', symObjAddr: 0x10438, symBinAddr: 0x10001865C, symSize: 0x34 }
  - { offsetInCU: 0x2B4B4, offset: 0x40623, size: 0x8, addend: 0x0, symName: '__ZNSt3__112__tuple_implINS_15__tuple_indicesIJLm0EEEEJOZN5dgrad4subsEPNS3_6TensorES5_E3$_1EEC1B8ue170006IJLm0EEJS7_EJEJEJS6_EEENS1_IJXspT_EEEENS_13__tuple_typesIJDpT0_EEENS1_IJXspT1_EEEENSB_IJDpT2_EEEDpOT3_', symObjAddr: 0x1046C, symBinAddr: 0x100018690, symSize: 0x34 }
  - { offsetInCU: 0x2B545, offset: 0x406B4, size: 0x8, addend: 0x0, symName: '__ZNSt3__112__tuple_implINS_15__tuple_indicesIJLm0EEEEJOZN5dgrad4subsEPNS3_6TensorES5_E3$_1EEC2B8ue170006IJLm0EEJS7_EJEJEJS6_EEENS1_IJXspT_EEEENS_13__tuple_typesIJDpT0_EEENS1_IJXspT1_EEEENSB_IJDpT2_EEEDpOT3_', symObjAddr: 0x104A0, symBinAddr: 0x1000186C4, symSize: 0x34 }
  - { offsetInCU: 0x2B5D6, offset: 0x40745, size: 0x8, addend: 0x0, symName: '__ZNSt3__112__tuple_leafILm0EOZN5dgrad4subsEPNS1_6TensorES3_E3$_1Lb0EEC2B8ue170006IS4_vEEOT_', symObjAddr: 0x104D4, symBinAddr: 0x1000186F8, symSize: 0x20 }
  - { offsetInCU: 0x2B619, offset: 0x40788, size: 0x8, addend: 0x0, symName: '__ZNSt3__15tupleIJONS_9allocatorIZN5dgrad4subsEPNS2_6TensorES4_E3$_1EEEEC1B8ue170006IJS6_ELi0EEEDpOT_', symObjAddr: 0x104F4, symBinAddr: 0x100018718, symSize: 0x34 }
  - { offsetInCU: 0x2B663, offset: 0x407D2, size: 0x8, addend: 0x0, symName: '__ZNSt3__15tupleIJONS_9allocatorIZN5dgrad4subsEPNS2_6TensorES4_E3$_1EEEEC2B8ue170006IJS6_ELi0EEEDpOT_', symObjAddr: 0x10528, symBinAddr: 0x10001874C, symSize: 0x34 }
  - { offsetInCU: 0x2B6AD, offset: 0x4081C, size: 0x8, addend: 0x0, symName: '__ZNSt3__112__tuple_implINS_15__tuple_indicesIJLm0EEEEJONS_9allocatorIZN5dgrad4subsEPNS4_6TensorES6_E3$_1EEEEC1B8ue170006IJLm0EEJS9_EJEJEJS8_EEENS1_IJXspT_EEEENS_13__tuple_typesIJDpT0_EEENS1_IJXspT1_EEEENSD_IJDpT2_EEEDpOT3_', symObjAddr: 0x1055C, symBinAddr: 0x100018780, symSize: 0x34 }
  - { offsetInCU: 0x2B73E, offset: 0x408AD, size: 0x8, addend: 0x0, symName: '__ZNSt3__112__tuple_implINS_15__tuple_indicesIJLm0EEEEJONS_9allocatorIZN5dgrad4subsEPNS4_6TensorES6_E3$_1EEEEC2B8ue170006IJLm0EEJS9_EJEJEJS8_EEENS1_IJXspT_EEEENS_13__tuple_typesIJDpT0_EEENS1_IJXspT1_EEEENSD_IJDpT2_EEEDpOT3_', symObjAddr: 0x10590, symBinAddr: 0x1000187B4, symSize: 0x34 }
  - { offsetInCU: 0x2B7CF, offset: 0x4093E, size: 0x8, addend: 0x0, symName: '__ZNSt3__112__tuple_leafILm0EONS_9allocatorIZN5dgrad4subsEPNS2_6TensorES4_E3$_1EELb0EEC2B8ue170006IS6_vEEOT_', symObjAddr: 0x105C4, symBinAddr: 0x1000187E8, symSize: 0x20 }
  - { offsetInCU: 0x2B812, offset: 0x40981, size: 0x8, addend: 0x0, symName: '__ZNSt3__117__compressed_pairIZN5dgrad4subsEPNS1_6TensorES3_E3$_1NS_9allocatorIS4_EEEC2B8ue170006IJOS4_EJOS6_EEENS_21piecewise_construct_tENS_5tupleIJDpT_EEENSC_IJDpT0_EEE', symObjAddr: 0x105E4, symBinAddr: 0x100018808, symSize: 0x54 }
  - { offsetInCU: 0x2B87C, offset: 0x409EB, size: 0x8, addend: 0x0, symName: '__ZNSt3__122__compressed_pair_elemIZN5dgrad4subsEPNS1_6TensorES3_E3$_1Li0ELb0EEC2B8ue170006IJOS4_EJLm0EEEENS_21piecewise_construct_tENS_5tupleIJDpT_EEENS_15__tuple_indicesIJXspT0_EEEE', symObjAddr: 0x10638, symBinAddr: 0x10001885C, symSize: 0x4C }
  - { offsetInCU: 0x2B8DF, offset: 0x40A4E, size: 0x8, addend: 0x0, symName: '__ZNSt3__122__compressed_pair_elemINS_9allocatorIZN5dgrad4subsEPNS2_6TensorES4_E3$_1EELi1ELb1EEC2B8ue170006IJOS6_EJLm0EEEENS_21piecewise_construct_tENS_5tupleIJDpT_EEENS_15__tuple_indicesIJXspT0_EEEE', symObjAddr: 0x10684, symBinAddr: 0x1000188A8, symSize: 0x38 }
  - { offsetInCU: 0x2B942, offset: 0x40AB1, size: 0x8, addend: 0x0, symName: '__ZNSt3__112__tuple_leafILm0EOZN5dgrad4subsEPNS1_6TensorES3_E3$_1Lb0EE3getB8ue170006Ev', symObjAddr: 0x106E0, symBinAddr: 0x100018904, symSize: 0x18 }
  - { offsetInCU: 0x2B968, offset: 0x40AD7, size: 0x8, addend: 0x0, symName: '__ZNSt3__112__tuple_leafILm0EONS_9allocatorIZN5dgrad4subsEPNS2_6TensorES4_E3$_1EELb0EE3getB8ue170006Ev', symObjAddr: 0x1071C, symBinAddr: 0x100018940, symSize: 0x18 }
  - { offsetInCU: 0x2B98E, offset: 0x40AFD, size: 0x8, addend: 0x0, symName: '__ZNSt3__110__function6__funcIZN5dgrad4subsEPNS2_6TensorES4_E3$_1NS_9allocatorIS5_EEFvvEED2Ev', symObjAddr: 0x10734, symBinAddr: 0x100018958, symSize: 0x2C }
  - { offsetInCU: 0x2B9BB, offset: 0x40B2A, size: 0x8, addend: 0x0, symName: '__ZNKSt3__110__function12__alloc_funcIZN5dgrad4subsEPNS2_6TensorES4_E3$_1NS_9allocatorIS5_EEFvvEE15__get_allocatorB8ue170006Ev', symObjAddr: 0x10760, symBinAddr: 0x100018984, symSize: 0x24 }
  - { offsetInCU: 0x2BA0A, offset: 0x40B79, size: 0x8, addend: 0x0, symName: '__ZNSt3__110unique_ptrINS_10__function6__funcIZN5dgrad4subsEPNS3_6TensorES5_E3$_1NS_9allocatorIS6_EEFvvEEENS_22__allocator_destructorINS7_ISA_EEEEEC1B8ue170006ILb1EvEEPSA_NS_16__dependent_typeINS_27__unique_ptr_deleter_sfinaeISD_EEXT_EE20__good_rval_ref_typeE', symObjAddr: 0x10784, symBinAddr: 0x1000189A8, symSize: 0x3C }
  - { offsetInCU: 0x2BA5B, offset: 0x40BCA, size: 0x8, addend: 0x0, symName: '__ZNKSt3__110unique_ptrINS_10__function6__funcIZN5dgrad4subsEPNS3_6TensorES5_E3$_1NS_9allocatorIS6_EEFvvEEENS_22__allocator_destructorINS7_ISA_EEEEE3getB8ue170006Ev', symObjAddr: 0x107C0, symBinAddr: 0x1000189E4, symSize: 0x28 }
  - { offsetInCU: 0x2BA81, offset: 0x40BF0, size: 0x8, addend: 0x0, symName: '__ZNKSt3__110__function12__alloc_funcIZN5dgrad4subsEPNS2_6TensorES4_E3$_1NS_9allocatorIS5_EEFvvEE8__targetB8ue170006Ev', symObjAddr: 0x107E8, symBinAddr: 0x100018A0C, symSize: 0x24 }
  - { offsetInCU: 0x2BAAC, offset: 0x40C1B, size: 0x8, addend: 0x0, symName: '__ZNSt3__19allocatorIZN5dgrad4subsEPNS1_6TensorES3_E3$_1EC1B8ue170006INS_10__function6__funcIS4_S5_FvvEEEEERKNS0_IT_EE', symObjAddr: 0x1080C, symBinAddr: 0x100018A30, symSize: 0x34 }
  - { offsetInCU: 0x2BAE9, offset: 0x40C58, size: 0x8, addend: 0x0, symName: '__ZNSt3__110__function6__funcIZN5dgrad4subsEPNS2_6TensorES4_E3$_1NS_9allocatorIS5_EEFvvEEC1B8ue170006ERKS5_OS7_', symObjAddr: 0x10840, symBinAddr: 0x100018A64, symSize: 0x3C }
  - { offsetInCU: 0x2BB31, offset: 0x40CA0, size: 0x8, addend: 0x0, symName: '__ZNSt3__110unique_ptrINS_10__function6__funcIZN5dgrad4subsEPNS3_6TensorES5_E3$_1NS_9allocatorIS6_EEFvvEEENS_22__allocator_destructorINS7_ISA_EEEEE7releaseB8ue170006Ev', symObjAddr: 0x1087C, symBinAddr: 0x100018AA0, symSize: 0x44 }
  - { offsetInCU: 0x2BB66, offset: 0x40CD5, size: 0x8, addend: 0x0, symName: '__ZNSt3__110unique_ptrINS_10__function6__funcIZN5dgrad4subsEPNS3_6TensorES5_E3$_1NS_9allocatorIS6_EEFvvEEENS_22__allocator_destructorINS7_ISA_EEEEED1B8ue170006Ev', symObjAddr: 0x108C0, symBinAddr: 0x100018AE4, symSize: 0x2C }
  - { offsetInCU: 0x2BB90, offset: 0x40CFF, size: 0x8, addend: 0x0, symName: '__ZNKSt3__117__compressed_pairIZN5dgrad4subsEPNS1_6TensorES3_E3$_1NS_9allocatorIS4_EEE6secondB8ue170006Ev', symObjAddr: 0x108EC, symBinAddr: 0x100018B10, symSize: 0x24 }
  - { offsetInCU: 0x2BBB6, offset: 0x40D25, size: 0x8, addend: 0x0, symName: '__ZNKSt3__122__compressed_pair_elemINS_9allocatorIZN5dgrad4subsEPNS2_6TensorES4_E3$_1EELi1ELb1EE5__getB8ue170006Ev', symObjAddr: 0x10910, symBinAddr: 0x100018B34, symSize: 0x14 }
  - { offsetInCU: 0x2BBDC, offset: 0x40D4B, size: 0x8, addend: 0x0, symName: '__ZNSt3__110unique_ptrINS_10__function6__funcIZN5dgrad4subsEPNS3_6TensorES5_E3$_1NS_9allocatorIS6_EEFvvEEENS_22__allocator_destructorINS7_ISA_EEEEEC2B8ue170006ILb1EvEEPSA_NS_16__dependent_typeINS_27__unique_ptr_deleter_sfinaeISD_EEXT_EE20__good_rval_ref_typeE', symObjAddr: 0x10924, symBinAddr: 0x100018B48, symSize: 0x48 }
  - { offsetInCU: 0x2BC2D, offset: 0x40D9C, size: 0x8, addend: 0x0, symName: '__ZNKSt3__117__compressed_pairIZN5dgrad4subsEPNS1_6TensorES3_E3$_1NS_9allocatorIS4_EEE5firstB8ue170006Ev', symObjAddr: 0x1096C, symBinAddr: 0x100018B90, symSize: 0x24 }
  - { offsetInCU: 0x2BC53, offset: 0x40DC2, size: 0x8, addend: 0x0, symName: '__ZNKSt3__122__compressed_pair_elemIZN5dgrad4subsEPNS1_6TensorES3_E3$_1Li0ELb0EE5__getB8ue170006Ev', symObjAddr: 0x10990, symBinAddr: 0x100018BB4, symSize: 0x14 }
  - { offsetInCU: 0x2BC79, offset: 0x40DE8, size: 0x8, addend: 0x0, symName: '__ZNSt3__19allocatorIZN5dgrad4subsEPNS1_6TensorES3_E3$_1EC2B8ue170006INS_10__function6__funcIS4_S5_FvvEEEEERKNS0_IT_EE', symObjAddr: 0x109A4, symBinAddr: 0x100018BC8, symSize: 0x30 }
  - { offsetInCU: 0x2BCB6, offset: 0x40E25, size: 0x8, addend: 0x0, symName: '__ZNSt3__110__function6__funcIZN5dgrad4subsEPNS2_6TensorES4_E3$_1NS_9allocatorIS5_EEFvvEEC2B8ue170006ERKS5_OS7_', symObjAddr: 0x109D4, symBinAddr: 0x100018BF8, symSize: 0x88 }
  - { offsetInCU: 0x2BCFE, offset: 0x40E6D, size: 0x8, addend: 0x0, symName: '__ZNSt3__110__function12__alloc_funcIZN5dgrad4subsEPNS2_6TensorES4_E3$_1NS_9allocatorIS5_EEFvvEEC1B8ue170006ERKS5_OS7_', symObjAddr: 0x10A5C, symBinAddr: 0x100018C80, symSize: 0x3C }
  - { offsetInCU: 0x2BD44, offset: 0x40EB3, size: 0x8, addend: 0x0, symName: '__ZNSt3__110__function12__alloc_funcIZN5dgrad4subsEPNS2_6TensorES4_E3$_1NS_9allocatorIS5_EEFvvEEC2B8ue170006ERKS5_OS7_', symObjAddr: 0x10A98, symBinAddr: 0x100018CBC, symSize: 0x5C }
  - { offsetInCU: 0x2BD8A, offset: 0x40EF9, size: 0x8, addend: 0x0, symName: '__ZNSt3__117__compressed_pairIZN5dgrad4subsEPNS1_6TensorES3_E3$_1NS_9allocatorIS4_EEEC1B8ue170006IJRKS4_EJOS6_EEENS_21piecewise_construct_tENS_5tupleIJDpT_EEENSD_IJDpT0_EEE', symObjAddr: 0x10B20, symBinAddr: 0x100018D44, symSize: 0x3C }
  - { offsetInCU: 0x2BDF4, offset: 0x40F63, size: 0x8, addend: 0x0, symName: '__ZNSt3__15tupleIJRKZN5dgrad4subsEPNS1_6TensorES3_E3$_1EEC1B8ue170006INS_4_AndELi0EEES6_', symObjAddr: 0x10B5C, symBinAddr: 0x100018D80, symSize: 0x34 }
  - { offsetInCU: 0x2BE3C, offset: 0x40FAB, size: 0x8, addend: 0x0, symName: '__ZNSt3__15tupleIJRKZN5dgrad4subsEPNS1_6TensorES3_E3$_1EEC2B8ue170006INS_4_AndELi0EEES6_', symObjAddr: 0x10B90, symBinAddr: 0x100018DB4, symSize: 0x34 }
  - { offsetInCU: 0x2BE84, offset: 0x40FF3, size: 0x8, addend: 0x0, symName: '__ZNSt3__112__tuple_implINS_15__tuple_indicesIJLm0EEEEJRKZN5dgrad4subsEPNS3_6TensorES5_E3$_1EEC1B8ue170006IJLm0EEJS8_EJEJEJS8_EEENS1_IJXspT_EEEENS_13__tuple_typesIJDpT0_EEENS1_IJXspT1_EEEENSC_IJDpT2_EEEDpOT3_', symObjAddr: 0x10BC4, symBinAddr: 0x100018DE8, symSize: 0x34 }
  - { offsetInCU: 0x2BF15, offset: 0x41084, size: 0x8, addend: 0x0, symName: '__ZNSt3__112__tuple_implINS_15__tuple_indicesIJLm0EEEEJRKZN5dgrad4subsEPNS3_6TensorES5_E3$_1EEC2B8ue170006IJLm0EEJS8_EJEJEJS8_EEENS1_IJXspT_EEEENS_13__tuple_typesIJDpT0_EEENS1_IJXspT1_EEEENSC_IJDpT2_EEEDpOT3_', symObjAddr: 0x10BF8, symBinAddr: 0x100018E1C, symSize: 0x34 }
  - { offsetInCU: 0x2BFA6, offset: 0x41115, size: 0x8, addend: 0x0, symName: '__ZNSt3__112__tuple_leafILm0ERKZN5dgrad4subsEPNS1_6TensorES3_E3$_1Lb0EEC2B8ue170006IS6_vEEOT_', symObjAddr: 0x10C2C, symBinAddr: 0x100018E50, symSize: 0x20 }
  - { offsetInCU: 0x2BFE9, offset: 0x41158, size: 0x8, addend: 0x0, symName: '__ZNSt3__117__compressed_pairIZN5dgrad4subsEPNS1_6TensorES3_E3$_1NS_9allocatorIS4_EEEC2B8ue170006IJRKS4_EJOS6_EEENS_21piecewise_construct_tENS_5tupleIJDpT_EEENSD_IJDpT0_EEE', symObjAddr: 0x10C4C, symBinAddr: 0x100018E70, symSize: 0x54 }
  - { offsetInCU: 0x2C053, offset: 0x411C2, size: 0x8, addend: 0x0, symName: '__ZNSt3__122__compressed_pair_elemIZN5dgrad4subsEPNS1_6TensorES3_E3$_1Li0ELb0EEC2B8ue170006IJRKS4_EJLm0EEEENS_21piecewise_construct_tENS_5tupleIJDpT_EEENS_15__tuple_indicesIJXspT0_EEEE', symObjAddr: 0x10CA0, symBinAddr: 0x100018EC4, symSize: 0x4C }
  - { offsetInCU: 0x2C0B6, offset: 0x41225, size: 0x8, addend: 0x0, symName: '__ZNSt3__112__tuple_leafILm0ERKZN5dgrad4subsEPNS1_6TensorES3_E3$_1Lb0EE3getB8ue170006Ev', symObjAddr: 0x10D10, symBinAddr: 0x100018F34, symSize: 0x18 }
  - { offsetInCU: 0x2C0DC, offset: 0x4124B, size: 0x8, addend: 0x0, symName: '__ZNSt3__117__compressed_pairIPNS_10__function6__funcIZN5dgrad4subsEPNS3_6TensorES5_E3$_1NS_9allocatorIS6_EEFvvEEENS_22__allocator_destructorINS7_ISA_EEEEE5firstB8ue170006Ev', symObjAddr: 0x10D28, symBinAddr: 0x100018F4C, symSize: 0x24 }
  - { offsetInCU: 0x2C102, offset: 0x41271, size: 0x8, addend: 0x0, symName: '__ZNSt3__122__compressed_pair_elemIPNS_10__function6__funcIZN5dgrad4subsEPNS3_6TensorES5_E3$_1NS_9allocatorIS6_EEFvvEEELi0ELb0EE5__getB8ue170006Ev', symObjAddr: 0x10D4C, symBinAddr: 0x100018F70, symSize: 0x14 }
  - { offsetInCU: 0x2C128, offset: 0x41297, size: 0x8, addend: 0x0, symName: '__ZNSt3__110unique_ptrINS_10__function6__funcIZN5dgrad4subsEPNS3_6TensorES5_E3$_1NS_9allocatorIS6_EEFvvEEENS_22__allocator_destructorINS7_ISA_EEEEED2B8ue170006Ev', symObjAddr: 0x10D60, symBinAddr: 0x100018F84, symSize: 0x30 }
  - { offsetInCU: 0x2C152, offset: 0x412C1, size: 0x8, addend: 0x0, symName: '__ZNSt3__110unique_ptrINS_10__function6__funcIZN5dgrad4subsEPNS3_6TensorES5_E3$_1NS_9allocatorIS6_EEFvvEEENS_22__allocator_destructorINS7_ISA_EEEEE5resetB8ue170006EPSA_', symObjAddr: 0x10D90, symBinAddr: 0x100018FB4, symSize: 0x78 }
  - { offsetInCU: 0x2C196, offset: 0x41305, size: 0x8, addend: 0x0, symName: '__ZNSt3__117__compressed_pairIPNS_10__function6__funcIZN5dgrad4subsEPNS3_6TensorES5_E3$_1NS_9allocatorIS6_EEFvvEEENS_22__allocator_destructorINS7_ISA_EEEEE6secondB8ue170006Ev', symObjAddr: 0x10E08, symBinAddr: 0x10001902C, symSize: 0x28 }
  - { offsetInCU: 0x2C1BC, offset: 0x4132B, size: 0x8, addend: 0x0, symName: '__ZNSt3__122__allocator_destructorINS_9allocatorINS_10__function6__funcIZN5dgrad4subsEPNS4_6TensorES6_E3$_1NS1_IS7_EEFvvEEEEEEclB8ue170006EPSA_', symObjAddr: 0x10E30, symBinAddr: 0x100019054, symSize: 0x34 }
  - { offsetInCU: 0x2C1F0, offset: 0x4135F, size: 0x8, addend: 0x0, symName: '__ZNSt3__122__compressed_pair_elemINS_22__allocator_destructorINS_9allocatorINS_10__function6__funcIZN5dgrad4subsEPNS5_6TensorES7_E3$_1NS2_IS8_EEFvvEEEEEEELi1ELb0EE5__getB8ue170006Ev', symObjAddr: 0x10E64, symBinAddr: 0x100019088, symSize: 0x14 }
  - { offsetInCU: 0x2C216, offset: 0x41385, size: 0x8, addend: 0x0, symName: '__ZNSt3__116allocator_traitsINS_9allocatorINS_10__function6__funcIZN5dgrad4subsEPNS4_6TensorES6_E3$_1NS1_IS7_EEFvvEEEEEE10deallocateB8ue170006ERSB_PSA_m', symObjAddr: 0x10E78, symBinAddr: 0x10001909C, symSize: 0x34 }
  - { offsetInCU: 0x2C258, offset: 0x413C7, size: 0x8, addend: 0x0, symName: '__ZNSt3__19allocatorINS_10__function6__funcIZN5dgrad4subsEPNS3_6TensorES5_E3$_1NS0_IS6_EEFvvEEEE10deallocateB8ue170006EPS9_m', symObjAddr: 0x10EAC, symBinAddr: 0x1000190D0, symSize: 0x40 }
  - { offsetInCU: 0x2C29A, offset: 0x41409, size: 0x8, addend: 0x0, symName: '__ZNSt3__110__function6__funcIZN5dgrad4subsEPNS2_6TensorES4_E3$_1NS_9allocatorIS5_EEFvvEEC1B8ue170006ERKS5_RKS7_', symObjAddr: 0x10EEC, symBinAddr: 0x100019110, symSize: 0x3C }
  - { offsetInCU: 0x2C2E2, offset: 0x41451, size: 0x8, addend: 0x0, symName: '__ZNSt3__110__function6__funcIZN5dgrad4subsEPNS2_6TensorES4_E3$_1NS_9allocatorIS5_EEFvvEEC2B8ue170006ERKS5_RKS7_', symObjAddr: 0x10F28, symBinAddr: 0x10001914C, symSize: 0x88 }
  - { offsetInCU: 0x2C32A, offset: 0x41499, size: 0x8, addend: 0x0, symName: '__ZNSt3__110__function12__alloc_funcIZN5dgrad4subsEPNS2_6TensorES4_E3$_1NS_9allocatorIS5_EEFvvEEC1B8ue170006ERKS5_RKS7_', symObjAddr: 0x10FB0, symBinAddr: 0x1000191D4, symSize: 0x3C }
  - { offsetInCU: 0x2C370, offset: 0x414DF, size: 0x8, addend: 0x0, symName: '__ZNSt3__110__function12__alloc_funcIZN5dgrad4subsEPNS2_6TensorES4_E3$_1NS_9allocatorIS5_EEFvvEEC2B8ue170006ERKS5_RKS7_', symObjAddr: 0x10FEC, symBinAddr: 0x100019210, symSize: 0x5C }
  - { offsetInCU: 0x2C3B6, offset: 0x41525, size: 0x8, addend: 0x0, symName: '__ZNSt3__117__compressed_pairIZN5dgrad4subsEPNS1_6TensorES3_E3$_1NS_9allocatorIS4_EEEC1B8ue170006IJRKS4_EJRKS6_EEENS_21piecewise_construct_tENS_5tupleIJDpT_EEENSE_IJDpT0_EEE', symObjAddr: 0x11074, symBinAddr: 0x100019298, symSize: 0x3C }
  - { offsetInCU: 0x2C420, offset: 0x4158F, size: 0x8, addend: 0x0, symName: '__ZNSt3__15tupleIJRKNS_9allocatorIZN5dgrad4subsEPNS2_6TensorES4_E3$_1EEEEC1B8ue170006INS_4_AndELi0EEES8_', symObjAddr: 0x110B0, symBinAddr: 0x1000192D4, symSize: 0x34 }
  - { offsetInCU: 0x2C468, offset: 0x415D7, size: 0x8, addend: 0x0, symName: '__ZNSt3__15tupleIJRKNS_9allocatorIZN5dgrad4subsEPNS2_6TensorES4_E3$_1EEEEC2B8ue170006INS_4_AndELi0EEES8_', symObjAddr: 0x110E4, symBinAddr: 0x100019308, symSize: 0x34 }
  - { offsetInCU: 0x2C4B0, offset: 0x4161F, size: 0x8, addend: 0x0, symName: '__ZNSt3__112__tuple_implINS_15__tuple_indicesIJLm0EEEEJRKNS_9allocatorIZN5dgrad4subsEPNS4_6TensorES6_E3$_1EEEEC1B8ue170006IJLm0EEJSA_EJEJEJSA_EEENS1_IJXspT_EEEENS_13__tuple_typesIJDpT0_EEENS1_IJXspT1_EEEENSE_IJDpT2_EEEDpOT3_', symObjAddr: 0x11118, symBinAddr: 0x10001933C, symSize: 0x34 }
  - { offsetInCU: 0x2C541, offset: 0x416B0, size: 0x8, addend: 0x0, symName: '__ZNSt3__112__tuple_implINS_15__tuple_indicesIJLm0EEEEJRKNS_9allocatorIZN5dgrad4subsEPNS4_6TensorES6_E3$_1EEEEC2B8ue170006IJLm0EEJSA_EJEJEJSA_EEENS1_IJXspT_EEEENS_13__tuple_typesIJDpT0_EEENS1_IJXspT1_EEEENSE_IJDpT2_EEEDpOT3_', symObjAddr: 0x1114C, symBinAddr: 0x100019370, symSize: 0x34 }
  - { offsetInCU: 0x2C5D2, offset: 0x41741, size: 0x8, addend: 0x0, symName: '__ZNSt3__112__tuple_leafILm0ERKNS_9allocatorIZN5dgrad4subsEPNS2_6TensorES4_E3$_1EELb0EEC2B8ue170006IS8_vEEOT_', symObjAddr: 0x11180, symBinAddr: 0x1000193A4, symSize: 0x20 }
  - { offsetInCU: 0x2C615, offset: 0x41784, size: 0x8, addend: 0x0, symName: '__ZNSt3__117__compressed_pairIZN5dgrad4subsEPNS1_6TensorES3_E3$_1NS_9allocatorIS4_EEEC2B8ue170006IJRKS4_EJRKS6_EEENS_21piecewise_construct_tENS_5tupleIJDpT_EEENSE_IJDpT0_EEE', symObjAddr: 0x111A0, symBinAddr: 0x1000193C4, symSize: 0x54 }
  - { offsetInCU: 0x2C67F, offset: 0x417EE, size: 0x8, addend: 0x0, symName: '__ZNSt3__122__compressed_pair_elemINS_9allocatorIZN5dgrad4subsEPNS2_6TensorES4_E3$_1EELi1ELb1EEC2B8ue170006IJRKS6_EJLm0EEEENS_21piecewise_construct_tENS_5tupleIJDpT_EEENS_15__tuple_indicesIJXspT0_EEEE', symObjAddr: 0x111F4, symBinAddr: 0x100019418, symSize: 0x38 }
  - { offsetInCU: 0x2C6E2, offset: 0x41851, size: 0x8, addend: 0x0, symName: '__ZNSt3__112__tuple_leafILm0ERKNS_9allocatorIZN5dgrad4subsEPNS2_6TensorES4_E3$_1EELb0EE3getB8ue170006Ev', symObjAddr: 0x11250, symBinAddr: 0x100019474, symSize: 0x18 }
  - { offsetInCU: 0x2C708, offset: 0x41877, size: 0x8, addend: 0x0, symName: '__ZNSt3__110__function12__alloc_funcIZN5dgrad4subsEPNS2_6TensorES4_E3$_1NS_9allocatorIS5_EEFvvEE7destroyB8ue170006Ev', symObjAddr: 0x11268, symBinAddr: 0x10001948C, symSize: 0x10 }
  - { offsetInCU: 0x2C72E, offset: 0x4189D, size: 0x8, addend: 0x0, symName: '__ZNSt3__110__function12__alloc_funcIZN5dgrad4subsEPNS2_6TensorES4_E3$_1NS_9allocatorIS5_EEFvvEEclB8ue170006Ev', symObjAddr: 0x11278, symBinAddr: 0x10001949C, symSize: 0x28 }
  - { offsetInCU: 0x2C754, offset: 0x418C3, size: 0x8, addend: 0x0, symName: '__ZNSt3__128__invoke_void_return_wrapperIvLb1EE6__callB8ue170006IJRZN5dgrad4subsEPNS3_6TensorES5_E3$_1EEEvDpOT_', symObjAddr: 0x112A0, symBinAddr: 0x1000194C4, symSize: 0x24 }
  - { offsetInCU: 0x2C783, offset: 0x418F2, size: 0x8, addend: 0x0, symName: '__ZNSt3__117__compressed_pairIZN5dgrad4subsEPNS1_6TensorES3_E3$_1NS_9allocatorIS4_EEE5firstB8ue170006Ev', symObjAddr: 0x112C4, symBinAddr: 0x1000194E8, symSize: 0x24 }
  - { offsetInCU: 0x2C7AE, offset: 0x4191D, size: 0x8, addend: 0x0, symName: '__ZZN5dgrad4subsEPNS_6TensorES1_ENK3$_1clEv', symObjAddr: 0x1130C, symBinAddr: 0x100019530, symSize: 0xE4 }
  - { offsetInCU: 0x2C7F4, offset: 0x41963, size: 0x8, addend: 0x0, symName: '__ZNSt3__122__compressed_pair_elemIZN5dgrad4subsEPNS1_6TensorES3_E3$_1Li0ELb0EE5__getB8ue170006Ev', symObjAddr: 0x113F0, symBinAddr: 0x100019614, symSize: 0x14 }
  - { offsetInCU: 0x2C81A, offset: 0x41989, size: 0x8, addend: 0x0, symName: '__ZNSt3__110unique_ptrINS_10__function6__baseIFvvEEENS_22__allocator_destructorINS_9allocatorINS1_6__funcIZN5dgrad4subsEPNS8_6TensorESA_E3$_1NS6_ISB_EES3_EEEEEEED2B8ue170006Ev', symObjAddr: 0x11404, symBinAddr: 0x100019628, symSize: 0x30 }
  - { offsetInCU: 0x2C844, offset: 0x419B3, size: 0x8, addend: 0x0, symName: '__ZNSt3__110unique_ptrINS_10__function6__baseIFvvEEENS_22__allocator_destructorINS_9allocatorINS1_6__funcIZN5dgrad4subsEPNS8_6TensorESA_E3$_1NS6_ISB_EES3_EEEEEEE5resetB8ue170006EPSD_', symObjAddr: 0x11434, symBinAddr: 0x100019658, symSize: 0x78 }
  - { offsetInCU: 0x2C888, offset: 0x419F7, size: 0x8, addend: 0x0, symName: '__ZNSt3__18functionIFvvEEC1IZN5dgrad4multEPNS4_6TensorES6_E3$_2vEET_', symObjAddr: 0x114AC, symBinAddr: 0x1000196D0, symSize: 0x34 }
  - { offsetInCU: 0x2C8CE, offset: 0x41A3D, size: 0x8, addend: 0x0, symName: '__ZNSt3__18functionIFvvEEC2IZN5dgrad4multEPNS4_6TensorES6_E3$_2vEET_', symObjAddr: 0x114E0, symBinAddr: 0x100019704, symSize: 0x34 }
  - { offsetInCU: 0x2C914, offset: 0x41A83, size: 0x8, addend: 0x0, symName: '__ZNSt3__110__function12__value_funcIFvvEEC1B8ue170006IZN5dgrad4multEPNS5_6TensorES7_E3$_2vEEOT_', symObjAddr: 0x11514, symBinAddr: 0x100019738, symSize: 0x50 }
  - { offsetInCU: 0x2C957, offset: 0x41AC6, size: 0x8, addend: 0x0, symName: '__ZNSt3__19allocatorIZN5dgrad4multEPNS1_6TensorES3_E3$_2EC1B8ue170006Ev', symObjAddr: 0x11564, symBinAddr: 0x100019788, symSize: 0x2C }
  - { offsetInCU: 0x2C981, offset: 0x41AF0, size: 0x8, addend: 0x0, symName: '__ZNSt3__110__function12__value_funcIFvvEEC1B8ue170006IZN5dgrad4multEPNS5_6TensorES7_E3$_2NS_9allocatorIS8_EEEEOT_RKT0_', symObjAddr: 0x11590, symBinAddr: 0x1000197B4, symSize: 0x3C }
  - { offsetInCU: 0x2C9DB, offset: 0x41B4A, size: 0x8, addend: 0x0, symName: '__ZNSt3__19allocatorIZN5dgrad4multEPNS1_6TensorES3_E3$_2EC2B8ue170006Ev', symObjAddr: 0x115CC, symBinAddr: 0x1000197F0, symSize: 0x2C }
  - { offsetInCU: 0x2CA05, offset: 0x41B74, size: 0x8, addend: 0x0, symName: '__ZNSt3__116__non_trivial_ifILb1ENS_9allocatorIZN5dgrad4multEPNS2_6TensorES4_E3$_2EEEC2B8ue170006Ev', symObjAddr: 0x115F8, symBinAddr: 0x10001981C, symSize: 0x14 }
  - { offsetInCU: 0x2CA2F, offset: 0x41B9E, size: 0x8, addend: 0x0, symName: '__ZNSt3__110__function12__value_funcIFvvEEC2B8ue170006IZN5dgrad4multEPNS5_6TensorES7_E3$_2NS_9allocatorIS8_EEEEOT_RKT0_', symObjAddr: 0x1160C, symBinAddr: 0x100019830, symSize: 0xF4 }
  - { offsetInCU: 0x2CAE2, offset: 0x41C51, size: 0x8, addend: 0x0, symName: '__ZNSt3__19allocatorINS_10__function6__funcIZN5dgrad4multEPNS3_6TensorES5_E3$_2NS0_IS6_EEFvvEEEEC1B8ue170006IS6_EERKNS0_IT_EE', symObjAddr: 0x11718, symBinAddr: 0x10001993C, symSize: 0x34 }
  - { offsetInCU: 0x2CB1F, offset: 0x41C8E, size: 0x8, addend: 0x0, symName: '__ZNSt3__19allocatorINS_10__function6__funcIZN5dgrad4multEPNS3_6TensorES5_E3$_2NS0_IS6_EEFvvEEEE8allocateB8ue170006Em', symObjAddr: 0x1174C, symBinAddr: 0x100019970, symSize: 0x58 }
  - { offsetInCU: 0x2CB62, offset: 0x41CD1, size: 0x8, addend: 0x0, symName: '__ZNSt3__122__allocator_destructorINS_9allocatorINS_10__function6__funcIZN5dgrad4multEPNS4_6TensorES6_E3$_2NS1_IS7_EEFvvEEEEEEC1B8ue170006ERSB_m', symObjAddr: 0x117A4, symBinAddr: 0x1000199C8, symSize: 0x3C }
  - { offsetInCU: 0x2CC36, offset: 0x41DA5, size: 0x8, addend: 0x0, symName: '__ZNSt3__110unique_ptrINS_10__function6__baseIFvvEEENS_22__allocator_destructorINS_9allocatorINS1_6__funcIZN5dgrad4multEPNS8_6TensorESA_E3$_2NS6_ISB_EES3_EEEEEEEC1B8ue170006ILb1EvEEPSD_NS_16__dependent_typeINS_27__unique_ptr_deleter_sfinaeISF_EEXT_EE20__good_rval_ref_typeE', symObjAddr: 0x117E0, symBinAddr: 0x100019A04, symSize: 0x3C }
  - { offsetInCU: 0x2CC87, offset: 0x41DF6, size: 0x8, addend: 0x0, symName: '__ZNKSt3__110unique_ptrINS_10__function6__baseIFvvEEENS_22__allocator_destructorINS_9allocatorINS1_6__funcIZN5dgrad4multEPNS8_6TensorESA_E3$_2NS6_ISB_EES3_EEEEEEE3getB8ue170006Ev', symObjAddr: 0x1181C, symBinAddr: 0x100019A40, symSize: 0x28 }
  - { offsetInCU: 0x2CCAD, offset: 0x41E1C, size: 0x8, addend: 0x0, symName: '__ZNSt3__110__function6__funcIZN5dgrad4multEPNS2_6TensorES4_E3$_2NS_9allocatorIS5_EEFvvEEC1B8ue170006EOS5_OS7_', symObjAddr: 0x11844, symBinAddr: 0x100019A68, symSize: 0x3C }
  - { offsetInCU: 0x2CCF5, offset: 0x41E64, size: 0x8, addend: 0x0, symName: '__ZNSt3__110unique_ptrINS_10__function6__baseIFvvEEENS_22__allocator_destructorINS_9allocatorINS1_6__funcIZN5dgrad4multEPNS8_6TensorESA_E3$_2NS6_ISB_EES3_EEEEEEE7releaseB8ue170006Ev', symObjAddr: 0x11880, symBinAddr: 0x100019AA4, symSize: 0x44 }
  - { offsetInCU: 0x2CD2A, offset: 0x41E99, size: 0x8, addend: 0x0, symName: '__ZNSt3__110unique_ptrINS_10__function6__baseIFvvEEENS_22__allocator_destructorINS_9allocatorINS1_6__funcIZN5dgrad4multEPNS8_6TensorESA_E3$_2NS6_ISB_EES3_EEEEEEED1B8ue170006Ev', symObjAddr: 0x118C4, symBinAddr: 0x100019AE8, symSize: 0x2C }
  - { offsetInCU: 0x2CD54, offset: 0x41EC3, size: 0x8, addend: 0x0, symName: '__ZNSt3__19allocatorINS_10__function6__funcIZN5dgrad4multEPNS3_6TensorES5_E3$_2NS0_IS6_EEFvvEEEEC2B8ue170006IS6_EERKNS0_IT_EE', symObjAddr: 0x118F0, symBinAddr: 0x100019B14, symSize: 0x30 }
  - { offsetInCU: 0x2CD91, offset: 0x41F00, size: 0x8, addend: 0x0, symName: '__ZNSt3__116__non_trivial_ifILb1ENS_9allocatorINS_10__function6__funcIZN5dgrad4multEPNS4_6TensorES6_E3$_2NS1_IS7_EEFvvEEEEEEC2B8ue170006Ev', symObjAddr: 0x11920, symBinAddr: 0x100019B44, symSize: 0x14 }
  - { offsetInCU: 0x2CDC5, offset: 0x41F34, size: 0x8, addend: 0x0, symName: '__ZNSt3__116allocator_traitsINS_9allocatorINS_10__function6__funcIZN5dgrad4multEPNS4_6TensorES6_E3$_2NS1_IS7_EEFvvEEEEEE8max_sizeB8ue170006ISB_vEEmRKSB_', symObjAddr: 0x11934, symBinAddr: 0x100019B58, symSize: 0x24 }
  - { offsetInCU: 0x2CDF3, offset: 0x41F62, size: 0x8, addend: 0x0, symName: '__ZNKSt3__19allocatorINS_10__function6__funcIZN5dgrad4multEPNS3_6TensorES5_E3$_2NS0_IS6_EEFvvEEEE8max_sizeB8ue170006Ev', symObjAddr: 0x11958, symBinAddr: 0x100019B7C, symSize: 0x14 }
  - { offsetInCU: 0x2CE19, offset: 0x41F88, size: 0x8, addend: 0x0, symName: '__ZNSt3__122__allocator_destructorINS_9allocatorINS_10__function6__funcIZN5dgrad4multEPNS4_6TensorES6_E3$_2NS1_IS7_EEFvvEEEEEEC2B8ue170006ERSB_m', symObjAddr: 0x1196C, symBinAddr: 0x100019B90, symSize: 0x2C }
  - { offsetInCU: 0x2CE5F, offset: 0x41FCE, size: 0x8, addend: 0x0, symName: '__ZNSt3__110unique_ptrINS_10__function6__baseIFvvEEENS_22__allocator_destructorINS_9allocatorINS1_6__funcIZN5dgrad4multEPNS8_6TensorESA_E3$_2NS6_ISB_EES3_EEEEEEEC2B8ue170006ILb1EvEEPSD_NS_16__dependent_typeINS_27__unique_ptr_deleter_sfinaeISF_EEXT_EE20__good_rval_ref_typeE', symObjAddr: 0x11998, symBinAddr: 0x100019BBC, symSize: 0x48 }
  - { offsetInCU: 0x2CEB0, offset: 0x4201F, size: 0x8, addend: 0x0, symName: '__ZNSt3__117__compressed_pairIPNS_10__function6__funcIZN5dgrad4multEPNS3_6TensorES5_E3$_2NS_9allocatorIS6_EEFvvEEENS_22__allocator_destructorINS7_ISA_EEEEEC1B8ue170006IRSB_SE_EEOT_OT0_', symObjAddr: 0x119E0, symBinAddr: 0x100019C04, symSize: 0x3C }
  - { offsetInCU: 0x2CF08, offset: 0x42077, size: 0x8, addend: 0x0, symName: '__ZNSt3__117__compressed_pairIPNS_10__function6__funcIZN5dgrad4multEPNS3_6TensorES5_E3$_2NS_9allocatorIS6_EEFvvEEENS_22__allocator_destructorINS7_ISA_EEEEEC2B8ue170006IRSB_SE_EEOT_OT0_', symObjAddr: 0x11A1C, symBinAddr: 0x100019C40, symSize: 0x48 }
  - { offsetInCU: 0x2CF60, offset: 0x420CF, size: 0x8, addend: 0x0, symName: '__ZNSt3__122__compressed_pair_elemIPNS_10__function6__funcIZN5dgrad4multEPNS3_6TensorES5_E3$_2NS_9allocatorIS6_EEFvvEEELi0ELb0EEC2B8ue170006IRSB_vEEOT_', symObjAddr: 0x11A64, symBinAddr: 0x100019C88, symSize: 0x24 }
  - { offsetInCU: 0x2CFA2, offset: 0x42111, size: 0x8, addend: 0x0, symName: '__ZNSt3__122__compressed_pair_elemINS_22__allocator_destructorINS_9allocatorINS_10__function6__funcIZN5dgrad4multEPNS5_6TensorES7_E3$_2NS2_IS8_EEFvvEEEEEEELi1ELb0EEC2B8ue170006ISD_vEEOT_', symObjAddr: 0x11A88, symBinAddr: 0x100019CAC, symSize: 0x24 }
  - { offsetInCU: 0x2CFE4, offset: 0x42153, size: 0x8, addend: 0x0, symName: '__ZNKSt3__117__compressed_pairIPNS_10__function6__funcIZN5dgrad4multEPNS3_6TensorES5_E3$_2NS_9allocatorIS6_EEFvvEEENS_22__allocator_destructorINS7_ISA_EEEEE5firstB8ue170006Ev', symObjAddr: 0x11AAC, symBinAddr: 0x100019CD0, symSize: 0x24 }
  - { offsetInCU: 0x2D00A, offset: 0x42179, size: 0x8, addend: 0x0, symName: '__ZNKSt3__122__compressed_pair_elemIPNS_10__function6__funcIZN5dgrad4multEPNS3_6TensorES5_E3$_2NS_9allocatorIS6_EEFvvEEELi0ELb0EE5__getB8ue170006Ev', symObjAddr: 0x11AD0, symBinAddr: 0x100019CF4, symSize: 0x14 }
  - { offsetInCU: 0x2D030, offset: 0x4219F, size: 0x8, addend: 0x0, symName: '__ZNSt3__110__function6__funcIZN5dgrad4multEPNS2_6TensorES4_E3$_2NS_9allocatorIS5_EEFvvEEC2B8ue170006EOS5_OS7_', symObjAddr: 0x11AE4, symBinAddr: 0x100019D08, symSize: 0x88 }
  - { offsetInCU: 0x2D078, offset: 0x421E7, size: 0x8, addend: 0x0, symName: '__ZNSt3__110__function12__alloc_funcIZN5dgrad4multEPNS2_6TensorES4_E3$_2NS_9allocatorIS5_EEFvvEEC1B8ue170006EOS5_OS7_', symObjAddr: 0x11B6C, symBinAddr: 0x100019D90, symSize: 0x3C }
  - { offsetInCU: 0x2D0BE, offset: 0x4222D, size: 0x8, addend: 0x0, symName: '__ZNSt3__110__function6__funcIZN5dgrad4multEPNS2_6TensorES4_E3$_2NS_9allocatorIS5_EEFvvEED1Ev', symObjAddr: 0x11BA8, symBinAddr: 0x100019DCC, symSize: 0x2C }
  - { offsetInCU: 0x2D0EB, offset: 0x4225A, size: 0x8, addend: 0x0, symName: '__ZNSt3__110__function6__funcIZN5dgrad4multEPNS2_6TensorES4_E3$_2NS_9allocatorIS5_EEFvvEED0Ev', symObjAddr: 0x11BD4, symBinAddr: 0x100019DF8, symSize: 0x30 }
  - { offsetInCU: 0x2D118, offset: 0x42287, size: 0x8, addend: 0x0, symName: '__ZNKSt3__110__function6__funcIZN5dgrad4multEPNS2_6TensorES4_E3$_2NS_9allocatorIS5_EEFvvEE7__cloneEv', symObjAddr: 0x11C04, symBinAddr: 0x100019E28, symSize: 0xFC }
  - { offsetInCU: 0x2D16A, offset: 0x422D9, size: 0x8, addend: 0x0, symName: '__ZNKSt3__110__function6__funcIZN5dgrad4multEPNS2_6TensorES4_E3$_2NS_9allocatorIS5_EEFvvEE7__cloneEPNS0_6__baseIS8_EE', symObjAddr: 0x11D00, symBinAddr: 0x100019F24, symSize: 0x58 }
  - { offsetInCU: 0x2D1A1, offset: 0x42310, size: 0x8, addend: 0x0, symName: '__ZNSt3__110__function6__funcIZN5dgrad4multEPNS2_6TensorES4_E3$_2NS_9allocatorIS5_EEFvvEE7destroyEv', symObjAddr: 0x11D58, symBinAddr: 0x100019F7C, symSize: 0x28 }
  - { offsetInCU: 0x2D1C9, offset: 0x42338, size: 0x8, addend: 0x0, symName: '__ZNSt3__110__function6__funcIZN5dgrad4multEPNS2_6TensorES4_E3$_2NS_9allocatorIS5_EEFvvEE18destroy_deallocateEv', symObjAddr: 0x11D80, symBinAddr: 0x100019FA4, symSize: 0x58 }
  - { offsetInCU: 0x2D20C, offset: 0x4237B, size: 0x8, addend: 0x0, symName: '__ZNSt3__110__function6__funcIZN5dgrad4multEPNS2_6TensorES4_E3$_2NS_9allocatorIS5_EEFvvEEclEv', symObjAddr: 0x11DD8, symBinAddr: 0x100019FFC, symSize: 0x28 }
  - { offsetInCU: 0x2D234, offset: 0x423A3, size: 0x8, addend: 0x0, symName: '__ZNKSt3__110__function6__funcIZN5dgrad4multEPNS2_6TensorES4_E3$_2NS_9allocatorIS5_EEFvvEE6targetERKSt9type_info', symObjAddr: 0x11E00, symBinAddr: 0x10001A024, symSize: 0x60 }
  - { offsetInCU: 0x2D26B, offset: 0x423DA, size: 0x8, addend: 0x0, symName: '__ZNKSt3__110__function6__funcIZN5dgrad4multEPNS2_6TensorES4_E3$_2NS_9allocatorIS5_EEFvvEE11target_typeEv', symObjAddr: 0x11E60, symBinAddr: 0x10001A084, symSize: 0x18 }
  - { offsetInCU: 0x2D293, offset: 0x42402, size: 0x8, addend: 0x0, symName: '__ZNSt3__110__function12__alloc_funcIZN5dgrad4multEPNS2_6TensorES4_E3$_2NS_9allocatorIS5_EEFvvEEC2B8ue170006EOS5_OS7_', symObjAddr: 0x11E78, symBinAddr: 0x10001A09C, symSize: 0x5C }
  - { offsetInCU: 0x2D2D9, offset: 0x42448, size: 0x8, addend: 0x0, symName: '__ZNSt3__117__compressed_pairIZN5dgrad4multEPNS1_6TensorES3_E3$_2NS_9allocatorIS4_EEEC1B8ue170006IJOS4_EJOS6_EEENS_21piecewise_construct_tENS_5tupleIJDpT_EEENSC_IJDpT0_EEE', symObjAddr: 0x11F2C, symBinAddr: 0x10001A150, symSize: 0x3C }
  - { offsetInCU: 0x2D343, offset: 0x424B2, size: 0x8, addend: 0x0, symName: '__ZNSt3__15tupleIJOZN5dgrad4multEPNS1_6TensorES3_E3$_2EEC1B8ue170006IJS4_ELi0EEEDpOT_', symObjAddr: 0x11F68, symBinAddr: 0x10001A18C, symSize: 0x34 }
  - { offsetInCU: 0x2D38D, offset: 0x424FC, size: 0x8, addend: 0x0, symName: '__ZNSt3__15tupleIJOZN5dgrad4multEPNS1_6TensorES3_E3$_2EEC2B8ue170006IJS4_ELi0EEEDpOT_', symObjAddr: 0x11F9C, symBinAddr: 0x10001A1C0, symSize: 0x34 }
  - { offsetInCU: 0x2D3D7, offset: 0x42546, size: 0x8, addend: 0x0, symName: '__ZNSt3__112__tuple_implINS_15__tuple_indicesIJLm0EEEEJOZN5dgrad4multEPNS3_6TensorES5_E3$_2EEC1B8ue170006IJLm0EEJS7_EJEJEJS6_EEENS1_IJXspT_EEEENS_13__tuple_typesIJDpT0_EEENS1_IJXspT1_EEEENSB_IJDpT2_EEEDpOT3_', symObjAddr: 0x11FD0, symBinAddr: 0x10001A1F4, symSize: 0x34 }
  - { offsetInCU: 0x2D468, offset: 0x425D7, size: 0x8, addend: 0x0, symName: '__ZNSt3__112__tuple_implINS_15__tuple_indicesIJLm0EEEEJOZN5dgrad4multEPNS3_6TensorES5_E3$_2EEC2B8ue170006IJLm0EEJS7_EJEJEJS6_EEENS1_IJXspT_EEEENS_13__tuple_typesIJDpT0_EEENS1_IJXspT1_EEEENSB_IJDpT2_EEEDpOT3_', symObjAddr: 0x12004, symBinAddr: 0x10001A228, symSize: 0x34 }
  - { offsetInCU: 0x2D4F9, offset: 0x42668, size: 0x8, addend: 0x0, symName: '__ZNSt3__112__tuple_leafILm0EOZN5dgrad4multEPNS1_6TensorES3_E3$_2Lb0EEC2B8ue170006IS4_vEEOT_', symObjAddr: 0x12038, symBinAddr: 0x10001A25C, symSize: 0x20 }
  - { offsetInCU: 0x2D53C, offset: 0x426AB, size: 0x8, addend: 0x0, symName: '__ZNSt3__15tupleIJONS_9allocatorIZN5dgrad4multEPNS2_6TensorES4_E3$_2EEEEC1B8ue170006IJS6_ELi0EEEDpOT_', symObjAddr: 0x12058, symBinAddr: 0x10001A27C, symSize: 0x34 }
  - { offsetInCU: 0x2D586, offset: 0x426F5, size: 0x8, addend: 0x0, symName: '__ZNSt3__15tupleIJONS_9allocatorIZN5dgrad4multEPNS2_6TensorES4_E3$_2EEEEC2B8ue170006IJS6_ELi0EEEDpOT_', symObjAddr: 0x1208C, symBinAddr: 0x10001A2B0, symSize: 0x34 }
  - { offsetInCU: 0x2D5D0, offset: 0x4273F, size: 0x8, addend: 0x0, symName: '__ZNSt3__112__tuple_implINS_15__tuple_indicesIJLm0EEEEJONS_9allocatorIZN5dgrad4multEPNS4_6TensorES6_E3$_2EEEEC1B8ue170006IJLm0EEJS9_EJEJEJS8_EEENS1_IJXspT_EEEENS_13__tuple_typesIJDpT0_EEENS1_IJXspT1_EEEENSD_IJDpT2_EEEDpOT3_', symObjAddr: 0x120C0, symBinAddr: 0x10001A2E4, symSize: 0x34 }
  - { offsetInCU: 0x2D661, offset: 0x427D0, size: 0x8, addend: 0x0, symName: '__ZNSt3__112__tuple_implINS_15__tuple_indicesIJLm0EEEEJONS_9allocatorIZN5dgrad4multEPNS4_6TensorES6_E3$_2EEEEC2B8ue170006IJLm0EEJS9_EJEJEJS8_EEENS1_IJXspT_EEEENS_13__tuple_typesIJDpT0_EEENS1_IJXspT1_EEEENSD_IJDpT2_EEEDpOT3_', symObjAddr: 0x120F4, symBinAddr: 0x10001A318, symSize: 0x34 }
  - { offsetInCU: 0x2D6F2, offset: 0x42861, size: 0x8, addend: 0x0, symName: '__ZNSt3__112__tuple_leafILm0EONS_9allocatorIZN5dgrad4multEPNS2_6TensorES4_E3$_2EELb0EEC2B8ue170006IS6_vEEOT_', symObjAddr: 0x12128, symBinAddr: 0x10001A34C, symSize: 0x20 }
  - { offsetInCU: 0x2D735, offset: 0x428A4, size: 0x8, addend: 0x0, symName: '__ZNSt3__117__compressed_pairIZN5dgrad4multEPNS1_6TensorES3_E3$_2NS_9allocatorIS4_EEEC2B8ue170006IJOS4_EJOS6_EEENS_21piecewise_construct_tENS_5tupleIJDpT_EEENSC_IJDpT0_EEE', symObjAddr: 0x12148, symBinAddr: 0x10001A36C, symSize: 0x54 }
  - { offsetInCU: 0x2D79F, offset: 0x4290E, size: 0x8, addend: 0x0, symName: '__ZNSt3__122__compressed_pair_elemIZN5dgrad4multEPNS1_6TensorES3_E3$_2Li0ELb0EEC2B8ue170006IJOS4_EJLm0EEEENS_21piecewise_construct_tENS_5tupleIJDpT_EEENS_15__tuple_indicesIJXspT0_EEEE', symObjAddr: 0x1219C, symBinAddr: 0x10001A3C0, symSize: 0x4C }
  - { offsetInCU: 0x2D802, offset: 0x42971, size: 0x8, addend: 0x0, symName: '__ZNSt3__122__compressed_pair_elemINS_9allocatorIZN5dgrad4multEPNS2_6TensorES4_E3$_2EELi1ELb1EEC2B8ue170006IJOS6_EJLm0EEEENS_21piecewise_construct_tENS_5tupleIJDpT_EEENS_15__tuple_indicesIJXspT0_EEEE', symObjAddr: 0x121E8, symBinAddr: 0x10001A40C, symSize: 0x38 }
  - { offsetInCU: 0x2D865, offset: 0x429D4, size: 0x8, addend: 0x0, symName: '__ZNSt3__112__tuple_leafILm0EOZN5dgrad4multEPNS1_6TensorES3_E3$_2Lb0EE3getB8ue170006Ev', symObjAddr: 0x12244, symBinAddr: 0x10001A468, symSize: 0x18 }
  - { offsetInCU: 0x2D88B, offset: 0x429FA, size: 0x8, addend: 0x0, symName: '__ZNSt3__112__tuple_leafILm0EONS_9allocatorIZN5dgrad4multEPNS2_6TensorES4_E3$_2EELb0EE3getB8ue170006Ev', symObjAddr: 0x12280, symBinAddr: 0x10001A4A4, symSize: 0x18 }
  - { offsetInCU: 0x2D8B1, offset: 0x42A20, size: 0x8, addend: 0x0, symName: '__ZNSt3__110__function6__funcIZN5dgrad4multEPNS2_6TensorES4_E3$_2NS_9allocatorIS5_EEFvvEED2Ev', symObjAddr: 0x12298, symBinAddr: 0x10001A4BC, symSize: 0x2C }
  - { offsetInCU: 0x2D8DE, offset: 0x42A4D, size: 0x8, addend: 0x0, symName: '__ZNKSt3__110__function12__alloc_funcIZN5dgrad4multEPNS2_6TensorES4_E3$_2NS_9allocatorIS5_EEFvvEE15__get_allocatorB8ue170006Ev', symObjAddr: 0x122C4, symBinAddr: 0x10001A4E8, symSize: 0x24 }
  - { offsetInCU: 0x2D92D, offset: 0x42A9C, size: 0x8, addend: 0x0, symName: '__ZNSt3__110unique_ptrINS_10__function6__funcIZN5dgrad4multEPNS3_6TensorES5_E3$_2NS_9allocatorIS6_EEFvvEEENS_22__allocator_destructorINS7_ISA_EEEEEC1B8ue170006ILb1EvEEPSA_NS_16__dependent_typeINS_27__unique_ptr_deleter_sfinaeISD_EEXT_EE20__good_rval_ref_typeE', symObjAddr: 0x122E8, symBinAddr: 0x10001A50C, symSize: 0x3C }
  - { offsetInCU: 0x2D97E, offset: 0x42AED, size: 0x8, addend: 0x0, symName: '__ZNKSt3__110unique_ptrINS_10__function6__funcIZN5dgrad4multEPNS3_6TensorES5_E3$_2NS_9allocatorIS6_EEFvvEEENS_22__allocator_destructorINS7_ISA_EEEEE3getB8ue170006Ev', symObjAddr: 0x12324, symBinAddr: 0x10001A548, symSize: 0x28 }
  - { offsetInCU: 0x2D9A4, offset: 0x42B13, size: 0x8, addend: 0x0, symName: '__ZNKSt3__110__function12__alloc_funcIZN5dgrad4multEPNS2_6TensorES4_E3$_2NS_9allocatorIS5_EEFvvEE8__targetB8ue170006Ev', symObjAddr: 0x1234C, symBinAddr: 0x10001A570, symSize: 0x24 }
  - { offsetInCU: 0x2D9CF, offset: 0x42B3E, size: 0x8, addend: 0x0, symName: '__ZNSt3__19allocatorIZN5dgrad4multEPNS1_6TensorES3_E3$_2EC1B8ue170006INS_10__function6__funcIS4_S5_FvvEEEEERKNS0_IT_EE', symObjAddr: 0x12370, symBinAddr: 0x10001A594, symSize: 0x34 }
  - { offsetInCU: 0x2DA0C, offset: 0x42B7B, size: 0x8, addend: 0x0, symName: '__ZNSt3__110__function6__funcIZN5dgrad4multEPNS2_6TensorES4_E3$_2NS_9allocatorIS5_EEFvvEEC1B8ue170006ERKS5_OS7_', symObjAddr: 0x123A4, symBinAddr: 0x10001A5C8, symSize: 0x3C }
  - { offsetInCU: 0x2DA54, offset: 0x42BC3, size: 0x8, addend: 0x0, symName: '__ZNSt3__110unique_ptrINS_10__function6__funcIZN5dgrad4multEPNS3_6TensorES5_E3$_2NS_9allocatorIS6_EEFvvEEENS_22__allocator_destructorINS7_ISA_EEEEE7releaseB8ue170006Ev', symObjAddr: 0x123E0, symBinAddr: 0x10001A604, symSize: 0x44 }
  - { offsetInCU: 0x2DA89, offset: 0x42BF8, size: 0x8, addend: 0x0, symName: '__ZNSt3__110unique_ptrINS_10__function6__funcIZN5dgrad4multEPNS3_6TensorES5_E3$_2NS_9allocatorIS6_EEFvvEEENS_22__allocator_destructorINS7_ISA_EEEEED1B8ue170006Ev', symObjAddr: 0x12424, symBinAddr: 0x10001A648, symSize: 0x2C }
  - { offsetInCU: 0x2DAB3, offset: 0x42C22, size: 0x8, addend: 0x0, symName: '__ZNKSt3__117__compressed_pairIZN5dgrad4multEPNS1_6TensorES3_E3$_2NS_9allocatorIS4_EEE6secondB8ue170006Ev', symObjAddr: 0x12450, symBinAddr: 0x10001A674, symSize: 0x24 }
  - { offsetInCU: 0x2DAD9, offset: 0x42C48, size: 0x8, addend: 0x0, symName: '__ZNKSt3__122__compressed_pair_elemINS_9allocatorIZN5dgrad4multEPNS2_6TensorES4_E3$_2EELi1ELb1EE5__getB8ue170006Ev', symObjAddr: 0x12474, symBinAddr: 0x10001A698, symSize: 0x14 }
  - { offsetInCU: 0x2DAFF, offset: 0x42C6E, size: 0x8, addend: 0x0, symName: '__ZNSt3__110unique_ptrINS_10__function6__funcIZN5dgrad4multEPNS3_6TensorES5_E3$_2NS_9allocatorIS6_EEFvvEEENS_22__allocator_destructorINS7_ISA_EEEEEC2B8ue170006ILb1EvEEPSA_NS_16__dependent_typeINS_27__unique_ptr_deleter_sfinaeISD_EEXT_EE20__good_rval_ref_typeE', symObjAddr: 0x12488, symBinAddr: 0x10001A6AC, symSize: 0x48 }
  - { offsetInCU: 0x2DB50, offset: 0x42CBF, size: 0x8, addend: 0x0, symName: '__ZNKSt3__117__compressed_pairIZN5dgrad4multEPNS1_6TensorES3_E3$_2NS_9allocatorIS4_EEE5firstB8ue170006Ev', symObjAddr: 0x124D0, symBinAddr: 0x10001A6F4, symSize: 0x24 }
  - { offsetInCU: 0x2DB76, offset: 0x42CE5, size: 0x8, addend: 0x0, symName: '__ZNKSt3__122__compressed_pair_elemIZN5dgrad4multEPNS1_6TensorES3_E3$_2Li0ELb0EE5__getB8ue170006Ev', symObjAddr: 0x124F4, symBinAddr: 0x10001A718, symSize: 0x14 }
  - { offsetInCU: 0x2DB9C, offset: 0x42D0B, size: 0x8, addend: 0x0, symName: '__ZNSt3__19allocatorIZN5dgrad4multEPNS1_6TensorES3_E3$_2EC2B8ue170006INS_10__function6__funcIS4_S5_FvvEEEEERKNS0_IT_EE', symObjAddr: 0x12508, symBinAddr: 0x10001A72C, symSize: 0x30 }
  - { offsetInCU: 0x2DBD9, offset: 0x42D48, size: 0x8, addend: 0x0, symName: '__ZNSt3__110__function6__funcIZN5dgrad4multEPNS2_6TensorES4_E3$_2NS_9allocatorIS5_EEFvvEEC2B8ue170006ERKS5_OS7_', symObjAddr: 0x12538, symBinAddr: 0x10001A75C, symSize: 0x88 }
  - { offsetInCU: 0x2DC21, offset: 0x42D90, size: 0x8, addend: 0x0, symName: '__ZNSt3__110__function12__alloc_funcIZN5dgrad4multEPNS2_6TensorES4_E3$_2NS_9allocatorIS5_EEFvvEEC1B8ue170006ERKS5_OS7_', symObjAddr: 0x125C0, symBinAddr: 0x10001A7E4, symSize: 0x3C }
  - { offsetInCU: 0x2DC67, offset: 0x42DD6, size: 0x8, addend: 0x0, symName: '__ZNSt3__110__function12__alloc_funcIZN5dgrad4multEPNS2_6TensorES4_E3$_2NS_9allocatorIS5_EEFvvEEC2B8ue170006ERKS5_OS7_', symObjAddr: 0x125FC, symBinAddr: 0x10001A820, symSize: 0x5C }
  - { offsetInCU: 0x2DCAD, offset: 0x42E1C, size: 0x8, addend: 0x0, symName: '__ZNSt3__117__compressed_pairIZN5dgrad4multEPNS1_6TensorES3_E3$_2NS_9allocatorIS4_EEEC1B8ue170006IJRKS4_EJOS6_EEENS_21piecewise_construct_tENS_5tupleIJDpT_EEENSD_IJDpT0_EEE', symObjAddr: 0x12684, symBinAddr: 0x10001A8A8, symSize: 0x3C }
  - { offsetInCU: 0x2DD17, offset: 0x42E86, size: 0x8, addend: 0x0, symName: '__ZNSt3__15tupleIJRKZN5dgrad4multEPNS1_6TensorES3_E3$_2EEC1B8ue170006INS_4_AndELi0EEES6_', symObjAddr: 0x126C0, symBinAddr: 0x10001A8E4, symSize: 0x34 }
  - { offsetInCU: 0x2DD5F, offset: 0x42ECE, size: 0x8, addend: 0x0, symName: '__ZNSt3__15tupleIJRKZN5dgrad4multEPNS1_6TensorES3_E3$_2EEC2B8ue170006INS_4_AndELi0EEES6_', symObjAddr: 0x126F4, symBinAddr: 0x10001A918, symSize: 0x34 }
  - { offsetInCU: 0x2DDA7, offset: 0x42F16, size: 0x8, addend: 0x0, symName: '__ZNSt3__112__tuple_implINS_15__tuple_indicesIJLm0EEEEJRKZN5dgrad4multEPNS3_6TensorES5_E3$_2EEC1B8ue170006IJLm0EEJS8_EJEJEJS8_EEENS1_IJXspT_EEEENS_13__tuple_typesIJDpT0_EEENS1_IJXspT1_EEEENSC_IJDpT2_EEEDpOT3_', symObjAddr: 0x12728, symBinAddr: 0x10001A94C, symSize: 0x34 }
  - { offsetInCU: 0x2DE38, offset: 0x42FA7, size: 0x8, addend: 0x0, symName: '__ZNSt3__112__tuple_implINS_15__tuple_indicesIJLm0EEEEJRKZN5dgrad4multEPNS3_6TensorES5_E3$_2EEC2B8ue170006IJLm0EEJS8_EJEJEJS8_EEENS1_IJXspT_EEEENS_13__tuple_typesIJDpT0_EEENS1_IJXspT1_EEEENSC_IJDpT2_EEEDpOT3_', symObjAddr: 0x1275C, symBinAddr: 0x10001A980, symSize: 0x34 }
  - { offsetInCU: 0x2DEC9, offset: 0x43038, size: 0x8, addend: 0x0, symName: '__ZNSt3__112__tuple_leafILm0ERKZN5dgrad4multEPNS1_6TensorES3_E3$_2Lb0EEC2B8ue170006IS6_vEEOT_', symObjAddr: 0x12790, symBinAddr: 0x10001A9B4, symSize: 0x20 }
  - { offsetInCU: 0x2DF0C, offset: 0x4307B, size: 0x8, addend: 0x0, symName: '__ZNSt3__117__compressed_pairIZN5dgrad4multEPNS1_6TensorES3_E3$_2NS_9allocatorIS4_EEEC2B8ue170006IJRKS4_EJOS6_EEENS_21piecewise_construct_tENS_5tupleIJDpT_EEENSD_IJDpT0_EEE', symObjAddr: 0x127B0, symBinAddr: 0x10001A9D4, symSize: 0x54 }
  - { offsetInCU: 0x2DF76, offset: 0x430E5, size: 0x8, addend: 0x0, symName: '__ZNSt3__122__compressed_pair_elemIZN5dgrad4multEPNS1_6TensorES3_E3$_2Li0ELb0EEC2B8ue170006IJRKS4_EJLm0EEEENS_21piecewise_construct_tENS_5tupleIJDpT_EEENS_15__tuple_indicesIJXspT0_EEEE', symObjAddr: 0x12804, symBinAddr: 0x10001AA28, symSize: 0x4C }
  - { offsetInCU: 0x2DFD9, offset: 0x43148, size: 0x8, addend: 0x0, symName: '__ZNSt3__112__tuple_leafILm0ERKZN5dgrad4multEPNS1_6TensorES3_E3$_2Lb0EE3getB8ue170006Ev', symObjAddr: 0x12874, symBinAddr: 0x10001AA98, symSize: 0x18 }
  - { offsetInCU: 0x2DFFF, offset: 0x4316E, size: 0x8, addend: 0x0, symName: '__ZNSt3__117__compressed_pairIPNS_10__function6__funcIZN5dgrad4multEPNS3_6TensorES5_E3$_2NS_9allocatorIS6_EEFvvEEENS_22__allocator_destructorINS7_ISA_EEEEE5firstB8ue170006Ev', symObjAddr: 0x1288C, symBinAddr: 0x10001AAB0, symSize: 0x24 }
  - { offsetInCU: 0x2E025, offset: 0x43194, size: 0x8, addend: 0x0, symName: '__ZNSt3__122__compressed_pair_elemIPNS_10__function6__funcIZN5dgrad4multEPNS3_6TensorES5_E3$_2NS_9allocatorIS6_EEFvvEEELi0ELb0EE5__getB8ue170006Ev', symObjAddr: 0x128B0, symBinAddr: 0x10001AAD4, symSize: 0x14 }
  - { offsetInCU: 0x2E04B, offset: 0x431BA, size: 0x8, addend: 0x0, symName: '__ZNSt3__110unique_ptrINS_10__function6__funcIZN5dgrad4multEPNS3_6TensorES5_E3$_2NS_9allocatorIS6_EEFvvEEENS_22__allocator_destructorINS7_ISA_EEEEED2B8ue170006Ev', symObjAddr: 0x128C4, symBinAddr: 0x10001AAE8, symSize: 0x30 }
  - { offsetInCU: 0x2E075, offset: 0x431E4, size: 0x8, addend: 0x0, symName: '__ZNSt3__110unique_ptrINS_10__function6__funcIZN5dgrad4multEPNS3_6TensorES5_E3$_2NS_9allocatorIS6_EEFvvEEENS_22__allocator_destructorINS7_ISA_EEEEE5resetB8ue170006EPSA_', symObjAddr: 0x128F4, symBinAddr: 0x10001AB18, symSize: 0x78 }
  - { offsetInCU: 0x2E0B9, offset: 0x43228, size: 0x8, addend: 0x0, symName: '__ZNSt3__117__compressed_pairIPNS_10__function6__funcIZN5dgrad4multEPNS3_6TensorES5_E3$_2NS_9allocatorIS6_EEFvvEEENS_22__allocator_destructorINS7_ISA_EEEEE6secondB8ue170006Ev', symObjAddr: 0x1296C, symBinAddr: 0x10001AB90, symSize: 0x28 }
  - { offsetInCU: 0x2E0DF, offset: 0x4324E, size: 0x8, addend: 0x0, symName: '__ZNSt3__122__allocator_destructorINS_9allocatorINS_10__function6__funcIZN5dgrad4multEPNS4_6TensorES6_E3$_2NS1_IS7_EEFvvEEEEEEclB8ue170006EPSA_', symObjAddr: 0x12994, symBinAddr: 0x10001ABB8, symSize: 0x34 }
  - { offsetInCU: 0x2E113, offset: 0x43282, size: 0x8, addend: 0x0, symName: '__ZNSt3__122__compressed_pair_elemINS_22__allocator_destructorINS_9allocatorINS_10__function6__funcIZN5dgrad4multEPNS5_6TensorES7_E3$_2NS2_IS8_EEFvvEEEEEEELi1ELb0EE5__getB8ue170006Ev', symObjAddr: 0x129C8, symBinAddr: 0x10001ABEC, symSize: 0x14 }
  - { offsetInCU: 0x2E139, offset: 0x432A8, size: 0x8, addend: 0x0, symName: '__ZNSt3__116allocator_traitsINS_9allocatorINS_10__function6__funcIZN5dgrad4multEPNS4_6TensorES6_E3$_2NS1_IS7_EEFvvEEEEEE10deallocateB8ue170006ERSB_PSA_m', symObjAddr: 0x129DC, symBinAddr: 0x10001AC00, symSize: 0x34 }
  - { offsetInCU: 0x2E17B, offset: 0x432EA, size: 0x8, addend: 0x0, symName: '__ZNSt3__19allocatorINS_10__function6__funcIZN5dgrad4multEPNS3_6TensorES5_E3$_2NS0_IS6_EEFvvEEEE10deallocateB8ue170006EPS9_m', symObjAddr: 0x12A10, symBinAddr: 0x10001AC34, symSize: 0x40 }
  - { offsetInCU: 0x2E1BD, offset: 0x4332C, size: 0x8, addend: 0x0, symName: '__ZNSt3__110__function6__funcIZN5dgrad4multEPNS2_6TensorES4_E3$_2NS_9allocatorIS5_EEFvvEEC1B8ue170006ERKS5_RKS7_', symObjAddr: 0x12A50, symBinAddr: 0x10001AC74, symSize: 0x3C }
  - { offsetInCU: 0x2E205, offset: 0x43374, size: 0x8, addend: 0x0, symName: '__ZNSt3__110__function6__funcIZN5dgrad4multEPNS2_6TensorES4_E3$_2NS_9allocatorIS5_EEFvvEEC2B8ue170006ERKS5_RKS7_', symObjAddr: 0x12A8C, symBinAddr: 0x10001ACB0, symSize: 0x88 }
  - { offsetInCU: 0x2E24D, offset: 0x433BC, size: 0x8, addend: 0x0, symName: '__ZNSt3__110__function12__alloc_funcIZN5dgrad4multEPNS2_6TensorES4_E3$_2NS_9allocatorIS5_EEFvvEEC1B8ue170006ERKS5_RKS7_', symObjAddr: 0x12B14, symBinAddr: 0x10001AD38, symSize: 0x3C }
  - { offsetInCU: 0x2E293, offset: 0x43402, size: 0x8, addend: 0x0, symName: '__ZNSt3__110__function12__alloc_funcIZN5dgrad4multEPNS2_6TensorES4_E3$_2NS_9allocatorIS5_EEFvvEEC2B8ue170006ERKS5_RKS7_', symObjAddr: 0x12B50, symBinAddr: 0x10001AD74, symSize: 0x5C }
  - { offsetInCU: 0x2E2D9, offset: 0x43448, size: 0x8, addend: 0x0, symName: '__ZNSt3__117__compressed_pairIZN5dgrad4multEPNS1_6TensorES3_E3$_2NS_9allocatorIS4_EEEC1B8ue170006IJRKS4_EJRKS6_EEENS_21piecewise_construct_tENS_5tupleIJDpT_EEENSE_IJDpT0_EEE', symObjAddr: 0x12BD8, symBinAddr: 0x10001ADFC, symSize: 0x3C }
  - { offsetInCU: 0x2E343, offset: 0x434B2, size: 0x8, addend: 0x0, symName: '__ZNSt3__15tupleIJRKNS_9allocatorIZN5dgrad4multEPNS2_6TensorES4_E3$_2EEEEC1B8ue170006INS_4_AndELi0EEES8_', symObjAddr: 0x12C14, symBinAddr: 0x10001AE38, symSize: 0x34 }
  - { offsetInCU: 0x2E38B, offset: 0x434FA, size: 0x8, addend: 0x0, symName: '__ZNSt3__15tupleIJRKNS_9allocatorIZN5dgrad4multEPNS2_6TensorES4_E3$_2EEEEC2B8ue170006INS_4_AndELi0EEES8_', symObjAddr: 0x12C48, symBinAddr: 0x10001AE6C, symSize: 0x34 }
  - { offsetInCU: 0x2E3D3, offset: 0x43542, size: 0x8, addend: 0x0, symName: '__ZNSt3__112__tuple_implINS_15__tuple_indicesIJLm0EEEEJRKNS_9allocatorIZN5dgrad4multEPNS4_6TensorES6_E3$_2EEEEC1B8ue170006IJLm0EEJSA_EJEJEJSA_EEENS1_IJXspT_EEEENS_13__tuple_typesIJDpT0_EEENS1_IJXspT1_EEEENSE_IJDpT2_EEEDpOT3_', symObjAddr: 0x12C7C, symBinAddr: 0x10001AEA0, symSize: 0x34 }
  - { offsetInCU: 0x2E464, offset: 0x435D3, size: 0x8, addend: 0x0, symName: '__ZNSt3__112__tuple_implINS_15__tuple_indicesIJLm0EEEEJRKNS_9allocatorIZN5dgrad4multEPNS4_6TensorES6_E3$_2EEEEC2B8ue170006IJLm0EEJSA_EJEJEJSA_EEENS1_IJXspT_EEEENS_13__tuple_typesIJDpT0_EEENS1_IJXspT1_EEEENSE_IJDpT2_EEEDpOT3_', symObjAddr: 0x12CB0, symBinAddr: 0x10001AED4, symSize: 0x34 }
  - { offsetInCU: 0x2E4F5, offset: 0x43664, size: 0x8, addend: 0x0, symName: '__ZNSt3__112__tuple_leafILm0ERKNS_9allocatorIZN5dgrad4multEPNS2_6TensorES4_E3$_2EELb0EEC2B8ue170006IS8_vEEOT_', symObjAddr: 0x12CE4, symBinAddr: 0x10001AF08, symSize: 0x20 }
  - { offsetInCU: 0x2E538, offset: 0x436A7, size: 0x8, addend: 0x0, symName: '__ZNSt3__117__compressed_pairIZN5dgrad4multEPNS1_6TensorES3_E3$_2NS_9allocatorIS4_EEEC2B8ue170006IJRKS4_EJRKS6_EEENS_21piecewise_construct_tENS_5tupleIJDpT_EEENSE_IJDpT0_EEE', symObjAddr: 0x12D04, symBinAddr: 0x10001AF28, symSize: 0x54 }
  - { offsetInCU: 0x2E5A2, offset: 0x43711, size: 0x8, addend: 0x0, symName: '__ZNSt3__122__compressed_pair_elemINS_9allocatorIZN5dgrad4multEPNS2_6TensorES4_E3$_2EELi1ELb1EEC2B8ue170006IJRKS6_EJLm0EEEENS_21piecewise_construct_tENS_5tupleIJDpT_EEENS_15__tuple_indicesIJXspT0_EEEE', symObjAddr: 0x12D58, symBinAddr: 0x10001AF7C, symSize: 0x38 }
  - { offsetInCU: 0x2E605, offset: 0x43774, size: 0x8, addend: 0x0, symName: '__ZNSt3__112__tuple_leafILm0ERKNS_9allocatorIZN5dgrad4multEPNS2_6TensorES4_E3$_2EELb0EE3getB8ue170006Ev', symObjAddr: 0x12DB4, symBinAddr: 0x10001AFD8, symSize: 0x18 }
  - { offsetInCU: 0x2E62B, offset: 0x4379A, size: 0x8, addend: 0x0, symName: '__ZNSt3__110__function12__alloc_funcIZN5dgrad4multEPNS2_6TensorES4_E3$_2NS_9allocatorIS5_EEFvvEE7destroyB8ue170006Ev', symObjAddr: 0x12DCC, symBinAddr: 0x10001AFF0, symSize: 0x10 }
  - { offsetInCU: 0x2E651, offset: 0x437C0, size: 0x8, addend: 0x0, symName: '__ZNSt3__110__function12__alloc_funcIZN5dgrad4multEPNS2_6TensorES4_E3$_2NS_9allocatorIS5_EEFvvEEclB8ue170006Ev', symObjAddr: 0x12DDC, symBinAddr: 0x10001B000, symSize: 0x28 }
  - { offsetInCU: 0x2E677, offset: 0x437E6, size: 0x8, addend: 0x0, symName: '__ZNSt3__128__invoke_void_return_wrapperIvLb1EE6__callB8ue170006IJRZN5dgrad4multEPNS3_6TensorES5_E3$_2EEEvDpOT_', symObjAddr: 0x12E04, symBinAddr: 0x10001B028, symSize: 0x24 }
  - { offsetInCU: 0x2E6A6, offset: 0x43815, size: 0x8, addend: 0x0, symName: '__ZNSt3__117__compressed_pairIZN5dgrad4multEPNS1_6TensorES3_E3$_2NS_9allocatorIS4_EEE5firstB8ue170006Ev', symObjAddr: 0x12E28, symBinAddr: 0x10001B04C, symSize: 0x24 }
  - { offsetInCU: 0x2E6D1, offset: 0x43840, size: 0x8, addend: 0x0, symName: '__ZZN5dgrad4multEPNS_6TensorES1_ENK3$_2clEv', symObjAddr: 0x12E70, symBinAddr: 0x10001B094, symSize: 0x11C }
  - { offsetInCU: 0x2E717, offset: 0x43886, size: 0x8, addend: 0x0, symName: '__ZNSt3__122__compressed_pair_elemIZN5dgrad4multEPNS1_6TensorES3_E3$_2Li0ELb0EE5__getB8ue170006Ev', symObjAddr: 0x12F8C, symBinAddr: 0x10001B1B0, symSize: 0x14 }
  - { offsetInCU: 0x2E73D, offset: 0x438AC, size: 0x8, addend: 0x0, symName: '__ZNSt3__110unique_ptrINS_10__function6__baseIFvvEEENS_22__allocator_destructorINS_9allocatorINS1_6__funcIZN5dgrad4multEPNS8_6TensorESA_E3$_2NS6_ISB_EES3_EEEEEEED2B8ue170006Ev', symObjAddr: 0x12FA0, symBinAddr: 0x10001B1C4, symSize: 0x30 }
  - { offsetInCU: 0x2E767, offset: 0x438D6, size: 0x8, addend: 0x0, symName: '__ZNSt3__110unique_ptrINS_10__function6__baseIFvvEEENS_22__allocator_destructorINS_9allocatorINS1_6__funcIZN5dgrad4multEPNS8_6TensorESA_E3$_2NS6_ISB_EES3_EEEEEEE5resetB8ue170006EPSD_', symObjAddr: 0x12FD0, symBinAddr: 0x10001B1F4, symSize: 0x78 }
  - { offsetInCU: 0x2E7AB, offset: 0x4391A, size: 0x8, addend: 0x0, symName: '__ZNSt3__18functionIFvvEEC1IZN5dgrad3divEPNS4_6TensorES6_E3$_3vEET_', symObjAddr: 0x13048, symBinAddr: 0x10001B26C, symSize: 0x34 }
  - { offsetInCU: 0x2E7F1, offset: 0x43960, size: 0x8, addend: 0x0, symName: '__ZNSt3__18functionIFvvEEC2IZN5dgrad3divEPNS4_6TensorES6_E3$_3vEET_', symObjAddr: 0x1307C, symBinAddr: 0x10001B2A0, symSize: 0x34 }
  - { offsetInCU: 0x2E837, offset: 0x439A6, size: 0x8, addend: 0x0, symName: '__ZNSt3__110__function12__value_funcIFvvEEC1B8ue170006IZN5dgrad3divEPNS5_6TensorES7_E3$_3vEEOT_', symObjAddr: 0x130B0, symBinAddr: 0x10001B2D4, symSize: 0x50 }
  - { offsetInCU: 0x2E87A, offset: 0x439E9, size: 0x8, addend: 0x0, symName: '__ZNSt3__19allocatorIZN5dgrad3divEPNS1_6TensorES3_E3$_3EC1B8ue170006Ev', symObjAddr: 0x13100, symBinAddr: 0x10001B324, symSize: 0x2C }
  - { offsetInCU: 0x2E8A4, offset: 0x43A13, size: 0x8, addend: 0x0, symName: '__ZNSt3__110__function12__value_funcIFvvEEC1B8ue170006IZN5dgrad3divEPNS5_6TensorES7_E3$_3NS_9allocatorIS8_EEEEOT_RKT0_', symObjAddr: 0x1312C, symBinAddr: 0x10001B350, symSize: 0x3C }
  - { offsetInCU: 0x2E8FE, offset: 0x43A6D, size: 0x8, addend: 0x0, symName: '__ZNSt3__19allocatorIZN5dgrad3divEPNS1_6TensorES3_E3$_3EC2B8ue170006Ev', symObjAddr: 0x13168, symBinAddr: 0x10001B38C, symSize: 0x2C }
  - { offsetInCU: 0x2E928, offset: 0x43A97, size: 0x8, addend: 0x0, symName: '__ZNSt3__116__non_trivial_ifILb1ENS_9allocatorIZN5dgrad3divEPNS2_6TensorES4_E3$_3EEEC2B8ue170006Ev', symObjAddr: 0x13194, symBinAddr: 0x10001B3B8, symSize: 0x14 }
  - { offsetInCU: 0x2E952, offset: 0x43AC1, size: 0x8, addend: 0x0, symName: '__ZNSt3__110__function12__value_funcIFvvEEC2B8ue170006IZN5dgrad3divEPNS5_6TensorES7_E3$_3NS_9allocatorIS8_EEEEOT_RKT0_', symObjAddr: 0x131A8, symBinAddr: 0x10001B3CC, symSize: 0xF4 }
  - { offsetInCU: 0x2EA05, offset: 0x43B74, size: 0x8, addend: 0x0, symName: '__ZNSt3__19allocatorINS_10__function6__funcIZN5dgrad3divEPNS3_6TensorES5_E3$_3NS0_IS6_EEFvvEEEEC1B8ue170006IS6_EERKNS0_IT_EE', symObjAddr: 0x132B4, symBinAddr: 0x10001B4D8, symSize: 0x34 }
  - { offsetInCU: 0x2EA42, offset: 0x43BB1, size: 0x8, addend: 0x0, symName: '__ZNSt3__19allocatorINS_10__function6__funcIZN5dgrad3divEPNS3_6TensorES5_E3$_3NS0_IS6_EEFvvEEEE8allocateB8ue170006Em', symObjAddr: 0x132E8, symBinAddr: 0x10001B50C, symSize: 0x58 }
  - { offsetInCU: 0x2EA85, offset: 0x43BF4, size: 0x8, addend: 0x0, symName: '__ZNSt3__122__allocator_destructorINS_9allocatorINS_10__function6__funcIZN5dgrad3divEPNS4_6TensorES6_E3$_3NS1_IS7_EEFvvEEEEEEC1B8ue170006ERSB_m', symObjAddr: 0x13340, symBinAddr: 0x10001B564, symSize: 0x3C }
  - { offsetInCU: 0x2EB59, offset: 0x43CC8, size: 0x8, addend: 0x0, symName: '__ZNSt3__110unique_ptrINS_10__function6__baseIFvvEEENS_22__allocator_destructorINS_9allocatorINS1_6__funcIZN5dgrad3divEPNS8_6TensorESA_E3$_3NS6_ISB_EES3_EEEEEEEC1B8ue170006ILb1EvEEPSD_NS_16__dependent_typeINS_27__unique_ptr_deleter_sfinaeISF_EEXT_EE20__good_rval_ref_typeE', symObjAddr: 0x1337C, symBinAddr: 0x10001B5A0, symSize: 0x3C }
  - { offsetInCU: 0x2EBAA, offset: 0x43D19, size: 0x8, addend: 0x0, symName: '__ZNKSt3__110unique_ptrINS_10__function6__baseIFvvEEENS_22__allocator_destructorINS_9allocatorINS1_6__funcIZN5dgrad3divEPNS8_6TensorESA_E3$_3NS6_ISB_EES3_EEEEEEE3getB8ue170006Ev', symObjAddr: 0x133B8, symBinAddr: 0x10001B5DC, symSize: 0x28 }
  - { offsetInCU: 0x2EBD0, offset: 0x43D3F, size: 0x8, addend: 0x0, symName: '__ZNSt3__110__function6__funcIZN5dgrad3divEPNS2_6TensorES4_E3$_3NS_9allocatorIS5_EEFvvEEC1B8ue170006EOS5_OS7_', symObjAddr: 0x133E0, symBinAddr: 0x10001B604, symSize: 0x3C }
  - { offsetInCU: 0x2EC18, offset: 0x43D87, size: 0x8, addend: 0x0, symName: '__ZNSt3__110unique_ptrINS_10__function6__baseIFvvEEENS_22__allocator_destructorINS_9allocatorINS1_6__funcIZN5dgrad3divEPNS8_6TensorESA_E3$_3NS6_ISB_EES3_EEEEEEE7releaseB8ue170006Ev', symObjAddr: 0x1341C, symBinAddr: 0x10001B640, symSize: 0x44 }
  - { offsetInCU: 0x2EC4D, offset: 0x43DBC, size: 0x8, addend: 0x0, symName: '__ZNSt3__110unique_ptrINS_10__function6__baseIFvvEEENS_22__allocator_destructorINS_9allocatorINS1_6__funcIZN5dgrad3divEPNS8_6TensorESA_E3$_3NS6_ISB_EES3_EEEEEEED1B8ue170006Ev', symObjAddr: 0x13460, symBinAddr: 0x10001B684, symSize: 0x2C }
  - { offsetInCU: 0x2EC77, offset: 0x43DE6, size: 0x8, addend: 0x0, symName: '__ZNSt3__19allocatorINS_10__function6__funcIZN5dgrad3divEPNS3_6TensorES5_E3$_3NS0_IS6_EEFvvEEEEC2B8ue170006IS6_EERKNS0_IT_EE', symObjAddr: 0x1348C, symBinAddr: 0x10001B6B0, symSize: 0x30 }
  - { offsetInCU: 0x2ECB4, offset: 0x43E23, size: 0x8, addend: 0x0, symName: '__ZNSt3__116__non_trivial_ifILb1ENS_9allocatorINS_10__function6__funcIZN5dgrad3divEPNS4_6TensorES6_E3$_3NS1_IS7_EEFvvEEEEEEC2B8ue170006Ev', symObjAddr: 0x134BC, symBinAddr: 0x10001B6E0, symSize: 0x14 }
  - { offsetInCU: 0x2ECE8, offset: 0x43E57, size: 0x8, addend: 0x0, symName: '__ZNSt3__116allocator_traitsINS_9allocatorINS_10__function6__funcIZN5dgrad3divEPNS4_6TensorES6_E3$_3NS1_IS7_EEFvvEEEEEE8max_sizeB8ue170006ISB_vEEmRKSB_', symObjAddr: 0x134D0, symBinAddr: 0x10001B6F4, symSize: 0x24 }
  - { offsetInCU: 0x2ED16, offset: 0x43E85, size: 0x8, addend: 0x0, symName: '__ZNKSt3__19allocatorINS_10__function6__funcIZN5dgrad3divEPNS3_6TensorES5_E3$_3NS0_IS6_EEFvvEEEE8max_sizeB8ue170006Ev', symObjAddr: 0x134F4, symBinAddr: 0x10001B718, symSize: 0x14 }
  - { offsetInCU: 0x2ED3C, offset: 0x43EAB, size: 0x8, addend: 0x0, symName: '__ZNSt3__122__allocator_destructorINS_9allocatorINS_10__function6__funcIZN5dgrad3divEPNS4_6TensorES6_E3$_3NS1_IS7_EEFvvEEEEEEC2B8ue170006ERSB_m', symObjAddr: 0x13508, symBinAddr: 0x10001B72C, symSize: 0x2C }
  - { offsetInCU: 0x2ED82, offset: 0x43EF1, size: 0x8, addend: 0x0, symName: '__ZNSt3__110unique_ptrINS_10__function6__baseIFvvEEENS_22__allocator_destructorINS_9allocatorINS1_6__funcIZN5dgrad3divEPNS8_6TensorESA_E3$_3NS6_ISB_EES3_EEEEEEEC2B8ue170006ILb1EvEEPSD_NS_16__dependent_typeINS_27__unique_ptr_deleter_sfinaeISF_EEXT_EE20__good_rval_ref_typeE', symObjAddr: 0x13534, symBinAddr: 0x10001B758, symSize: 0x48 }
  - { offsetInCU: 0x2EDD3, offset: 0x43F42, size: 0x8, addend: 0x0, symName: '__ZNSt3__117__compressed_pairIPNS_10__function6__funcIZN5dgrad3divEPNS3_6TensorES5_E3$_3NS_9allocatorIS6_EEFvvEEENS_22__allocator_destructorINS7_ISA_EEEEEC1B8ue170006IRSB_SE_EEOT_OT0_', symObjAddr: 0x1357C, symBinAddr: 0x10001B7A0, symSize: 0x3C }
  - { offsetInCU: 0x2EE2B, offset: 0x43F9A, size: 0x8, addend: 0x0, symName: '__ZNSt3__117__compressed_pairIPNS_10__function6__funcIZN5dgrad3divEPNS3_6TensorES5_E3$_3NS_9allocatorIS6_EEFvvEEENS_22__allocator_destructorINS7_ISA_EEEEEC2B8ue170006IRSB_SE_EEOT_OT0_', symObjAddr: 0x135B8, symBinAddr: 0x10001B7DC, symSize: 0x48 }
  - { offsetInCU: 0x2EE83, offset: 0x43FF2, size: 0x8, addend: 0x0, symName: '__ZNSt3__122__compressed_pair_elemIPNS_10__function6__funcIZN5dgrad3divEPNS3_6TensorES5_E3$_3NS_9allocatorIS6_EEFvvEEELi0ELb0EEC2B8ue170006IRSB_vEEOT_', symObjAddr: 0x13600, symBinAddr: 0x10001B824, symSize: 0x24 }
  - { offsetInCU: 0x2EEC5, offset: 0x44034, size: 0x8, addend: 0x0, symName: '__ZNSt3__122__compressed_pair_elemINS_22__allocator_destructorINS_9allocatorINS_10__function6__funcIZN5dgrad3divEPNS5_6TensorES7_E3$_3NS2_IS8_EEFvvEEEEEEELi1ELb0EEC2B8ue170006ISD_vEEOT_', symObjAddr: 0x13624, symBinAddr: 0x10001B848, symSize: 0x24 }
  - { offsetInCU: 0x2EF07, offset: 0x44076, size: 0x8, addend: 0x0, symName: '__ZNKSt3__117__compressed_pairIPNS_10__function6__funcIZN5dgrad3divEPNS3_6TensorES5_E3$_3NS_9allocatorIS6_EEFvvEEENS_22__allocator_destructorINS7_ISA_EEEEE5firstB8ue170006Ev', symObjAddr: 0x13648, symBinAddr: 0x10001B86C, symSize: 0x24 }
  - { offsetInCU: 0x2EF2D, offset: 0x4409C, size: 0x8, addend: 0x0, symName: '__ZNKSt3__122__compressed_pair_elemIPNS_10__function6__funcIZN5dgrad3divEPNS3_6TensorES5_E3$_3NS_9allocatorIS6_EEFvvEEELi0ELb0EE5__getB8ue170006Ev', symObjAddr: 0x1366C, symBinAddr: 0x10001B890, symSize: 0x14 }
  - { offsetInCU: 0x2EF53, offset: 0x440C2, size: 0x8, addend: 0x0, symName: '__ZNSt3__110__function6__funcIZN5dgrad3divEPNS2_6TensorES4_E3$_3NS_9allocatorIS5_EEFvvEEC2B8ue170006EOS5_OS7_', symObjAddr: 0x13680, symBinAddr: 0x10001B8A4, symSize: 0x88 }
  - { offsetInCU: 0x2EF9B, offset: 0x4410A, size: 0x8, addend: 0x0, symName: '__ZNSt3__110__function12__alloc_funcIZN5dgrad3divEPNS2_6TensorES4_E3$_3NS_9allocatorIS5_EEFvvEEC1B8ue170006EOS5_OS7_', symObjAddr: 0x13708, symBinAddr: 0x10001B92C, symSize: 0x3C }
  - { offsetInCU: 0x2EFE1, offset: 0x44150, size: 0x8, addend: 0x0, symName: '__ZNSt3__110__function6__funcIZN5dgrad3divEPNS2_6TensorES4_E3$_3NS_9allocatorIS5_EEFvvEED1Ev', symObjAddr: 0x13744, symBinAddr: 0x10001B968, symSize: 0x2C }
  - { offsetInCU: 0x2F00E, offset: 0x4417D, size: 0x8, addend: 0x0, symName: '__ZNSt3__110__function6__funcIZN5dgrad3divEPNS2_6TensorES4_E3$_3NS_9allocatorIS5_EEFvvEED0Ev', symObjAddr: 0x13770, symBinAddr: 0x10001B994, symSize: 0x30 }
  - { offsetInCU: 0x2F03B, offset: 0x441AA, size: 0x8, addend: 0x0, symName: '__ZNKSt3__110__function6__funcIZN5dgrad3divEPNS2_6TensorES4_E3$_3NS_9allocatorIS5_EEFvvEE7__cloneEv', symObjAddr: 0x137A0, symBinAddr: 0x10001B9C4, symSize: 0xFC }
  - { offsetInCU: 0x2F08D, offset: 0x441FC, size: 0x8, addend: 0x0, symName: '__ZNKSt3__110__function6__funcIZN5dgrad3divEPNS2_6TensorES4_E3$_3NS_9allocatorIS5_EEFvvEE7__cloneEPNS0_6__baseIS8_EE', symObjAddr: 0x1389C, symBinAddr: 0x10001BAC0, symSize: 0x58 }
  - { offsetInCU: 0x2F0C4, offset: 0x44233, size: 0x8, addend: 0x0, symName: '__ZNSt3__110__function6__funcIZN5dgrad3divEPNS2_6TensorES4_E3$_3NS_9allocatorIS5_EEFvvEE7destroyEv', symObjAddr: 0x138F4, symBinAddr: 0x10001BB18, symSize: 0x28 }
  - { offsetInCU: 0x2F0EC, offset: 0x4425B, size: 0x8, addend: 0x0, symName: '__ZNSt3__110__function6__funcIZN5dgrad3divEPNS2_6TensorES4_E3$_3NS_9allocatorIS5_EEFvvEE18destroy_deallocateEv', symObjAddr: 0x1391C, symBinAddr: 0x10001BB40, symSize: 0x58 }
  - { offsetInCU: 0x2F12F, offset: 0x4429E, size: 0x8, addend: 0x0, symName: '__ZNSt3__110__function6__funcIZN5dgrad3divEPNS2_6TensorES4_E3$_3NS_9allocatorIS5_EEFvvEEclEv', symObjAddr: 0x13974, symBinAddr: 0x10001BB98, symSize: 0x28 }
  - { offsetInCU: 0x2F157, offset: 0x442C6, size: 0x8, addend: 0x0, symName: '__ZNKSt3__110__function6__funcIZN5dgrad3divEPNS2_6TensorES4_E3$_3NS_9allocatorIS5_EEFvvEE6targetERKSt9type_info', symObjAddr: 0x1399C, symBinAddr: 0x10001BBC0, symSize: 0x60 }
  - { offsetInCU: 0x2F18E, offset: 0x442FD, size: 0x8, addend: 0x0, symName: '__ZNKSt3__110__function6__funcIZN5dgrad3divEPNS2_6TensorES4_E3$_3NS_9allocatorIS5_EEFvvEE11target_typeEv', symObjAddr: 0x139FC, symBinAddr: 0x10001BC20, symSize: 0x18 }
  - { offsetInCU: 0x2F1B6, offset: 0x44325, size: 0x8, addend: 0x0, symName: '__ZNSt3__110__function12__alloc_funcIZN5dgrad3divEPNS2_6TensorES4_E3$_3NS_9allocatorIS5_EEFvvEEC2B8ue170006EOS5_OS7_', symObjAddr: 0x13A14, symBinAddr: 0x10001BC38, symSize: 0x5C }
  - { offsetInCU: 0x2F1FC, offset: 0x4436B, size: 0x8, addend: 0x0, symName: '__ZNSt3__117__compressed_pairIZN5dgrad3divEPNS1_6TensorES3_E3$_3NS_9allocatorIS4_EEEC1B8ue170006IJOS4_EJOS6_EEENS_21piecewise_construct_tENS_5tupleIJDpT_EEENSC_IJDpT0_EEE', symObjAddr: 0x13AC8, symBinAddr: 0x10001BCEC, symSize: 0x3C }
  - { offsetInCU: 0x2F266, offset: 0x443D5, size: 0x8, addend: 0x0, symName: '__ZNSt3__15tupleIJOZN5dgrad3divEPNS1_6TensorES3_E3$_3EEC1B8ue170006IJS4_ELi0EEEDpOT_', symObjAddr: 0x13B04, symBinAddr: 0x10001BD28, symSize: 0x34 }
  - { offsetInCU: 0x2F2B0, offset: 0x4441F, size: 0x8, addend: 0x0, symName: '__ZNSt3__15tupleIJOZN5dgrad3divEPNS1_6TensorES3_E3$_3EEC2B8ue170006IJS4_ELi0EEEDpOT_', symObjAddr: 0x13B38, symBinAddr: 0x10001BD5C, symSize: 0x34 }
  - { offsetInCU: 0x2F2FA, offset: 0x44469, size: 0x8, addend: 0x0, symName: '__ZNSt3__112__tuple_implINS_15__tuple_indicesIJLm0EEEEJOZN5dgrad3divEPNS3_6TensorES5_E3$_3EEC1B8ue170006IJLm0EEJS7_EJEJEJS6_EEENS1_IJXspT_EEEENS_13__tuple_typesIJDpT0_EEENS1_IJXspT1_EEEENSB_IJDpT2_EEEDpOT3_', symObjAddr: 0x13B6C, symBinAddr: 0x10001BD90, symSize: 0x34 }
  - { offsetInCU: 0x2F38B, offset: 0x444FA, size: 0x8, addend: 0x0, symName: '__ZNSt3__112__tuple_implINS_15__tuple_indicesIJLm0EEEEJOZN5dgrad3divEPNS3_6TensorES5_E3$_3EEC2B8ue170006IJLm0EEJS7_EJEJEJS6_EEENS1_IJXspT_EEEENS_13__tuple_typesIJDpT0_EEENS1_IJXspT1_EEEENSB_IJDpT2_EEEDpOT3_', symObjAddr: 0x13BA0, symBinAddr: 0x10001BDC4, symSize: 0x34 }
  - { offsetInCU: 0x2F41C, offset: 0x4458B, size: 0x8, addend: 0x0, symName: '__ZNSt3__112__tuple_leafILm0EOZN5dgrad3divEPNS1_6TensorES3_E3$_3Lb0EEC2B8ue170006IS4_vEEOT_', symObjAddr: 0x13BD4, symBinAddr: 0x10001BDF8, symSize: 0x20 }
  - { offsetInCU: 0x2F45F, offset: 0x445CE, size: 0x8, addend: 0x0, symName: '__ZNSt3__15tupleIJONS_9allocatorIZN5dgrad3divEPNS2_6TensorES4_E3$_3EEEEC1B8ue170006IJS6_ELi0EEEDpOT_', symObjAddr: 0x13BF4, symBinAddr: 0x10001BE18, symSize: 0x34 }
  - { offsetInCU: 0x2F4A9, offset: 0x44618, size: 0x8, addend: 0x0, symName: '__ZNSt3__15tupleIJONS_9allocatorIZN5dgrad3divEPNS2_6TensorES4_E3$_3EEEEC2B8ue170006IJS6_ELi0EEEDpOT_', symObjAddr: 0x13C28, symBinAddr: 0x10001BE4C, symSize: 0x34 }
  - { offsetInCU: 0x2F4F3, offset: 0x44662, size: 0x8, addend: 0x0, symName: '__ZNSt3__112__tuple_implINS_15__tuple_indicesIJLm0EEEEJONS_9allocatorIZN5dgrad3divEPNS4_6TensorES6_E3$_3EEEEC1B8ue170006IJLm0EEJS9_EJEJEJS8_EEENS1_IJXspT_EEEENS_13__tuple_typesIJDpT0_EEENS1_IJXspT1_EEEENSD_IJDpT2_EEEDpOT3_', symObjAddr: 0x13C5C, symBinAddr: 0x10001BE80, symSize: 0x34 }
  - { offsetInCU: 0x2F584, offset: 0x446F3, size: 0x8, addend: 0x0, symName: '__ZNSt3__112__tuple_implINS_15__tuple_indicesIJLm0EEEEJONS_9allocatorIZN5dgrad3divEPNS4_6TensorES6_E3$_3EEEEC2B8ue170006IJLm0EEJS9_EJEJEJS8_EEENS1_IJXspT_EEEENS_13__tuple_typesIJDpT0_EEENS1_IJXspT1_EEEENSD_IJDpT2_EEEDpOT3_', symObjAddr: 0x13C90, symBinAddr: 0x10001BEB4, symSize: 0x34 }
  - { offsetInCU: 0x2F615, offset: 0x44784, size: 0x8, addend: 0x0, symName: '__ZNSt3__112__tuple_leafILm0EONS_9allocatorIZN5dgrad3divEPNS2_6TensorES4_E3$_3EELb0EEC2B8ue170006IS6_vEEOT_', symObjAddr: 0x13CC4, symBinAddr: 0x10001BEE8, symSize: 0x20 }
  - { offsetInCU: 0x2F658, offset: 0x447C7, size: 0x8, addend: 0x0, symName: '__ZNSt3__117__compressed_pairIZN5dgrad3divEPNS1_6TensorES3_E3$_3NS_9allocatorIS4_EEEC2B8ue170006IJOS4_EJOS6_EEENS_21piecewise_construct_tENS_5tupleIJDpT_EEENSC_IJDpT0_EEE', symObjAddr: 0x13CE4, symBinAddr: 0x10001BF08, symSize: 0x54 }
  - { offsetInCU: 0x2F6C2, offset: 0x44831, size: 0x8, addend: 0x0, symName: '__ZNSt3__122__compressed_pair_elemIZN5dgrad3divEPNS1_6TensorES3_E3$_3Li0ELb0EEC2B8ue170006IJOS4_EJLm0EEEENS_21piecewise_construct_tENS_5tupleIJDpT_EEENS_15__tuple_indicesIJXspT0_EEEE', symObjAddr: 0x13D38, symBinAddr: 0x10001BF5C, symSize: 0x4C }
  - { offsetInCU: 0x2F725, offset: 0x44894, size: 0x8, addend: 0x0, symName: '__ZNSt3__122__compressed_pair_elemINS_9allocatorIZN5dgrad3divEPNS2_6TensorES4_E3$_3EELi1ELb1EEC2B8ue170006IJOS6_EJLm0EEEENS_21piecewise_construct_tENS_5tupleIJDpT_EEENS_15__tuple_indicesIJXspT0_EEEE', symObjAddr: 0x13D84, symBinAddr: 0x10001BFA8, symSize: 0x38 }
  - { offsetInCU: 0x2F788, offset: 0x448F7, size: 0x8, addend: 0x0, symName: '__ZNSt3__112__tuple_leafILm0EOZN5dgrad3divEPNS1_6TensorES3_E3$_3Lb0EE3getB8ue170006Ev', symObjAddr: 0x13DE0, symBinAddr: 0x10001C004, symSize: 0x18 }
  - { offsetInCU: 0x2F7AE, offset: 0x4491D, size: 0x8, addend: 0x0, symName: '__ZNSt3__112__tuple_leafILm0EONS_9allocatorIZN5dgrad3divEPNS2_6TensorES4_E3$_3EELb0EE3getB8ue170006Ev', symObjAddr: 0x13E1C, symBinAddr: 0x10001C040, symSize: 0x18 }
  - { offsetInCU: 0x2F7D4, offset: 0x44943, size: 0x8, addend: 0x0, symName: '__ZNSt3__110__function6__funcIZN5dgrad3divEPNS2_6TensorES4_E3$_3NS_9allocatorIS5_EEFvvEED2Ev', symObjAddr: 0x13E34, symBinAddr: 0x10001C058, symSize: 0x2C }
  - { offsetInCU: 0x2F801, offset: 0x44970, size: 0x8, addend: 0x0, symName: '__ZNKSt3__110__function12__alloc_funcIZN5dgrad3divEPNS2_6TensorES4_E3$_3NS_9allocatorIS5_EEFvvEE15__get_allocatorB8ue170006Ev', symObjAddr: 0x13E60, symBinAddr: 0x10001C084, symSize: 0x24 }
  - { offsetInCU: 0x2F850, offset: 0x449BF, size: 0x8, addend: 0x0, symName: '__ZNSt3__110unique_ptrINS_10__function6__funcIZN5dgrad3divEPNS3_6TensorES5_E3$_3NS_9allocatorIS6_EEFvvEEENS_22__allocator_destructorINS7_ISA_EEEEEC1B8ue170006ILb1EvEEPSA_NS_16__dependent_typeINS_27__unique_ptr_deleter_sfinaeISD_EEXT_EE20__good_rval_ref_typeE', symObjAddr: 0x13E84, symBinAddr: 0x10001C0A8, symSize: 0x3C }
  - { offsetInCU: 0x2F8A1, offset: 0x44A10, size: 0x8, addend: 0x0, symName: '__ZNKSt3__110unique_ptrINS_10__function6__funcIZN5dgrad3divEPNS3_6TensorES5_E3$_3NS_9allocatorIS6_EEFvvEEENS_22__allocator_destructorINS7_ISA_EEEEE3getB8ue170006Ev', symObjAddr: 0x13EC0, symBinAddr: 0x10001C0E4, symSize: 0x28 }
  - { offsetInCU: 0x2F8C7, offset: 0x44A36, size: 0x8, addend: 0x0, symName: '__ZNKSt3__110__function12__alloc_funcIZN5dgrad3divEPNS2_6TensorES4_E3$_3NS_9allocatorIS5_EEFvvEE8__targetB8ue170006Ev', symObjAddr: 0x13EE8, symBinAddr: 0x10001C10C, symSize: 0x24 }
  - { offsetInCU: 0x2F8F2, offset: 0x44A61, size: 0x8, addend: 0x0, symName: '__ZNSt3__19allocatorIZN5dgrad3divEPNS1_6TensorES3_E3$_3EC1B8ue170006INS_10__function6__funcIS4_S5_FvvEEEEERKNS0_IT_EE', symObjAddr: 0x13F0C, symBinAddr: 0x10001C130, symSize: 0x34 }
  - { offsetInCU: 0x2F92F, offset: 0x44A9E, size: 0x8, addend: 0x0, symName: '__ZNSt3__110__function6__funcIZN5dgrad3divEPNS2_6TensorES4_E3$_3NS_9allocatorIS5_EEFvvEEC1B8ue170006ERKS5_OS7_', symObjAddr: 0x13F40, symBinAddr: 0x10001C164, symSize: 0x3C }
  - { offsetInCU: 0x2F977, offset: 0x44AE6, size: 0x8, addend: 0x0, symName: '__ZNSt3__110unique_ptrINS_10__function6__funcIZN5dgrad3divEPNS3_6TensorES5_E3$_3NS_9allocatorIS6_EEFvvEEENS_22__allocator_destructorINS7_ISA_EEEEE7releaseB8ue170006Ev', symObjAddr: 0x13F7C, symBinAddr: 0x10001C1A0, symSize: 0x44 }
  - { offsetInCU: 0x2F9AC, offset: 0x44B1B, size: 0x8, addend: 0x0, symName: '__ZNSt3__110unique_ptrINS_10__function6__funcIZN5dgrad3divEPNS3_6TensorES5_E3$_3NS_9allocatorIS6_EEFvvEEENS_22__allocator_destructorINS7_ISA_EEEEED1B8ue170006Ev', symObjAddr: 0x13FC0, symBinAddr: 0x10001C1E4, symSize: 0x2C }
  - { offsetInCU: 0x2F9D6, offset: 0x44B45, size: 0x8, addend: 0x0, symName: '__ZNKSt3__117__compressed_pairIZN5dgrad3divEPNS1_6TensorES3_E3$_3NS_9allocatorIS4_EEE6secondB8ue170006Ev', symObjAddr: 0x13FEC, symBinAddr: 0x10001C210, symSize: 0x24 }
  - { offsetInCU: 0x2F9FC, offset: 0x44B6B, size: 0x8, addend: 0x0, symName: '__ZNKSt3__122__compressed_pair_elemINS_9allocatorIZN5dgrad3divEPNS2_6TensorES4_E3$_3EELi1ELb1EE5__getB8ue170006Ev', symObjAddr: 0x14010, symBinAddr: 0x10001C234, symSize: 0x14 }
  - { offsetInCU: 0x2FA22, offset: 0x44B91, size: 0x8, addend: 0x0, symName: '__ZNSt3__110unique_ptrINS_10__function6__funcIZN5dgrad3divEPNS3_6TensorES5_E3$_3NS_9allocatorIS6_EEFvvEEENS_22__allocator_destructorINS7_ISA_EEEEEC2B8ue170006ILb1EvEEPSA_NS_16__dependent_typeINS_27__unique_ptr_deleter_sfinaeISD_EEXT_EE20__good_rval_ref_typeE', symObjAddr: 0x14024, symBinAddr: 0x10001C248, symSize: 0x48 }
  - { offsetInCU: 0x2FA73, offset: 0x44BE2, size: 0x8, addend: 0x0, symName: '__ZNKSt3__117__compressed_pairIZN5dgrad3divEPNS1_6TensorES3_E3$_3NS_9allocatorIS4_EEE5firstB8ue170006Ev', symObjAddr: 0x1406C, symBinAddr: 0x10001C290, symSize: 0x24 }
  - { offsetInCU: 0x2FA99, offset: 0x44C08, size: 0x8, addend: 0x0, symName: '__ZNKSt3__122__compressed_pair_elemIZN5dgrad3divEPNS1_6TensorES3_E3$_3Li0ELb0EE5__getB8ue170006Ev', symObjAddr: 0x14090, symBinAddr: 0x10001C2B4, symSize: 0x14 }
  - { offsetInCU: 0x2FABF, offset: 0x44C2E, size: 0x8, addend: 0x0, symName: '__ZNSt3__19allocatorIZN5dgrad3divEPNS1_6TensorES3_E3$_3EC2B8ue170006INS_10__function6__funcIS4_S5_FvvEEEEERKNS0_IT_EE', symObjAddr: 0x140A4, symBinAddr: 0x10001C2C8, symSize: 0x30 }
  - { offsetInCU: 0x2FAFC, offset: 0x44C6B, size: 0x8, addend: 0x0, symName: '__ZNSt3__110__function6__funcIZN5dgrad3divEPNS2_6TensorES4_E3$_3NS_9allocatorIS5_EEFvvEEC2B8ue170006ERKS5_OS7_', symObjAddr: 0x140D4, symBinAddr: 0x10001C2F8, symSize: 0x88 }
  - { offsetInCU: 0x2FB44, offset: 0x44CB3, size: 0x8, addend: 0x0, symName: '__ZNSt3__110__function12__alloc_funcIZN5dgrad3divEPNS2_6TensorES4_E3$_3NS_9allocatorIS5_EEFvvEEC1B8ue170006ERKS5_OS7_', symObjAddr: 0x1415C, symBinAddr: 0x10001C380, symSize: 0x3C }
  - { offsetInCU: 0x2FB8A, offset: 0x44CF9, size: 0x8, addend: 0x0, symName: '__ZNSt3__110__function12__alloc_funcIZN5dgrad3divEPNS2_6TensorES4_E3$_3NS_9allocatorIS5_EEFvvEEC2B8ue170006ERKS5_OS7_', symObjAddr: 0x14198, symBinAddr: 0x10001C3BC, symSize: 0x5C }
  - { offsetInCU: 0x2FBD0, offset: 0x44D3F, size: 0x8, addend: 0x0, symName: '__ZNSt3__117__compressed_pairIZN5dgrad3divEPNS1_6TensorES3_E3$_3NS_9allocatorIS4_EEEC1B8ue170006IJRKS4_EJOS6_EEENS_21piecewise_construct_tENS_5tupleIJDpT_EEENSD_IJDpT0_EEE', symObjAddr: 0x14220, symBinAddr: 0x10001C444, symSize: 0x3C }
  - { offsetInCU: 0x2FC3A, offset: 0x44DA9, size: 0x8, addend: 0x0, symName: '__ZNSt3__15tupleIJRKZN5dgrad3divEPNS1_6TensorES3_E3$_3EEC1B8ue170006INS_4_AndELi0EEES6_', symObjAddr: 0x1425C, symBinAddr: 0x10001C480, symSize: 0x34 }
  - { offsetInCU: 0x2FC82, offset: 0x44DF1, size: 0x8, addend: 0x0, symName: '__ZNSt3__15tupleIJRKZN5dgrad3divEPNS1_6TensorES3_E3$_3EEC2B8ue170006INS_4_AndELi0EEES6_', symObjAddr: 0x14290, symBinAddr: 0x10001C4B4, symSize: 0x34 }
  - { offsetInCU: 0x2FCCA, offset: 0x44E39, size: 0x8, addend: 0x0, symName: '__ZNSt3__112__tuple_implINS_15__tuple_indicesIJLm0EEEEJRKZN5dgrad3divEPNS3_6TensorES5_E3$_3EEC1B8ue170006IJLm0EEJS8_EJEJEJS8_EEENS1_IJXspT_EEEENS_13__tuple_typesIJDpT0_EEENS1_IJXspT1_EEEENSC_IJDpT2_EEEDpOT3_', symObjAddr: 0x142C4, symBinAddr: 0x10001C4E8, symSize: 0x34 }
  - { offsetInCU: 0x2FD5B, offset: 0x44ECA, size: 0x8, addend: 0x0, symName: '__ZNSt3__112__tuple_implINS_15__tuple_indicesIJLm0EEEEJRKZN5dgrad3divEPNS3_6TensorES5_E3$_3EEC2B8ue170006IJLm0EEJS8_EJEJEJS8_EEENS1_IJXspT_EEEENS_13__tuple_typesIJDpT0_EEENS1_IJXspT1_EEEENSC_IJDpT2_EEEDpOT3_', symObjAddr: 0x142F8, symBinAddr: 0x10001C51C, symSize: 0x34 }
  - { offsetInCU: 0x2FDEC, offset: 0x44F5B, size: 0x8, addend: 0x0, symName: '__ZNSt3__112__tuple_leafILm0ERKZN5dgrad3divEPNS1_6TensorES3_E3$_3Lb0EEC2B8ue170006IS6_vEEOT_', symObjAddr: 0x1432C, symBinAddr: 0x10001C550, symSize: 0x20 }
  - { offsetInCU: 0x2FE2F, offset: 0x44F9E, size: 0x8, addend: 0x0, symName: '__ZNSt3__117__compressed_pairIZN5dgrad3divEPNS1_6TensorES3_E3$_3NS_9allocatorIS4_EEEC2B8ue170006IJRKS4_EJOS6_EEENS_21piecewise_construct_tENS_5tupleIJDpT_EEENSD_IJDpT0_EEE', symObjAddr: 0x1434C, symBinAddr: 0x10001C570, symSize: 0x54 }
  - { offsetInCU: 0x2FE99, offset: 0x45008, size: 0x8, addend: 0x0, symName: '__ZNSt3__122__compressed_pair_elemIZN5dgrad3divEPNS1_6TensorES3_E3$_3Li0ELb0EEC2B8ue170006IJRKS4_EJLm0EEEENS_21piecewise_construct_tENS_5tupleIJDpT_EEENS_15__tuple_indicesIJXspT0_EEEE', symObjAddr: 0x143A0, symBinAddr: 0x10001C5C4, symSize: 0x4C }
  - { offsetInCU: 0x2FEFC, offset: 0x4506B, size: 0x8, addend: 0x0, symName: '__ZNSt3__112__tuple_leafILm0ERKZN5dgrad3divEPNS1_6TensorES3_E3$_3Lb0EE3getB8ue170006Ev', symObjAddr: 0x14410, symBinAddr: 0x10001C634, symSize: 0x18 }
  - { offsetInCU: 0x2FF22, offset: 0x45091, size: 0x8, addend: 0x0, symName: '__ZNSt3__117__compressed_pairIPNS_10__function6__funcIZN5dgrad3divEPNS3_6TensorES5_E3$_3NS_9allocatorIS6_EEFvvEEENS_22__allocator_destructorINS7_ISA_EEEEE5firstB8ue170006Ev', symObjAddr: 0x14428, symBinAddr: 0x10001C64C, symSize: 0x24 }
  - { offsetInCU: 0x2FF48, offset: 0x450B7, size: 0x8, addend: 0x0, symName: '__ZNSt3__122__compressed_pair_elemIPNS_10__function6__funcIZN5dgrad3divEPNS3_6TensorES5_E3$_3NS_9allocatorIS6_EEFvvEEELi0ELb0EE5__getB8ue170006Ev', symObjAddr: 0x1444C, symBinAddr: 0x10001C670, symSize: 0x14 }
  - { offsetInCU: 0x2FF6E, offset: 0x450DD, size: 0x8, addend: 0x0, symName: '__ZNSt3__110unique_ptrINS_10__function6__funcIZN5dgrad3divEPNS3_6TensorES5_E3$_3NS_9allocatorIS6_EEFvvEEENS_22__allocator_destructorINS7_ISA_EEEEED2B8ue170006Ev', symObjAddr: 0x14460, symBinAddr: 0x10001C684, symSize: 0x30 }
  - { offsetInCU: 0x2FF98, offset: 0x45107, size: 0x8, addend: 0x0, symName: '__ZNSt3__110unique_ptrINS_10__function6__funcIZN5dgrad3divEPNS3_6TensorES5_E3$_3NS_9allocatorIS6_EEFvvEEENS_22__allocator_destructorINS7_ISA_EEEEE5resetB8ue170006EPSA_', symObjAddr: 0x14490, symBinAddr: 0x10001C6B4, symSize: 0x78 }
  - { offsetInCU: 0x2FFDC, offset: 0x4514B, size: 0x8, addend: 0x0, symName: '__ZNSt3__117__compressed_pairIPNS_10__function6__funcIZN5dgrad3divEPNS3_6TensorES5_E3$_3NS_9allocatorIS6_EEFvvEEENS_22__allocator_destructorINS7_ISA_EEEEE6secondB8ue170006Ev', symObjAddr: 0x14508, symBinAddr: 0x10001C72C, symSize: 0x28 }
  - { offsetInCU: 0x30002, offset: 0x45171, size: 0x8, addend: 0x0, symName: '__ZNSt3__122__allocator_destructorINS_9allocatorINS_10__function6__funcIZN5dgrad3divEPNS4_6TensorES6_E3$_3NS1_IS7_EEFvvEEEEEEclB8ue170006EPSA_', symObjAddr: 0x14530, symBinAddr: 0x10001C754, symSize: 0x34 }
  - { offsetInCU: 0x30036, offset: 0x451A5, size: 0x8, addend: 0x0, symName: '__ZNSt3__122__compressed_pair_elemINS_22__allocator_destructorINS_9allocatorINS_10__function6__funcIZN5dgrad3divEPNS5_6TensorES7_E3$_3NS2_IS8_EEFvvEEEEEEELi1ELb0EE5__getB8ue170006Ev', symObjAddr: 0x14564, symBinAddr: 0x10001C788, symSize: 0x14 }
  - { offsetInCU: 0x3005C, offset: 0x451CB, size: 0x8, addend: 0x0, symName: '__ZNSt3__116allocator_traitsINS_9allocatorINS_10__function6__funcIZN5dgrad3divEPNS4_6TensorES6_E3$_3NS1_IS7_EEFvvEEEEEE10deallocateB8ue170006ERSB_PSA_m', symObjAddr: 0x14578, symBinAddr: 0x10001C79C, symSize: 0x34 }
  - { offsetInCU: 0x3009E, offset: 0x4520D, size: 0x8, addend: 0x0, symName: '__ZNSt3__19allocatorINS_10__function6__funcIZN5dgrad3divEPNS3_6TensorES5_E3$_3NS0_IS6_EEFvvEEEE10deallocateB8ue170006EPS9_m', symObjAddr: 0x145AC, symBinAddr: 0x10001C7D0, symSize: 0x40 }
  - { offsetInCU: 0x300E0, offset: 0x4524F, size: 0x8, addend: 0x0, symName: '__ZNSt3__110__function6__funcIZN5dgrad3divEPNS2_6TensorES4_E3$_3NS_9allocatorIS5_EEFvvEEC1B8ue170006ERKS5_RKS7_', symObjAddr: 0x145EC, symBinAddr: 0x10001C810, symSize: 0x3C }
  - { offsetInCU: 0x30128, offset: 0x45297, size: 0x8, addend: 0x0, symName: '__ZNSt3__110__function6__funcIZN5dgrad3divEPNS2_6TensorES4_E3$_3NS_9allocatorIS5_EEFvvEEC2B8ue170006ERKS5_RKS7_', symObjAddr: 0x14628, symBinAddr: 0x10001C84C, symSize: 0x88 }
  - { offsetInCU: 0x30170, offset: 0x452DF, size: 0x8, addend: 0x0, symName: '__ZNSt3__110__function12__alloc_funcIZN5dgrad3divEPNS2_6TensorES4_E3$_3NS_9allocatorIS5_EEFvvEEC1B8ue170006ERKS5_RKS7_', symObjAddr: 0x146B0, symBinAddr: 0x10001C8D4, symSize: 0x3C }
  - { offsetInCU: 0x301B6, offset: 0x45325, size: 0x8, addend: 0x0, symName: '__ZNSt3__110__function12__alloc_funcIZN5dgrad3divEPNS2_6TensorES4_E3$_3NS_9allocatorIS5_EEFvvEEC2B8ue170006ERKS5_RKS7_', symObjAddr: 0x146EC, symBinAddr: 0x10001C910, symSize: 0x5C }
  - { offsetInCU: 0x301FC, offset: 0x4536B, size: 0x8, addend: 0x0, symName: '__ZNSt3__117__compressed_pairIZN5dgrad3divEPNS1_6TensorES3_E3$_3NS_9allocatorIS4_EEEC1B8ue170006IJRKS4_EJRKS6_EEENS_21piecewise_construct_tENS_5tupleIJDpT_EEENSE_IJDpT0_EEE', symObjAddr: 0x14774, symBinAddr: 0x10001C998, symSize: 0x3C }
  - { offsetInCU: 0x30266, offset: 0x453D5, size: 0x8, addend: 0x0, symName: '__ZNSt3__15tupleIJRKNS_9allocatorIZN5dgrad3divEPNS2_6TensorES4_E3$_3EEEEC1B8ue170006INS_4_AndELi0EEES8_', symObjAddr: 0x147B0, symBinAddr: 0x10001C9D4, symSize: 0x34 }
  - { offsetInCU: 0x302AE, offset: 0x4541D, size: 0x8, addend: 0x0, symName: '__ZNSt3__15tupleIJRKNS_9allocatorIZN5dgrad3divEPNS2_6TensorES4_E3$_3EEEEC2B8ue170006INS_4_AndELi0EEES8_', symObjAddr: 0x147E4, symBinAddr: 0x10001CA08, symSize: 0x34 }
  - { offsetInCU: 0x302F6, offset: 0x45465, size: 0x8, addend: 0x0, symName: '__ZNSt3__112__tuple_implINS_15__tuple_indicesIJLm0EEEEJRKNS_9allocatorIZN5dgrad3divEPNS4_6TensorES6_E3$_3EEEEC1B8ue170006IJLm0EEJSA_EJEJEJSA_EEENS1_IJXspT_EEEENS_13__tuple_typesIJDpT0_EEENS1_IJXspT1_EEEENSE_IJDpT2_EEEDpOT3_', symObjAddr: 0x14818, symBinAddr: 0x10001CA3C, symSize: 0x34 }
  - { offsetInCU: 0x30387, offset: 0x454F6, size: 0x8, addend: 0x0, symName: '__ZNSt3__112__tuple_implINS_15__tuple_indicesIJLm0EEEEJRKNS_9allocatorIZN5dgrad3divEPNS4_6TensorES6_E3$_3EEEEC2B8ue170006IJLm0EEJSA_EJEJEJSA_EEENS1_IJXspT_EEEENS_13__tuple_typesIJDpT0_EEENS1_IJXspT1_EEEENSE_IJDpT2_EEEDpOT3_', symObjAddr: 0x1484C, symBinAddr: 0x10001CA70, symSize: 0x34 }
  - { offsetInCU: 0x30418, offset: 0x45587, size: 0x8, addend: 0x0, symName: '__ZNSt3__112__tuple_leafILm0ERKNS_9allocatorIZN5dgrad3divEPNS2_6TensorES4_E3$_3EELb0EEC2B8ue170006IS8_vEEOT_', symObjAddr: 0x14880, symBinAddr: 0x10001CAA4, symSize: 0x20 }
  - { offsetInCU: 0x3045B, offset: 0x455CA, size: 0x8, addend: 0x0, symName: '__ZNSt3__117__compressed_pairIZN5dgrad3divEPNS1_6TensorES3_E3$_3NS_9allocatorIS4_EEEC2B8ue170006IJRKS4_EJRKS6_EEENS_21piecewise_construct_tENS_5tupleIJDpT_EEENSE_IJDpT0_EEE', symObjAddr: 0x148A0, symBinAddr: 0x10001CAC4, symSize: 0x54 }
  - { offsetInCU: 0x304C5, offset: 0x45634, size: 0x8, addend: 0x0, symName: '__ZNSt3__122__compressed_pair_elemINS_9allocatorIZN5dgrad3divEPNS2_6TensorES4_E3$_3EELi1ELb1EEC2B8ue170006IJRKS6_EJLm0EEEENS_21piecewise_construct_tENS_5tupleIJDpT_EEENS_15__tuple_indicesIJXspT0_EEEE', symObjAddr: 0x148F4, symBinAddr: 0x10001CB18, symSize: 0x38 }
  - { offsetInCU: 0x30528, offset: 0x45697, size: 0x8, addend: 0x0, symName: '__ZNSt3__112__tuple_leafILm0ERKNS_9allocatorIZN5dgrad3divEPNS2_6TensorES4_E3$_3EELb0EE3getB8ue170006Ev', symObjAddr: 0x14950, symBinAddr: 0x10001CB74, symSize: 0x18 }
  - { offsetInCU: 0x3054E, offset: 0x456BD, size: 0x8, addend: 0x0, symName: '__ZNSt3__110__function12__alloc_funcIZN5dgrad3divEPNS2_6TensorES4_E3$_3NS_9allocatorIS5_EEFvvEE7destroyB8ue170006Ev', symObjAddr: 0x14968, symBinAddr: 0x10001CB8C, symSize: 0x10 }
  - { offsetInCU: 0x30574, offset: 0x456E3, size: 0x8, addend: 0x0, symName: '__ZNSt3__110__function12__alloc_funcIZN5dgrad3divEPNS2_6TensorES4_E3$_3NS_9allocatorIS5_EEFvvEEclB8ue170006Ev', symObjAddr: 0x14978, symBinAddr: 0x10001CB9C, symSize: 0x28 }
  - { offsetInCU: 0x3059A, offset: 0x45709, size: 0x8, addend: 0x0, symName: '__ZNSt3__128__invoke_void_return_wrapperIvLb1EE6__callB8ue170006IJRZN5dgrad3divEPNS3_6TensorES5_E3$_3EEEvDpOT_', symObjAddr: 0x149A0, symBinAddr: 0x10001CBC4, symSize: 0x24 }
  - { offsetInCU: 0x305C9, offset: 0x45738, size: 0x8, addend: 0x0, symName: '__ZNSt3__117__compressed_pairIZN5dgrad3divEPNS1_6TensorES3_E3$_3NS_9allocatorIS4_EEE5firstB8ue170006Ev', symObjAddr: 0x149C4, symBinAddr: 0x10001CBE8, symSize: 0x24 }
  - { offsetInCU: 0x305F4, offset: 0x45763, size: 0x8, addend: 0x0, symName: '__ZZN5dgrad3divEPNS_6TensorES1_ENK3$_3clEv', symObjAddr: 0x14A0C, symBinAddr: 0x10001CC30, symSize: 0x16C }
  - { offsetInCU: 0x3063A, offset: 0x457A9, size: 0x8, addend: 0x0, symName: '__ZNSt3__122__compressed_pair_elemIZN5dgrad3divEPNS1_6TensorES3_E3$_3Li0ELb0EE5__getB8ue170006Ev', symObjAddr: 0x14B78, symBinAddr: 0x10001CD9C, symSize: 0x14 }
  - { offsetInCU: 0x30660, offset: 0x457CF, size: 0x8, addend: 0x0, symName: '__ZNSt3__110unique_ptrINS_10__function6__baseIFvvEEENS_22__allocator_destructorINS_9allocatorINS1_6__funcIZN5dgrad3divEPNS8_6TensorESA_E3$_3NS6_ISB_EES3_EEEEEEED2B8ue170006Ev', symObjAddr: 0x14B8C, symBinAddr: 0x10001CDB0, symSize: 0x30 }
  - { offsetInCU: 0x3068A, offset: 0x457F9, size: 0x8, addend: 0x0, symName: '__ZNSt3__110unique_ptrINS_10__function6__baseIFvvEEENS_22__allocator_destructorINS_9allocatorINS1_6__funcIZN5dgrad3divEPNS8_6TensorESA_E3$_3NS6_ISB_EES3_EEEEEEE5resetB8ue170006EPSD_', symObjAddr: 0x14BBC, symBinAddr: 0x10001CDE0, symSize: 0x78 }
  - { offsetInCU: 0x306CE, offset: 0x4583D, size: 0x8, addend: 0x0, symName: '__ZNSt3__18functionIFvvEEC1IZN5dgrad3dotEPNS4_6TensorES6_E3$_4vEET_', symObjAddr: 0x14C34, symBinAddr: 0x10001CE58, symSize: 0x34 }
  - { offsetInCU: 0x30714, offset: 0x45883, size: 0x8, addend: 0x0, symName: '__ZNSt3__18functionIFvvEEC2IZN5dgrad3dotEPNS4_6TensorES6_E3$_4vEET_', symObjAddr: 0x14C68, symBinAddr: 0x10001CE8C, symSize: 0x34 }
  - { offsetInCU: 0x3075A, offset: 0x458C9, size: 0x8, addend: 0x0, symName: '__ZNSt3__110__function12__value_funcIFvvEEC1B8ue170006IZN5dgrad3dotEPNS5_6TensorES7_E3$_4vEEOT_', symObjAddr: 0x14C9C, symBinAddr: 0x10001CEC0, symSize: 0x50 }
  - { offsetInCU: 0x3079D, offset: 0x4590C, size: 0x8, addend: 0x0, symName: '__ZNSt3__19allocatorIZN5dgrad3dotEPNS1_6TensorES3_E3$_4EC1B8ue170006Ev', symObjAddr: 0x14CEC, symBinAddr: 0x10001CF10, symSize: 0x2C }
  - { offsetInCU: 0x307C7, offset: 0x45936, size: 0x8, addend: 0x0, symName: '__ZNSt3__110__function12__value_funcIFvvEEC1B8ue170006IZN5dgrad3dotEPNS5_6TensorES7_E3$_4NS_9allocatorIS8_EEEEOT_RKT0_', symObjAddr: 0x14D18, symBinAddr: 0x10001CF3C, symSize: 0x3C }
  - { offsetInCU: 0x30821, offset: 0x45990, size: 0x8, addend: 0x0, symName: '__ZNSt3__19allocatorIZN5dgrad3dotEPNS1_6TensorES3_E3$_4EC2B8ue170006Ev', symObjAddr: 0x14D54, symBinAddr: 0x10001CF78, symSize: 0x2C }
  - { offsetInCU: 0x3084B, offset: 0x459BA, size: 0x8, addend: 0x0, symName: '__ZNSt3__116__non_trivial_ifILb1ENS_9allocatorIZN5dgrad3dotEPNS2_6TensorES4_E3$_4EEEC2B8ue170006Ev', symObjAddr: 0x14D80, symBinAddr: 0x10001CFA4, symSize: 0x14 }
  - { offsetInCU: 0x30875, offset: 0x459E4, size: 0x8, addend: 0x0, symName: '__ZNSt3__110__function12__value_funcIFvvEEC2B8ue170006IZN5dgrad3dotEPNS5_6TensorES7_E3$_4NS_9allocatorIS8_EEEEOT_RKT0_', symObjAddr: 0x14D94, symBinAddr: 0x10001CFB8, symSize: 0xF4 }
  - { offsetInCU: 0x30928, offset: 0x45A97, size: 0x8, addend: 0x0, symName: '__ZNSt3__19allocatorINS_10__function6__funcIZN5dgrad3dotEPNS3_6TensorES5_E3$_4NS0_IS6_EEFvvEEEEC1B8ue170006IS6_EERKNS0_IT_EE', symObjAddr: 0x14EA0, symBinAddr: 0x10001D0C4, symSize: 0x34 }
  - { offsetInCU: 0x30965, offset: 0x45AD4, size: 0x8, addend: 0x0, symName: '__ZNSt3__19allocatorINS_10__function6__funcIZN5dgrad3dotEPNS3_6TensorES5_E3$_4NS0_IS6_EEFvvEEEE8allocateB8ue170006Em', symObjAddr: 0x14ED4, symBinAddr: 0x10001D0F8, symSize: 0x58 }
  - { offsetInCU: 0x309A8, offset: 0x45B17, size: 0x8, addend: 0x0, symName: '__ZNSt3__122__allocator_destructorINS_9allocatorINS_10__function6__funcIZN5dgrad3dotEPNS4_6TensorES6_E3$_4NS1_IS7_EEFvvEEEEEEC1B8ue170006ERSB_m', symObjAddr: 0x14F2C, symBinAddr: 0x10001D150, symSize: 0x3C }
  - { offsetInCU: 0x30A7C, offset: 0x45BEB, size: 0x8, addend: 0x0, symName: '__ZNSt3__110unique_ptrINS_10__function6__baseIFvvEEENS_22__allocator_destructorINS_9allocatorINS1_6__funcIZN5dgrad3dotEPNS8_6TensorESA_E3$_4NS6_ISB_EES3_EEEEEEEC1B8ue170006ILb1EvEEPSD_NS_16__dependent_typeINS_27__unique_ptr_deleter_sfinaeISF_EEXT_EE20__good_rval_ref_typeE', symObjAddr: 0x14F68, symBinAddr: 0x10001D18C, symSize: 0x3C }
  - { offsetInCU: 0x30ACD, offset: 0x45C3C, size: 0x8, addend: 0x0, symName: '__ZNKSt3__110unique_ptrINS_10__function6__baseIFvvEEENS_22__allocator_destructorINS_9allocatorINS1_6__funcIZN5dgrad3dotEPNS8_6TensorESA_E3$_4NS6_ISB_EES3_EEEEEEE3getB8ue170006Ev', symObjAddr: 0x14FA4, symBinAddr: 0x10001D1C8, symSize: 0x28 }
  - { offsetInCU: 0x30AF3, offset: 0x45C62, size: 0x8, addend: 0x0, symName: '__ZNSt3__110__function6__funcIZN5dgrad3dotEPNS2_6TensorES4_E3$_4NS_9allocatorIS5_EEFvvEEC1B8ue170006EOS5_OS7_', symObjAddr: 0x14FCC, symBinAddr: 0x10001D1F0, symSize: 0x3C }
  - { offsetInCU: 0x30B3B, offset: 0x45CAA, size: 0x8, addend: 0x0, symName: '__ZNSt3__110unique_ptrINS_10__function6__baseIFvvEEENS_22__allocator_destructorINS_9allocatorINS1_6__funcIZN5dgrad3dotEPNS8_6TensorESA_E3$_4NS6_ISB_EES3_EEEEEEE7releaseB8ue170006Ev', symObjAddr: 0x15008, symBinAddr: 0x10001D22C, symSize: 0x44 }
  - { offsetInCU: 0x30B70, offset: 0x45CDF, size: 0x8, addend: 0x0, symName: '__ZNSt3__110unique_ptrINS_10__function6__baseIFvvEEENS_22__allocator_destructorINS_9allocatorINS1_6__funcIZN5dgrad3dotEPNS8_6TensorESA_E3$_4NS6_ISB_EES3_EEEEEEED1B8ue170006Ev', symObjAddr: 0x1504C, symBinAddr: 0x10001D270, symSize: 0x2C }
  - { offsetInCU: 0x30B9A, offset: 0x45D09, size: 0x8, addend: 0x0, symName: '__ZNSt3__19allocatorINS_10__function6__funcIZN5dgrad3dotEPNS3_6TensorES5_E3$_4NS0_IS6_EEFvvEEEEC2B8ue170006IS6_EERKNS0_IT_EE', symObjAddr: 0x15078, symBinAddr: 0x10001D29C, symSize: 0x30 }
  - { offsetInCU: 0x30BD7, offset: 0x45D46, size: 0x8, addend: 0x0, symName: '__ZNSt3__116__non_trivial_ifILb1ENS_9allocatorINS_10__function6__funcIZN5dgrad3dotEPNS4_6TensorES6_E3$_4NS1_IS7_EEFvvEEEEEEC2B8ue170006Ev', symObjAddr: 0x150A8, symBinAddr: 0x10001D2CC, symSize: 0x14 }
  - { offsetInCU: 0x30C0B, offset: 0x45D7A, size: 0x8, addend: 0x0, symName: '__ZNSt3__116allocator_traitsINS_9allocatorINS_10__function6__funcIZN5dgrad3dotEPNS4_6TensorES6_E3$_4NS1_IS7_EEFvvEEEEEE8max_sizeB8ue170006ISB_vEEmRKSB_', symObjAddr: 0x150BC, symBinAddr: 0x10001D2E0, symSize: 0x24 }
  - { offsetInCU: 0x30C39, offset: 0x45DA8, size: 0x8, addend: 0x0, symName: '__ZNKSt3__19allocatorINS_10__function6__funcIZN5dgrad3dotEPNS3_6TensorES5_E3$_4NS0_IS6_EEFvvEEEE8max_sizeB8ue170006Ev', symObjAddr: 0x150E0, symBinAddr: 0x10001D304, symSize: 0x14 }
  - { offsetInCU: 0x30C5F, offset: 0x45DCE, size: 0x8, addend: 0x0, symName: '__ZNSt3__122__allocator_destructorINS_9allocatorINS_10__function6__funcIZN5dgrad3dotEPNS4_6TensorES6_E3$_4NS1_IS7_EEFvvEEEEEEC2B8ue170006ERSB_m', symObjAddr: 0x150F4, symBinAddr: 0x10001D318, symSize: 0x2C }
  - { offsetInCU: 0x30CA5, offset: 0x45E14, size: 0x8, addend: 0x0, symName: '__ZNSt3__110unique_ptrINS_10__function6__baseIFvvEEENS_22__allocator_destructorINS_9allocatorINS1_6__funcIZN5dgrad3dotEPNS8_6TensorESA_E3$_4NS6_ISB_EES3_EEEEEEEC2B8ue170006ILb1EvEEPSD_NS_16__dependent_typeINS_27__unique_ptr_deleter_sfinaeISF_EEXT_EE20__good_rval_ref_typeE', symObjAddr: 0x15120, symBinAddr: 0x10001D344, symSize: 0x48 }
  - { offsetInCU: 0x30CF6, offset: 0x45E65, size: 0x8, addend: 0x0, symName: '__ZNSt3__117__compressed_pairIPNS_10__function6__funcIZN5dgrad3dotEPNS3_6TensorES5_E3$_4NS_9allocatorIS6_EEFvvEEENS_22__allocator_destructorINS7_ISA_EEEEEC1B8ue170006IRSB_SE_EEOT_OT0_', symObjAddr: 0x15168, symBinAddr: 0x10001D38C, symSize: 0x3C }
  - { offsetInCU: 0x30D4E, offset: 0x45EBD, size: 0x8, addend: 0x0, symName: '__ZNSt3__117__compressed_pairIPNS_10__function6__funcIZN5dgrad3dotEPNS3_6TensorES5_E3$_4NS_9allocatorIS6_EEFvvEEENS_22__allocator_destructorINS7_ISA_EEEEEC2B8ue170006IRSB_SE_EEOT_OT0_', symObjAddr: 0x151A4, symBinAddr: 0x10001D3C8, symSize: 0x48 }
  - { offsetInCU: 0x30DA6, offset: 0x45F15, size: 0x8, addend: 0x0, symName: '__ZNSt3__122__compressed_pair_elemIPNS_10__function6__funcIZN5dgrad3dotEPNS3_6TensorES5_E3$_4NS_9allocatorIS6_EEFvvEEELi0ELb0EEC2B8ue170006IRSB_vEEOT_', symObjAddr: 0x151EC, symBinAddr: 0x10001D410, symSize: 0x24 }
  - { offsetInCU: 0x30DE8, offset: 0x45F57, size: 0x8, addend: 0x0, symName: '__ZNSt3__122__compressed_pair_elemINS_22__allocator_destructorINS_9allocatorINS_10__function6__funcIZN5dgrad3dotEPNS5_6TensorES7_E3$_4NS2_IS8_EEFvvEEEEEEELi1ELb0EEC2B8ue170006ISD_vEEOT_', symObjAddr: 0x15210, symBinAddr: 0x10001D434, symSize: 0x24 }
  - { offsetInCU: 0x30E2A, offset: 0x45F99, size: 0x8, addend: 0x0, symName: '__ZNKSt3__117__compressed_pairIPNS_10__function6__funcIZN5dgrad3dotEPNS3_6TensorES5_E3$_4NS_9allocatorIS6_EEFvvEEENS_22__allocator_destructorINS7_ISA_EEEEE5firstB8ue170006Ev', symObjAddr: 0x15234, symBinAddr: 0x10001D458, symSize: 0x24 }
  - { offsetInCU: 0x30E50, offset: 0x45FBF, size: 0x8, addend: 0x0, symName: '__ZNKSt3__122__compressed_pair_elemIPNS_10__function6__funcIZN5dgrad3dotEPNS3_6TensorES5_E3$_4NS_9allocatorIS6_EEFvvEEELi0ELb0EE5__getB8ue170006Ev', symObjAddr: 0x15258, symBinAddr: 0x10001D47C, symSize: 0x14 }
  - { offsetInCU: 0x30E76, offset: 0x45FE5, size: 0x8, addend: 0x0, symName: '__ZNSt3__110__function6__funcIZN5dgrad3dotEPNS2_6TensorES4_E3$_4NS_9allocatorIS5_EEFvvEEC2B8ue170006EOS5_OS7_', symObjAddr: 0x1526C, symBinAddr: 0x10001D490, symSize: 0x88 }
  - { offsetInCU: 0x30EBE, offset: 0x4602D, size: 0x8, addend: 0x0, symName: '__ZNSt3__110__function12__alloc_funcIZN5dgrad3dotEPNS2_6TensorES4_E3$_4NS_9allocatorIS5_EEFvvEEC1B8ue170006EOS5_OS7_', symObjAddr: 0x152F4, symBinAddr: 0x10001D518, symSize: 0x3C }
  - { offsetInCU: 0x30F04, offset: 0x46073, size: 0x8, addend: 0x0, symName: '__ZNSt3__110__function6__funcIZN5dgrad3dotEPNS2_6TensorES4_E3$_4NS_9allocatorIS5_EEFvvEED1Ev', symObjAddr: 0x15330, symBinAddr: 0x10001D554, symSize: 0x2C }
  - { offsetInCU: 0x30F31, offset: 0x460A0, size: 0x8, addend: 0x0, symName: '__ZNSt3__110__function6__funcIZN5dgrad3dotEPNS2_6TensorES4_E3$_4NS_9allocatorIS5_EEFvvEED0Ev', symObjAddr: 0x1535C, symBinAddr: 0x10001D580, symSize: 0x30 }
  - { offsetInCU: 0x30F5E, offset: 0x460CD, size: 0x8, addend: 0x0, symName: '__ZNKSt3__110__function6__funcIZN5dgrad3dotEPNS2_6TensorES4_E3$_4NS_9allocatorIS5_EEFvvEE7__cloneEv', symObjAddr: 0x1538C, symBinAddr: 0x10001D5B0, symSize: 0xFC }
  - { offsetInCU: 0x30FB0, offset: 0x4611F, size: 0x8, addend: 0x0, symName: '__ZNKSt3__110__function6__funcIZN5dgrad3dotEPNS2_6TensorES4_E3$_4NS_9allocatorIS5_EEFvvEE7__cloneEPNS0_6__baseIS8_EE', symObjAddr: 0x15488, symBinAddr: 0x10001D6AC, symSize: 0x58 }
  - { offsetInCU: 0x30FE7, offset: 0x46156, size: 0x8, addend: 0x0, symName: '__ZNSt3__110__function6__funcIZN5dgrad3dotEPNS2_6TensorES4_E3$_4NS_9allocatorIS5_EEFvvEE7destroyEv', symObjAddr: 0x154E0, symBinAddr: 0x10001D704, symSize: 0x28 }
  - { offsetInCU: 0x3100F, offset: 0x4617E, size: 0x8, addend: 0x0, symName: '__ZNSt3__110__function6__funcIZN5dgrad3dotEPNS2_6TensorES4_E3$_4NS_9allocatorIS5_EEFvvEE18destroy_deallocateEv', symObjAddr: 0x15508, symBinAddr: 0x10001D72C, symSize: 0x58 }
  - { offsetInCU: 0x31052, offset: 0x461C1, size: 0x8, addend: 0x0, symName: '__ZNSt3__110__function6__funcIZN5dgrad3dotEPNS2_6TensorES4_E3$_4NS_9allocatorIS5_EEFvvEEclEv', symObjAddr: 0x15560, symBinAddr: 0x10001D784, symSize: 0x28 }
  - { offsetInCU: 0x3107A, offset: 0x461E9, size: 0x8, addend: 0x0, symName: '__ZNKSt3__110__function6__funcIZN5dgrad3dotEPNS2_6TensorES4_E3$_4NS_9allocatorIS5_EEFvvEE6targetERKSt9type_info', symObjAddr: 0x15588, symBinAddr: 0x10001D7AC, symSize: 0x60 }
  - { offsetInCU: 0x310B1, offset: 0x46220, size: 0x8, addend: 0x0, symName: '__ZNKSt3__110__function6__funcIZN5dgrad3dotEPNS2_6TensorES4_E3$_4NS_9allocatorIS5_EEFvvEE11target_typeEv', symObjAddr: 0x155E8, symBinAddr: 0x10001D80C, symSize: 0x18 }
  - { offsetInCU: 0x310D9, offset: 0x46248, size: 0x8, addend: 0x0, symName: '__ZNSt3__110__function12__alloc_funcIZN5dgrad3dotEPNS2_6TensorES4_E3$_4NS_9allocatorIS5_EEFvvEEC2B8ue170006EOS5_OS7_', symObjAddr: 0x15600, symBinAddr: 0x10001D824, symSize: 0x5C }
  - { offsetInCU: 0x3111F, offset: 0x4628E, size: 0x8, addend: 0x0, symName: '__ZNSt3__117__compressed_pairIZN5dgrad3dotEPNS1_6TensorES3_E3$_4NS_9allocatorIS4_EEEC1B8ue170006IJOS4_EJOS6_EEENS_21piecewise_construct_tENS_5tupleIJDpT_EEENSC_IJDpT0_EEE', symObjAddr: 0x156B4, symBinAddr: 0x10001D8D8, symSize: 0x3C }
  - { offsetInCU: 0x31189, offset: 0x462F8, size: 0x8, addend: 0x0, symName: '__ZNSt3__15tupleIJOZN5dgrad3dotEPNS1_6TensorES3_E3$_4EEC1B8ue170006IJS4_ELi0EEEDpOT_', symObjAddr: 0x156F0, symBinAddr: 0x10001D914, symSize: 0x34 }
  - { offsetInCU: 0x311D3, offset: 0x46342, size: 0x8, addend: 0x0, symName: '__ZNSt3__15tupleIJOZN5dgrad3dotEPNS1_6TensorES3_E3$_4EEC2B8ue170006IJS4_ELi0EEEDpOT_', symObjAddr: 0x15724, symBinAddr: 0x10001D948, symSize: 0x34 }
  - { offsetInCU: 0x3121D, offset: 0x4638C, size: 0x8, addend: 0x0, symName: '__ZNSt3__112__tuple_implINS_15__tuple_indicesIJLm0EEEEJOZN5dgrad3dotEPNS3_6TensorES5_E3$_4EEC1B8ue170006IJLm0EEJS7_EJEJEJS6_EEENS1_IJXspT_EEEENS_13__tuple_typesIJDpT0_EEENS1_IJXspT1_EEEENSB_IJDpT2_EEEDpOT3_', symObjAddr: 0x15758, symBinAddr: 0x10001D97C, symSize: 0x34 }
  - { offsetInCU: 0x312AE, offset: 0x4641D, size: 0x8, addend: 0x0, symName: '__ZNSt3__112__tuple_implINS_15__tuple_indicesIJLm0EEEEJOZN5dgrad3dotEPNS3_6TensorES5_E3$_4EEC2B8ue170006IJLm0EEJS7_EJEJEJS6_EEENS1_IJXspT_EEEENS_13__tuple_typesIJDpT0_EEENS1_IJXspT1_EEEENSB_IJDpT2_EEEDpOT3_', symObjAddr: 0x1578C, symBinAddr: 0x10001D9B0, symSize: 0x34 }
  - { offsetInCU: 0x3133F, offset: 0x464AE, size: 0x8, addend: 0x0, symName: '__ZNSt3__112__tuple_leafILm0EOZN5dgrad3dotEPNS1_6TensorES3_E3$_4Lb0EEC2B8ue170006IS4_vEEOT_', symObjAddr: 0x157C0, symBinAddr: 0x10001D9E4, symSize: 0x20 }
  - { offsetInCU: 0x31382, offset: 0x464F1, size: 0x8, addend: 0x0, symName: '__ZNSt3__15tupleIJONS_9allocatorIZN5dgrad3dotEPNS2_6TensorES4_E3$_4EEEEC1B8ue170006IJS6_ELi0EEEDpOT_', symObjAddr: 0x157E0, symBinAddr: 0x10001DA04, symSize: 0x34 }
  - { offsetInCU: 0x313CC, offset: 0x4653B, size: 0x8, addend: 0x0, symName: '__ZNSt3__15tupleIJONS_9allocatorIZN5dgrad3dotEPNS2_6TensorES4_E3$_4EEEEC2B8ue170006IJS6_ELi0EEEDpOT_', symObjAddr: 0x15814, symBinAddr: 0x10001DA38, symSize: 0x34 }
  - { offsetInCU: 0x31416, offset: 0x46585, size: 0x8, addend: 0x0, symName: '__ZNSt3__112__tuple_implINS_15__tuple_indicesIJLm0EEEEJONS_9allocatorIZN5dgrad3dotEPNS4_6TensorES6_E3$_4EEEEC1B8ue170006IJLm0EEJS9_EJEJEJS8_EEENS1_IJXspT_EEEENS_13__tuple_typesIJDpT0_EEENS1_IJXspT1_EEEENSD_IJDpT2_EEEDpOT3_', symObjAddr: 0x15848, symBinAddr: 0x10001DA6C, symSize: 0x34 }
  - { offsetInCU: 0x314A7, offset: 0x46616, size: 0x8, addend: 0x0, symName: '__ZNSt3__112__tuple_implINS_15__tuple_indicesIJLm0EEEEJONS_9allocatorIZN5dgrad3dotEPNS4_6TensorES6_E3$_4EEEEC2B8ue170006IJLm0EEJS9_EJEJEJS8_EEENS1_IJXspT_EEEENS_13__tuple_typesIJDpT0_EEENS1_IJXspT1_EEEENSD_IJDpT2_EEEDpOT3_', symObjAddr: 0x1587C, symBinAddr: 0x10001DAA0, symSize: 0x34 }
  - { offsetInCU: 0x31538, offset: 0x466A7, size: 0x8, addend: 0x0, symName: '__ZNSt3__112__tuple_leafILm0EONS_9allocatorIZN5dgrad3dotEPNS2_6TensorES4_E3$_4EELb0EEC2B8ue170006IS6_vEEOT_', symObjAddr: 0x158B0, symBinAddr: 0x10001DAD4, symSize: 0x20 }
  - { offsetInCU: 0x3157B, offset: 0x466EA, size: 0x8, addend: 0x0, symName: '__ZNSt3__117__compressed_pairIZN5dgrad3dotEPNS1_6TensorES3_E3$_4NS_9allocatorIS4_EEEC2B8ue170006IJOS4_EJOS6_EEENS_21piecewise_construct_tENS_5tupleIJDpT_EEENSC_IJDpT0_EEE', symObjAddr: 0x158D0, symBinAddr: 0x10001DAF4, symSize: 0x54 }
  - { offsetInCU: 0x315E5, offset: 0x46754, size: 0x8, addend: 0x0, symName: '__ZNSt3__122__compressed_pair_elemIZN5dgrad3dotEPNS1_6TensorES3_E3$_4Li0ELb0EEC2B8ue170006IJOS4_EJLm0EEEENS_21piecewise_construct_tENS_5tupleIJDpT_EEENS_15__tuple_indicesIJXspT0_EEEE', symObjAddr: 0x15924, symBinAddr: 0x10001DB48, symSize: 0x4C }
  - { offsetInCU: 0x31648, offset: 0x467B7, size: 0x8, addend: 0x0, symName: '__ZNSt3__122__compressed_pair_elemINS_9allocatorIZN5dgrad3dotEPNS2_6TensorES4_E3$_4EELi1ELb1EEC2B8ue170006IJOS6_EJLm0EEEENS_21piecewise_construct_tENS_5tupleIJDpT_EEENS_15__tuple_indicesIJXspT0_EEEE', symObjAddr: 0x15970, symBinAddr: 0x10001DB94, symSize: 0x38 }
  - { offsetInCU: 0x316AB, offset: 0x4681A, size: 0x8, addend: 0x0, symName: '__ZNSt3__112__tuple_leafILm0EOZN5dgrad3dotEPNS1_6TensorES3_E3$_4Lb0EE3getB8ue170006Ev', symObjAddr: 0x159CC, symBinAddr: 0x10001DBF0, symSize: 0x18 }
  - { offsetInCU: 0x316D1, offset: 0x46840, size: 0x8, addend: 0x0, symName: '__ZNSt3__112__tuple_leafILm0EONS_9allocatorIZN5dgrad3dotEPNS2_6TensorES4_E3$_4EELb0EE3getB8ue170006Ev', symObjAddr: 0x15A08, symBinAddr: 0x10001DC2C, symSize: 0x18 }
  - { offsetInCU: 0x316F7, offset: 0x46866, size: 0x8, addend: 0x0, symName: '__ZNSt3__110__function6__funcIZN5dgrad3dotEPNS2_6TensorES4_E3$_4NS_9allocatorIS5_EEFvvEED2Ev', symObjAddr: 0x15A20, symBinAddr: 0x10001DC44, symSize: 0x2C }
  - { offsetInCU: 0x31724, offset: 0x46893, size: 0x8, addend: 0x0, symName: '__ZNKSt3__110__function12__alloc_funcIZN5dgrad3dotEPNS2_6TensorES4_E3$_4NS_9allocatorIS5_EEFvvEE15__get_allocatorB8ue170006Ev', symObjAddr: 0x15A4C, symBinAddr: 0x10001DC70, symSize: 0x24 }
  - { offsetInCU: 0x31773, offset: 0x468E2, size: 0x8, addend: 0x0, symName: '__ZNSt3__110unique_ptrINS_10__function6__funcIZN5dgrad3dotEPNS3_6TensorES5_E3$_4NS_9allocatorIS6_EEFvvEEENS_22__allocator_destructorINS7_ISA_EEEEEC1B8ue170006ILb1EvEEPSA_NS_16__dependent_typeINS_27__unique_ptr_deleter_sfinaeISD_EEXT_EE20__good_rval_ref_typeE', symObjAddr: 0x15A70, symBinAddr: 0x10001DC94, symSize: 0x3C }
  - { offsetInCU: 0x317C4, offset: 0x46933, size: 0x8, addend: 0x0, symName: '__ZNKSt3__110unique_ptrINS_10__function6__funcIZN5dgrad3dotEPNS3_6TensorES5_E3$_4NS_9allocatorIS6_EEFvvEEENS_22__allocator_destructorINS7_ISA_EEEEE3getB8ue170006Ev', symObjAddr: 0x15AAC, symBinAddr: 0x10001DCD0, symSize: 0x28 }
  - { offsetInCU: 0x317EA, offset: 0x46959, size: 0x8, addend: 0x0, symName: '__ZNKSt3__110__function12__alloc_funcIZN5dgrad3dotEPNS2_6TensorES4_E3$_4NS_9allocatorIS5_EEFvvEE8__targetB8ue170006Ev', symObjAddr: 0x15AD4, symBinAddr: 0x10001DCF8, symSize: 0x24 }
  - { offsetInCU: 0x31815, offset: 0x46984, size: 0x8, addend: 0x0, symName: '__ZNSt3__19allocatorIZN5dgrad3dotEPNS1_6TensorES3_E3$_4EC1B8ue170006INS_10__function6__funcIS4_S5_FvvEEEEERKNS0_IT_EE', symObjAddr: 0x15AF8, symBinAddr: 0x10001DD1C, symSize: 0x34 }
  - { offsetInCU: 0x31852, offset: 0x469C1, size: 0x8, addend: 0x0, symName: '__ZNSt3__110__function6__funcIZN5dgrad3dotEPNS2_6TensorES4_E3$_4NS_9allocatorIS5_EEFvvEEC1B8ue170006ERKS5_OS7_', symObjAddr: 0x15B2C, symBinAddr: 0x10001DD50, symSize: 0x3C }
  - { offsetInCU: 0x3189A, offset: 0x46A09, size: 0x8, addend: 0x0, symName: '__ZNSt3__110unique_ptrINS_10__function6__funcIZN5dgrad3dotEPNS3_6TensorES5_E3$_4NS_9allocatorIS6_EEFvvEEENS_22__allocator_destructorINS7_ISA_EEEEE7releaseB8ue170006Ev', symObjAddr: 0x15B68, symBinAddr: 0x10001DD8C, symSize: 0x44 }
  - { offsetInCU: 0x318CF, offset: 0x46A3E, size: 0x8, addend: 0x0, symName: '__ZNSt3__110unique_ptrINS_10__function6__funcIZN5dgrad3dotEPNS3_6TensorES5_E3$_4NS_9allocatorIS6_EEFvvEEENS_22__allocator_destructorINS7_ISA_EEEEED1B8ue170006Ev', symObjAddr: 0x15BAC, symBinAddr: 0x10001DDD0, symSize: 0x2C }
  - { offsetInCU: 0x318F9, offset: 0x46A68, size: 0x8, addend: 0x0, symName: '__ZNKSt3__117__compressed_pairIZN5dgrad3dotEPNS1_6TensorES3_E3$_4NS_9allocatorIS4_EEE6secondB8ue170006Ev', symObjAddr: 0x15BD8, symBinAddr: 0x10001DDFC, symSize: 0x24 }
  - { offsetInCU: 0x3191F, offset: 0x46A8E, size: 0x8, addend: 0x0, symName: '__ZNKSt3__122__compressed_pair_elemINS_9allocatorIZN5dgrad3dotEPNS2_6TensorES4_E3$_4EELi1ELb1EE5__getB8ue170006Ev', symObjAddr: 0x15BFC, symBinAddr: 0x10001DE20, symSize: 0x14 }
  - { offsetInCU: 0x31945, offset: 0x46AB4, size: 0x8, addend: 0x0, symName: '__ZNSt3__110unique_ptrINS_10__function6__funcIZN5dgrad3dotEPNS3_6TensorES5_E3$_4NS_9allocatorIS6_EEFvvEEENS_22__allocator_destructorINS7_ISA_EEEEEC2B8ue170006ILb1EvEEPSA_NS_16__dependent_typeINS_27__unique_ptr_deleter_sfinaeISD_EEXT_EE20__good_rval_ref_typeE', symObjAddr: 0x15C10, symBinAddr: 0x10001DE34, symSize: 0x48 }
  - { offsetInCU: 0x31996, offset: 0x46B05, size: 0x8, addend: 0x0, symName: '__ZNKSt3__117__compressed_pairIZN5dgrad3dotEPNS1_6TensorES3_E3$_4NS_9allocatorIS4_EEE5firstB8ue170006Ev', symObjAddr: 0x15C58, symBinAddr: 0x10001DE7C, symSize: 0x24 }
  - { offsetInCU: 0x319BC, offset: 0x46B2B, size: 0x8, addend: 0x0, symName: '__ZNKSt3__122__compressed_pair_elemIZN5dgrad3dotEPNS1_6TensorES3_E3$_4Li0ELb0EE5__getB8ue170006Ev', symObjAddr: 0x15C7C, symBinAddr: 0x10001DEA0, symSize: 0x14 }
  - { offsetInCU: 0x319E2, offset: 0x46B51, size: 0x8, addend: 0x0, symName: '__ZNSt3__19allocatorIZN5dgrad3dotEPNS1_6TensorES3_E3$_4EC2B8ue170006INS_10__function6__funcIS4_S5_FvvEEEEERKNS0_IT_EE', symObjAddr: 0x15C90, symBinAddr: 0x10001DEB4, symSize: 0x30 }
  - { offsetInCU: 0x31A1F, offset: 0x46B8E, size: 0x8, addend: 0x0, symName: '__ZNSt3__110__function6__funcIZN5dgrad3dotEPNS2_6TensorES4_E3$_4NS_9allocatorIS5_EEFvvEEC2B8ue170006ERKS5_OS7_', symObjAddr: 0x15CC0, symBinAddr: 0x10001DEE4, symSize: 0x88 }
  - { offsetInCU: 0x31A67, offset: 0x46BD6, size: 0x8, addend: 0x0, symName: '__ZNSt3__110__function12__alloc_funcIZN5dgrad3dotEPNS2_6TensorES4_E3$_4NS_9allocatorIS5_EEFvvEEC1B8ue170006ERKS5_OS7_', symObjAddr: 0x15D48, symBinAddr: 0x10001DF6C, symSize: 0x3C }
  - { offsetInCU: 0x31AAD, offset: 0x46C1C, size: 0x8, addend: 0x0, symName: '__ZNSt3__110__function12__alloc_funcIZN5dgrad3dotEPNS2_6TensorES4_E3$_4NS_9allocatorIS5_EEFvvEEC2B8ue170006ERKS5_OS7_', symObjAddr: 0x15D84, symBinAddr: 0x10001DFA8, symSize: 0x5C }
  - { offsetInCU: 0x31AF3, offset: 0x46C62, size: 0x8, addend: 0x0, symName: '__ZNSt3__117__compressed_pairIZN5dgrad3dotEPNS1_6TensorES3_E3$_4NS_9allocatorIS4_EEEC1B8ue170006IJRKS4_EJOS6_EEENS_21piecewise_construct_tENS_5tupleIJDpT_EEENSD_IJDpT0_EEE', symObjAddr: 0x15E0C, symBinAddr: 0x10001E030, symSize: 0x3C }
  - { offsetInCU: 0x31B5D, offset: 0x46CCC, size: 0x8, addend: 0x0, symName: '__ZNSt3__15tupleIJRKZN5dgrad3dotEPNS1_6TensorES3_E3$_4EEC1B8ue170006INS_4_AndELi0EEES6_', symObjAddr: 0x15E48, symBinAddr: 0x10001E06C, symSize: 0x34 }
  - { offsetInCU: 0x31BA5, offset: 0x46D14, size: 0x8, addend: 0x0, symName: '__ZNSt3__15tupleIJRKZN5dgrad3dotEPNS1_6TensorES3_E3$_4EEC2B8ue170006INS_4_AndELi0EEES6_', symObjAddr: 0x15E7C, symBinAddr: 0x10001E0A0, symSize: 0x34 }
  - { offsetInCU: 0x31BED, offset: 0x46D5C, size: 0x8, addend: 0x0, symName: '__ZNSt3__112__tuple_implINS_15__tuple_indicesIJLm0EEEEJRKZN5dgrad3dotEPNS3_6TensorES5_E3$_4EEC1B8ue170006IJLm0EEJS8_EJEJEJS8_EEENS1_IJXspT_EEEENS_13__tuple_typesIJDpT0_EEENS1_IJXspT1_EEEENSC_IJDpT2_EEEDpOT3_', symObjAddr: 0x15EB0, symBinAddr: 0x10001E0D4, symSize: 0x34 }
  - { offsetInCU: 0x31C7E, offset: 0x46DED, size: 0x8, addend: 0x0, symName: '__ZNSt3__112__tuple_implINS_15__tuple_indicesIJLm0EEEEJRKZN5dgrad3dotEPNS3_6TensorES5_E3$_4EEC2B8ue170006IJLm0EEJS8_EJEJEJS8_EEENS1_IJXspT_EEEENS_13__tuple_typesIJDpT0_EEENS1_IJXspT1_EEEENSC_IJDpT2_EEEDpOT3_', symObjAddr: 0x15EE4, symBinAddr: 0x10001E108, symSize: 0x34 }
  - { offsetInCU: 0x31D0F, offset: 0x46E7E, size: 0x8, addend: 0x0, symName: '__ZNSt3__112__tuple_leafILm0ERKZN5dgrad3dotEPNS1_6TensorES3_E3$_4Lb0EEC2B8ue170006IS6_vEEOT_', symObjAddr: 0x15F18, symBinAddr: 0x10001E13C, symSize: 0x20 }
  - { offsetInCU: 0x31D52, offset: 0x46EC1, size: 0x8, addend: 0x0, symName: '__ZNSt3__117__compressed_pairIZN5dgrad3dotEPNS1_6TensorES3_E3$_4NS_9allocatorIS4_EEEC2B8ue170006IJRKS4_EJOS6_EEENS_21piecewise_construct_tENS_5tupleIJDpT_EEENSD_IJDpT0_EEE', symObjAddr: 0x15F38, symBinAddr: 0x10001E15C, symSize: 0x54 }
  - { offsetInCU: 0x31DBC, offset: 0x46F2B, size: 0x8, addend: 0x0, symName: '__ZNSt3__122__compressed_pair_elemIZN5dgrad3dotEPNS1_6TensorES3_E3$_4Li0ELb0EEC2B8ue170006IJRKS4_EJLm0EEEENS_21piecewise_construct_tENS_5tupleIJDpT_EEENS_15__tuple_indicesIJXspT0_EEEE', symObjAddr: 0x15F8C, symBinAddr: 0x10001E1B0, symSize: 0x4C }
  - { offsetInCU: 0x31E1F, offset: 0x46F8E, size: 0x8, addend: 0x0, symName: '__ZNSt3__112__tuple_leafILm0ERKZN5dgrad3dotEPNS1_6TensorES3_E3$_4Lb0EE3getB8ue170006Ev', symObjAddr: 0x15FFC, symBinAddr: 0x10001E220, symSize: 0x18 }
  - { offsetInCU: 0x31E45, offset: 0x46FB4, size: 0x8, addend: 0x0, symName: '__ZNSt3__117__compressed_pairIPNS_10__function6__funcIZN5dgrad3dotEPNS3_6TensorES5_E3$_4NS_9allocatorIS6_EEFvvEEENS_22__allocator_destructorINS7_ISA_EEEEE5firstB8ue170006Ev', symObjAddr: 0x16014, symBinAddr: 0x10001E238, symSize: 0x24 }
  - { offsetInCU: 0x31E6B, offset: 0x46FDA, size: 0x8, addend: 0x0, symName: '__ZNSt3__122__compressed_pair_elemIPNS_10__function6__funcIZN5dgrad3dotEPNS3_6TensorES5_E3$_4NS_9allocatorIS6_EEFvvEEELi0ELb0EE5__getB8ue170006Ev', symObjAddr: 0x16038, symBinAddr: 0x10001E25C, symSize: 0x14 }
  - { offsetInCU: 0x31E91, offset: 0x47000, size: 0x8, addend: 0x0, symName: '__ZNSt3__110unique_ptrINS_10__function6__funcIZN5dgrad3dotEPNS3_6TensorES5_E3$_4NS_9allocatorIS6_EEFvvEEENS_22__allocator_destructorINS7_ISA_EEEEED2B8ue170006Ev', symObjAddr: 0x1604C, symBinAddr: 0x10001E270, symSize: 0x30 }
  - { offsetInCU: 0x31EBB, offset: 0x4702A, size: 0x8, addend: 0x0, symName: '__ZNSt3__110unique_ptrINS_10__function6__funcIZN5dgrad3dotEPNS3_6TensorES5_E3$_4NS_9allocatorIS6_EEFvvEEENS_22__allocator_destructorINS7_ISA_EEEEE5resetB8ue170006EPSA_', symObjAddr: 0x1607C, symBinAddr: 0x10001E2A0, symSize: 0x78 }
  - { offsetInCU: 0x31EFF, offset: 0x4706E, size: 0x8, addend: 0x0, symName: '__ZNSt3__117__compressed_pairIPNS_10__function6__funcIZN5dgrad3dotEPNS3_6TensorES5_E3$_4NS_9allocatorIS6_EEFvvEEENS_22__allocator_destructorINS7_ISA_EEEEE6secondB8ue170006Ev', symObjAddr: 0x160F4, symBinAddr: 0x10001E318, symSize: 0x28 }
  - { offsetInCU: 0x31F25, offset: 0x47094, size: 0x8, addend: 0x0, symName: '__ZNSt3__122__allocator_destructorINS_9allocatorINS_10__function6__funcIZN5dgrad3dotEPNS4_6TensorES6_E3$_4NS1_IS7_EEFvvEEEEEEclB8ue170006EPSA_', symObjAddr: 0x1611C, symBinAddr: 0x10001E340, symSize: 0x34 }
  - { offsetInCU: 0x31F59, offset: 0x470C8, size: 0x8, addend: 0x0, symName: '__ZNSt3__122__compressed_pair_elemINS_22__allocator_destructorINS_9allocatorINS_10__function6__funcIZN5dgrad3dotEPNS5_6TensorES7_E3$_4NS2_IS8_EEFvvEEEEEEELi1ELb0EE5__getB8ue170006Ev', symObjAddr: 0x16150, symBinAddr: 0x10001E374, symSize: 0x14 }
  - { offsetInCU: 0x31F7F, offset: 0x470EE, size: 0x8, addend: 0x0, symName: '__ZNSt3__116allocator_traitsINS_9allocatorINS_10__function6__funcIZN5dgrad3dotEPNS4_6TensorES6_E3$_4NS1_IS7_EEFvvEEEEEE10deallocateB8ue170006ERSB_PSA_m', symObjAddr: 0x16164, symBinAddr: 0x10001E388, symSize: 0x34 }
  - { offsetInCU: 0x31FC1, offset: 0x47130, size: 0x8, addend: 0x0, symName: '__ZNSt3__19allocatorINS_10__function6__funcIZN5dgrad3dotEPNS3_6TensorES5_E3$_4NS0_IS6_EEFvvEEEE10deallocateB8ue170006EPS9_m', symObjAddr: 0x16198, symBinAddr: 0x10001E3BC, symSize: 0x40 }
  - { offsetInCU: 0x32003, offset: 0x47172, size: 0x8, addend: 0x0, symName: '__ZNSt3__110__function6__funcIZN5dgrad3dotEPNS2_6TensorES4_E3$_4NS_9allocatorIS5_EEFvvEEC1B8ue170006ERKS5_RKS7_', symObjAddr: 0x161D8, symBinAddr: 0x10001E3FC, symSize: 0x3C }
  - { offsetInCU: 0x3204B, offset: 0x471BA, size: 0x8, addend: 0x0, symName: '__ZNSt3__110__function6__funcIZN5dgrad3dotEPNS2_6TensorES4_E3$_4NS_9allocatorIS5_EEFvvEEC2B8ue170006ERKS5_RKS7_', symObjAddr: 0x16214, symBinAddr: 0x10001E438, symSize: 0x88 }
  - { offsetInCU: 0x32093, offset: 0x47202, size: 0x8, addend: 0x0, symName: '__ZNSt3__110__function12__alloc_funcIZN5dgrad3dotEPNS2_6TensorES4_E3$_4NS_9allocatorIS5_EEFvvEEC1B8ue170006ERKS5_RKS7_', symObjAddr: 0x1629C, symBinAddr: 0x10001E4C0, symSize: 0x3C }
  - { offsetInCU: 0x320D9, offset: 0x47248, size: 0x8, addend: 0x0, symName: '__ZNSt3__110__function12__alloc_funcIZN5dgrad3dotEPNS2_6TensorES4_E3$_4NS_9allocatorIS5_EEFvvEEC2B8ue170006ERKS5_RKS7_', symObjAddr: 0x162D8, symBinAddr: 0x10001E4FC, symSize: 0x5C }
  - { offsetInCU: 0x3211F, offset: 0x4728E, size: 0x8, addend: 0x0, symName: '__ZNSt3__117__compressed_pairIZN5dgrad3dotEPNS1_6TensorES3_E3$_4NS_9allocatorIS4_EEEC1B8ue170006IJRKS4_EJRKS6_EEENS_21piecewise_construct_tENS_5tupleIJDpT_EEENSE_IJDpT0_EEE', symObjAddr: 0x16360, symBinAddr: 0x10001E584, symSize: 0x3C }
  - { offsetInCU: 0x32189, offset: 0x472F8, size: 0x8, addend: 0x0, symName: '__ZNSt3__15tupleIJRKNS_9allocatorIZN5dgrad3dotEPNS2_6TensorES4_E3$_4EEEEC1B8ue170006INS_4_AndELi0EEES8_', symObjAddr: 0x1639C, symBinAddr: 0x10001E5C0, symSize: 0x34 }
  - { offsetInCU: 0x321D1, offset: 0x47340, size: 0x8, addend: 0x0, symName: '__ZNSt3__15tupleIJRKNS_9allocatorIZN5dgrad3dotEPNS2_6TensorES4_E3$_4EEEEC2B8ue170006INS_4_AndELi0EEES8_', symObjAddr: 0x163D0, symBinAddr: 0x10001E5F4, symSize: 0x34 }
  - { offsetInCU: 0x32219, offset: 0x47388, size: 0x8, addend: 0x0, symName: '__ZNSt3__112__tuple_implINS_15__tuple_indicesIJLm0EEEEJRKNS_9allocatorIZN5dgrad3dotEPNS4_6TensorES6_E3$_4EEEEC1B8ue170006IJLm0EEJSA_EJEJEJSA_EEENS1_IJXspT_EEEENS_13__tuple_typesIJDpT0_EEENS1_IJXspT1_EEEENSE_IJDpT2_EEEDpOT3_', symObjAddr: 0x16404, symBinAddr: 0x10001E628, symSize: 0x34 }
  - { offsetInCU: 0x322AA, offset: 0x47419, size: 0x8, addend: 0x0, symName: '__ZNSt3__112__tuple_implINS_15__tuple_indicesIJLm0EEEEJRKNS_9allocatorIZN5dgrad3dotEPNS4_6TensorES6_E3$_4EEEEC2B8ue170006IJLm0EEJSA_EJEJEJSA_EEENS1_IJXspT_EEEENS_13__tuple_typesIJDpT0_EEENS1_IJXspT1_EEEENSE_IJDpT2_EEEDpOT3_', symObjAddr: 0x16438, symBinAddr: 0x10001E65C, symSize: 0x34 }
  - { offsetInCU: 0x3233B, offset: 0x474AA, size: 0x8, addend: 0x0, symName: '__ZNSt3__112__tuple_leafILm0ERKNS_9allocatorIZN5dgrad3dotEPNS2_6TensorES4_E3$_4EELb0EEC2B8ue170006IS8_vEEOT_', symObjAddr: 0x1646C, symBinAddr: 0x10001E690, symSize: 0x20 }
  - { offsetInCU: 0x3237E, offset: 0x474ED, size: 0x8, addend: 0x0, symName: '__ZNSt3__117__compressed_pairIZN5dgrad3dotEPNS1_6TensorES3_E3$_4NS_9allocatorIS4_EEEC2B8ue170006IJRKS4_EJRKS6_EEENS_21piecewise_construct_tENS_5tupleIJDpT_EEENSE_IJDpT0_EEE', symObjAddr: 0x1648C, symBinAddr: 0x10001E6B0, symSize: 0x54 }
  - { offsetInCU: 0x323E8, offset: 0x47557, size: 0x8, addend: 0x0, symName: '__ZNSt3__122__compressed_pair_elemINS_9allocatorIZN5dgrad3dotEPNS2_6TensorES4_E3$_4EELi1ELb1EEC2B8ue170006IJRKS6_EJLm0EEEENS_21piecewise_construct_tENS_5tupleIJDpT_EEENS_15__tuple_indicesIJXspT0_EEEE', symObjAddr: 0x164E0, symBinAddr: 0x10001E704, symSize: 0x38 }
  - { offsetInCU: 0x3244B, offset: 0x475BA, size: 0x8, addend: 0x0, symName: '__ZNSt3__112__tuple_leafILm0ERKNS_9allocatorIZN5dgrad3dotEPNS2_6TensorES4_E3$_4EELb0EE3getB8ue170006Ev', symObjAddr: 0x1653C, symBinAddr: 0x10001E760, symSize: 0x18 }
  - { offsetInCU: 0x32471, offset: 0x475E0, size: 0x8, addend: 0x0, symName: '__ZNSt3__110__function12__alloc_funcIZN5dgrad3dotEPNS2_6TensorES4_E3$_4NS_9allocatorIS5_EEFvvEE7destroyB8ue170006Ev', symObjAddr: 0x16554, symBinAddr: 0x10001E778, symSize: 0x10 }
  - { offsetInCU: 0x32497, offset: 0x47606, size: 0x8, addend: 0x0, symName: '__ZNSt3__110__function12__alloc_funcIZN5dgrad3dotEPNS2_6TensorES4_E3$_4NS_9allocatorIS5_EEFvvEEclB8ue170006Ev', symObjAddr: 0x16564, symBinAddr: 0x10001E788, symSize: 0x28 }
  - { offsetInCU: 0x324BD, offset: 0x4762C, size: 0x8, addend: 0x0, symName: '__ZNSt3__128__invoke_void_return_wrapperIvLb1EE6__callB8ue170006IJRZN5dgrad3dotEPNS3_6TensorES5_E3$_4EEEvDpOT_', symObjAddr: 0x1658C, symBinAddr: 0x10001E7B0, symSize: 0x24 }
  - { offsetInCU: 0x324EC, offset: 0x4765B, size: 0x8, addend: 0x0, symName: '__ZNSt3__117__compressed_pairIZN5dgrad3dotEPNS1_6TensorES3_E3$_4NS_9allocatorIS4_EEE5firstB8ue170006Ev', symObjAddr: 0x165B0, symBinAddr: 0x10001E7D4, symSize: 0x24 }
  - { offsetInCU: 0x32517, offset: 0x47686, size: 0x8, addend: 0x0, symName: '__ZZN5dgrad3dotEPNS_6TensorES1_ENK3$_4clEv', symObjAddr: 0x165F8, symBinAddr: 0x10001E81C, symSize: 0x120 }
  - { offsetInCU: 0x3255D, offset: 0x476CC, size: 0x8, addend: 0x0, symName: '__ZNSt3__122__compressed_pair_elemIZN5dgrad3dotEPNS1_6TensorES3_E3$_4Li0ELb0EE5__getB8ue170006Ev', symObjAddr: 0x16718, symBinAddr: 0x10001E93C, symSize: 0x14 }
  - { offsetInCU: 0x32583, offset: 0x476F2, size: 0x8, addend: 0x0, symName: '__ZNSt3__110unique_ptrINS_10__function6__baseIFvvEEENS_22__allocator_destructorINS_9allocatorINS1_6__funcIZN5dgrad3dotEPNS8_6TensorESA_E3$_4NS6_ISB_EES3_EEEEEEED2B8ue170006Ev', symObjAddr: 0x1672C, symBinAddr: 0x10001E950, symSize: 0x30 }
  - { offsetInCU: 0x325AD, offset: 0x4771C, size: 0x8, addend: 0x0, symName: '__ZNSt3__110unique_ptrINS_10__function6__baseIFvvEEENS_22__allocator_destructorINS_9allocatorINS1_6__funcIZN5dgrad3dotEPNS8_6TensorESA_E3$_4NS6_ISB_EES3_EEEEEEE5resetB8ue170006EPSD_', symObjAddr: 0x1675C, symBinAddr: 0x10001E980, symSize: 0x78 }
  - { offsetInCU: 0x325F1, offset: 0x47760, size: 0x8, addend: 0x0, symName: '__ZZN5dgrad3expEPNS_6TensorEEN3$_5C1EOS2_', symObjAddr: 0x167D4, symBinAddr: 0x10001E9F8, symSize: 0x34 }
  - { offsetInCU: 0x32626, offset: 0x47795, size: 0x8, addend: 0x0, symName: '__ZNSt3__18functionIFvvEEC1IZN5dgrad3expEPNS4_6TensorEE3$_5vEET_', symObjAddr: 0x16808, symBinAddr: 0x10001EA2C, symSize: 0x34 }
  - { offsetInCU: 0x3266C, offset: 0x477DB, size: 0x8, addend: 0x0, symName: '__ZZN5dgrad3expEPNS_6TensorEEN3$_5C2EOS2_', symObjAddr: 0x1683C, symBinAddr: 0x10001EA60, symSize: 0x54 }
  - { offsetInCU: 0x326A1, offset: 0x47810, size: 0x8, addend: 0x0, symName: '__ZNSt3__18functionIFvvEEC2IZN5dgrad3expEPNS4_6TensorEE3$_5vEET_', symObjAddr: 0x16890, symBinAddr: 0x10001EAB4, symSize: 0x34 }
  - { offsetInCU: 0x326E7, offset: 0x47856, size: 0x8, addend: 0x0, symName: '__ZNSt3__110__function12__value_funcIFvvEEC1B8ue170006IZN5dgrad3expEPNS5_6TensorEE3$_5vEEOT_', symObjAddr: 0x168C4, symBinAddr: 0x10001EAE8, symSize: 0x50 }
  - { offsetInCU: 0x3272A, offset: 0x47899, size: 0x8, addend: 0x0, symName: '__ZNSt3__19allocatorIZN5dgrad3expEPNS1_6TensorEE3$_5EC1B8ue170006Ev', symObjAddr: 0x16914, symBinAddr: 0x10001EB38, symSize: 0x2C }
  - { offsetInCU: 0x32754, offset: 0x478C3, size: 0x8, addend: 0x0, symName: '__ZNSt3__110__function12__value_funcIFvvEEC1B8ue170006IZN5dgrad3expEPNS5_6TensorEE3$_5NS_9allocatorIS8_EEEEOT_RKT0_', symObjAddr: 0x16940, symBinAddr: 0x10001EB64, symSize: 0x3C }
  - { offsetInCU: 0x327AE, offset: 0x4791D, size: 0x8, addend: 0x0, symName: '__ZNSt3__19allocatorIZN5dgrad3expEPNS1_6TensorEE3$_5EC2B8ue170006Ev', symObjAddr: 0x1697C, symBinAddr: 0x10001EBA0, symSize: 0x2C }
  - { offsetInCU: 0x327D8, offset: 0x47947, size: 0x8, addend: 0x0, symName: '__ZNSt3__116__non_trivial_ifILb1ENS_9allocatorIZN5dgrad3expEPNS2_6TensorEE3$_5EEEC2B8ue170006Ev', symObjAddr: 0x169A8, symBinAddr: 0x10001EBCC, symSize: 0x14 }
  - { offsetInCU: 0x32802, offset: 0x47971, size: 0x8, addend: 0x0, symName: '__ZNSt3__110__function12__value_funcIFvvEEC2B8ue170006IZN5dgrad3expEPNS5_6TensorEE3$_5NS_9allocatorIS8_EEEEOT_RKT0_', symObjAddr: 0x169BC, symBinAddr: 0x10001EBE0, symSize: 0xF4 }
  - { offsetInCU: 0x328B5, offset: 0x47A24, size: 0x8, addend: 0x0, symName: '__ZNSt3__19allocatorINS_10__function6__funcIZN5dgrad3expEPNS3_6TensorEE3$_5NS0_IS6_EEFvvEEEEC1B8ue170006IS6_EERKNS0_IT_EE', symObjAddr: 0x16AC8, symBinAddr: 0x10001ECEC, symSize: 0x34 }
  - { offsetInCU: 0x328F2, offset: 0x47A61, size: 0x8, addend: 0x0, symName: '__ZNSt3__19allocatorINS_10__function6__funcIZN5dgrad3expEPNS3_6TensorEE3$_5NS0_IS6_EEFvvEEEE8allocateB8ue170006Em', symObjAddr: 0x16AFC, symBinAddr: 0x10001ED20, symSize: 0x5C }
  - { offsetInCU: 0x32935, offset: 0x47AA4, size: 0x8, addend: 0x0, symName: '__ZNSt3__122__allocator_destructorINS_9allocatorINS_10__function6__funcIZN5dgrad3expEPNS4_6TensorEE3$_5NS1_IS7_EEFvvEEEEEEC1B8ue170006ERSB_m', symObjAddr: 0x16B58, symBinAddr: 0x10001ED7C, symSize: 0x3C }
  - { offsetInCU: 0x32A09, offset: 0x47B78, size: 0x8, addend: 0x0, symName: '__ZNSt3__110unique_ptrINS_10__function6__baseIFvvEEENS_22__allocator_destructorINS_9allocatorINS1_6__funcIZN5dgrad3expEPNS8_6TensorEE3$_5NS6_ISB_EES3_EEEEEEEC1B8ue170006ILb1EvEEPSD_NS_16__dependent_typeINS_27__unique_ptr_deleter_sfinaeISF_EEXT_EE20__good_rval_ref_typeE', symObjAddr: 0x16B94, symBinAddr: 0x10001EDB8, symSize: 0x3C }
  - { offsetInCU: 0x32A5A, offset: 0x47BC9, size: 0x8, addend: 0x0, symName: '__ZNKSt3__110unique_ptrINS_10__function6__baseIFvvEEENS_22__allocator_destructorINS_9allocatorINS1_6__funcIZN5dgrad3expEPNS8_6TensorEE3$_5NS6_ISB_EES3_EEEEEEE3getB8ue170006Ev', symObjAddr: 0x16BD0, symBinAddr: 0x10001EDF4, symSize: 0x28 }
  - { offsetInCU: 0x32A80, offset: 0x47BEF, size: 0x8, addend: 0x0, symName: '__ZNSt3__110__function6__funcIZN5dgrad3expEPNS2_6TensorEE3$_5NS_9allocatorIS5_EEFvvEEC1B8ue170006EOS5_OS7_', symObjAddr: 0x16BF8, symBinAddr: 0x10001EE1C, symSize: 0x3C }
  - { offsetInCU: 0x32AC8, offset: 0x47C37, size: 0x8, addend: 0x0, symName: '__ZNSt3__110unique_ptrINS_10__function6__baseIFvvEEENS_22__allocator_destructorINS_9allocatorINS1_6__funcIZN5dgrad3expEPNS8_6TensorEE3$_5NS6_ISB_EES3_EEEEEEE7releaseB8ue170006Ev', symObjAddr: 0x16C34, symBinAddr: 0x10001EE58, symSize: 0x44 }
  - { offsetInCU: 0x32AFD, offset: 0x47C6C, size: 0x8, addend: 0x0, symName: '__ZNSt3__110unique_ptrINS_10__function6__baseIFvvEEENS_22__allocator_destructorINS_9allocatorINS1_6__funcIZN5dgrad3expEPNS8_6TensorEE3$_5NS6_ISB_EES3_EEEEEEED1B8ue170006Ev', symObjAddr: 0x16C78, symBinAddr: 0x10001EE9C, symSize: 0x2C }
  - { offsetInCU: 0x32B27, offset: 0x47C96, size: 0x8, addend: 0x0, symName: '__ZNSt3__19allocatorINS_10__function6__funcIZN5dgrad3expEPNS3_6TensorEE3$_5NS0_IS6_EEFvvEEEEC2B8ue170006IS6_EERKNS0_IT_EE', symObjAddr: 0x16CA4, symBinAddr: 0x10001EEC8, symSize: 0x30 }
  - { offsetInCU: 0x32B64, offset: 0x47CD3, size: 0x8, addend: 0x0, symName: '__ZNSt3__116__non_trivial_ifILb1ENS_9allocatorINS_10__function6__funcIZN5dgrad3expEPNS4_6TensorEE3$_5NS1_IS7_EEFvvEEEEEEC2B8ue170006Ev', symObjAddr: 0x16CD4, symBinAddr: 0x10001EEF8, symSize: 0x14 }
  - { offsetInCU: 0x32B98, offset: 0x47D07, size: 0x8, addend: 0x0, symName: '__ZNSt3__116allocator_traitsINS_9allocatorINS_10__function6__funcIZN5dgrad3expEPNS4_6TensorEE3$_5NS1_IS7_EEFvvEEEEEE8max_sizeB8ue170006ISB_vEEmRKSB_', symObjAddr: 0x16CE8, symBinAddr: 0x10001EF0C, symSize: 0x24 }
  - { offsetInCU: 0x32BC6, offset: 0x47D35, size: 0x8, addend: 0x0, symName: '__ZNKSt3__19allocatorINS_10__function6__funcIZN5dgrad3expEPNS3_6TensorEE3$_5NS0_IS6_EEFvvEEEE8max_sizeB8ue170006Ev', symObjAddr: 0x16D0C, symBinAddr: 0x10001EF30, symSize: 0x20 }
  - { offsetInCU: 0x32BEC, offset: 0x47D5B, size: 0x8, addend: 0x0, symName: '__ZNSt3__122__allocator_destructorINS_9allocatorINS_10__function6__funcIZN5dgrad3expEPNS4_6TensorEE3$_5NS1_IS7_EEFvvEEEEEEC2B8ue170006ERSB_m', symObjAddr: 0x16D2C, symBinAddr: 0x10001EF50, symSize: 0x2C }
  - { offsetInCU: 0x32C32, offset: 0x47DA1, size: 0x8, addend: 0x0, symName: '__ZNSt3__110unique_ptrINS_10__function6__baseIFvvEEENS_22__allocator_destructorINS_9allocatorINS1_6__funcIZN5dgrad3expEPNS8_6TensorEE3$_5NS6_ISB_EES3_EEEEEEEC2B8ue170006ILb1EvEEPSD_NS_16__dependent_typeINS_27__unique_ptr_deleter_sfinaeISF_EEXT_EE20__good_rval_ref_typeE', symObjAddr: 0x16D58, symBinAddr: 0x10001EF7C, symSize: 0x48 }
  - { offsetInCU: 0x32C83, offset: 0x47DF2, size: 0x8, addend: 0x0, symName: '__ZNSt3__117__compressed_pairIPNS_10__function6__funcIZN5dgrad3expEPNS3_6TensorEE3$_5NS_9allocatorIS6_EEFvvEEENS_22__allocator_destructorINS7_ISA_EEEEEC1B8ue170006IRSB_SE_EEOT_OT0_', symObjAddr: 0x16DA0, symBinAddr: 0x10001EFC4, symSize: 0x3C }
  - { offsetInCU: 0x32CDB, offset: 0x47E4A, size: 0x8, addend: 0x0, symName: '__ZNSt3__117__compressed_pairIPNS_10__function6__funcIZN5dgrad3expEPNS3_6TensorEE3$_5NS_9allocatorIS6_EEFvvEEENS_22__allocator_destructorINS7_ISA_EEEEEC2B8ue170006IRSB_SE_EEOT_OT0_', symObjAddr: 0x16DDC, symBinAddr: 0x10001F000, symSize: 0x48 }
  - { offsetInCU: 0x32D33, offset: 0x47EA2, size: 0x8, addend: 0x0, symName: '__ZNSt3__122__compressed_pair_elemIPNS_10__function6__funcIZN5dgrad3expEPNS3_6TensorEE3$_5NS_9allocatorIS6_EEFvvEEELi0ELb0EEC2B8ue170006IRSB_vEEOT_', symObjAddr: 0x16E24, symBinAddr: 0x10001F048, symSize: 0x24 }
  - { offsetInCU: 0x32D75, offset: 0x47EE4, size: 0x8, addend: 0x0, symName: '__ZNSt3__122__compressed_pair_elemINS_22__allocator_destructorINS_9allocatorINS_10__function6__funcIZN5dgrad3expEPNS5_6TensorEE3$_5NS2_IS8_EEFvvEEEEEEELi1ELb0EEC2B8ue170006ISD_vEEOT_', symObjAddr: 0x16E48, symBinAddr: 0x10001F06C, symSize: 0x24 }
  - { offsetInCU: 0x32DB7, offset: 0x47F26, size: 0x8, addend: 0x0, symName: '__ZNKSt3__117__compressed_pairIPNS_10__function6__funcIZN5dgrad3expEPNS3_6TensorEE3$_5NS_9allocatorIS6_EEFvvEEENS_22__allocator_destructorINS7_ISA_EEEEE5firstB8ue170006Ev', symObjAddr: 0x16E6C, symBinAddr: 0x10001F090, symSize: 0x24 }
  - { offsetInCU: 0x32DDD, offset: 0x47F4C, size: 0x8, addend: 0x0, symName: '__ZNKSt3__122__compressed_pair_elemIPNS_10__function6__funcIZN5dgrad3expEPNS3_6TensorEE3$_5NS_9allocatorIS6_EEFvvEEELi0ELb0EE5__getB8ue170006Ev', symObjAddr: 0x16E90, symBinAddr: 0x10001F0B4, symSize: 0x14 }
  - { offsetInCU: 0x32E03, offset: 0x47F72, size: 0x8, addend: 0x0, symName: '__ZNSt3__110__function6__funcIZN5dgrad3expEPNS2_6TensorEE3$_5NS_9allocatorIS5_EEFvvEEC2B8ue170006EOS5_OS7_', symObjAddr: 0x16EA4, symBinAddr: 0x10001F0C8, symSize: 0x88 }
  - { offsetInCU: 0x32E4B, offset: 0x47FBA, size: 0x8, addend: 0x0, symName: '__ZNSt3__110__function12__alloc_funcIZN5dgrad3expEPNS2_6TensorEE3$_5NS_9allocatorIS5_EEFvvEEC1B8ue170006EOS5_OS7_', symObjAddr: 0x16F2C, symBinAddr: 0x10001F150, symSize: 0x3C }
  - { offsetInCU: 0x32E91, offset: 0x48000, size: 0x8, addend: 0x0, symName: '__ZNSt3__110__function6__funcIZN5dgrad3expEPNS2_6TensorEE3$_5NS_9allocatorIS5_EEFvvEED1Ev', symObjAddr: 0x16F68, symBinAddr: 0x10001F18C, symSize: 0x2C }
  - { offsetInCU: 0x32EBE, offset: 0x4802D, size: 0x8, addend: 0x0, symName: '__ZNSt3__110__function6__funcIZN5dgrad3expEPNS2_6TensorEE3$_5NS_9allocatorIS5_EEFvvEED0Ev', symObjAddr: 0x16F94, symBinAddr: 0x10001F1B8, symSize: 0x30 }
  - { offsetInCU: 0x32EEB, offset: 0x4805A, size: 0x8, addend: 0x0, symName: '__ZNKSt3__110__function6__funcIZN5dgrad3expEPNS2_6TensorEE3$_5NS_9allocatorIS5_EEFvvEE7__cloneEv', symObjAddr: 0x16FC4, symBinAddr: 0x10001F1E8, symSize: 0xFC }
  - { offsetInCU: 0x32F3D, offset: 0x480AC, size: 0x8, addend: 0x0, symName: '__ZNKSt3__110__function6__funcIZN5dgrad3expEPNS2_6TensorEE3$_5NS_9allocatorIS5_EEFvvEE7__cloneEPNS0_6__baseIS8_EE', symObjAddr: 0x170C0, symBinAddr: 0x10001F2E4, symSize: 0x58 }
  - { offsetInCU: 0x32F74, offset: 0x480E3, size: 0x8, addend: 0x0, symName: '__ZNSt3__110__function6__funcIZN5dgrad3expEPNS2_6TensorEE3$_5NS_9allocatorIS5_EEFvvEE7destroyEv', symObjAddr: 0x17118, symBinAddr: 0x10001F33C, symSize: 0x28 }
  - { offsetInCU: 0x32F9C, offset: 0x4810B, size: 0x8, addend: 0x0, symName: '__ZNSt3__110__function6__funcIZN5dgrad3expEPNS2_6TensorEE3$_5NS_9allocatorIS5_EEFvvEE18destroy_deallocateEv', symObjAddr: 0x17140, symBinAddr: 0x10001F364, symSize: 0x58 }
  - { offsetInCU: 0x32FDF, offset: 0x4814E, size: 0x8, addend: 0x0, symName: '__ZNSt3__110__function6__funcIZN5dgrad3expEPNS2_6TensorEE3$_5NS_9allocatorIS5_EEFvvEEclEv', symObjAddr: 0x17198, symBinAddr: 0x10001F3BC, symSize: 0x28 }
  - { offsetInCU: 0x33007, offset: 0x48176, size: 0x8, addend: 0x0, symName: '__ZNKSt3__110__function6__funcIZN5dgrad3expEPNS2_6TensorEE3$_5NS_9allocatorIS5_EEFvvEE6targetERKSt9type_info', symObjAddr: 0x171C0, symBinAddr: 0x10001F3E4, symSize: 0x60 }
  - { offsetInCU: 0x3303E, offset: 0x481AD, size: 0x8, addend: 0x0, symName: '__ZNKSt3__110__function6__funcIZN5dgrad3expEPNS2_6TensorEE3$_5NS_9allocatorIS5_EEFvvEE11target_typeEv', symObjAddr: 0x17220, symBinAddr: 0x10001F444, symSize: 0x18 }
  - { offsetInCU: 0x33066, offset: 0x481D5, size: 0x8, addend: 0x0, symName: '__ZNSt3__110__function12__alloc_funcIZN5dgrad3expEPNS2_6TensorEE3$_5NS_9allocatorIS5_EEFvvEEC2B8ue170006EOS5_OS7_', symObjAddr: 0x17238, symBinAddr: 0x10001F45C, symSize: 0x5C }
  - { offsetInCU: 0x330AC, offset: 0x4821B, size: 0x8, addend: 0x0, symName: '__ZNSt3__117__compressed_pairIZN5dgrad3expEPNS1_6TensorEE3$_5NS_9allocatorIS4_EEEC1B8ue170006IJOS4_EJOS6_EEENS_21piecewise_construct_tENS_5tupleIJDpT_EEENSC_IJDpT0_EEE', symObjAddr: 0x172EC, symBinAddr: 0x10001F510, symSize: 0x3C }
  - { offsetInCU: 0x33116, offset: 0x48285, size: 0x8, addend: 0x0, symName: '__ZNSt3__15tupleIJOZN5dgrad3expEPNS1_6TensorEE3$_5EEC1B8ue170006IJS4_ELi0EEEDpOT_', symObjAddr: 0x17328, symBinAddr: 0x10001F54C, symSize: 0x34 }
  - { offsetInCU: 0x33160, offset: 0x482CF, size: 0x8, addend: 0x0, symName: '__ZNSt3__15tupleIJOZN5dgrad3expEPNS1_6TensorEE3$_5EEC2B8ue170006IJS4_ELi0EEEDpOT_', symObjAddr: 0x1735C, symBinAddr: 0x10001F580, symSize: 0x34 }
  - { offsetInCU: 0x331AA, offset: 0x48319, size: 0x8, addend: 0x0, symName: '__ZNSt3__112__tuple_implINS_15__tuple_indicesIJLm0EEEEJOZN5dgrad3expEPNS3_6TensorEE3$_5EEC1B8ue170006IJLm0EEJS7_EJEJEJS6_EEENS1_IJXspT_EEEENS_13__tuple_typesIJDpT0_EEENS1_IJXspT1_EEEENSB_IJDpT2_EEEDpOT3_', symObjAddr: 0x17390, symBinAddr: 0x10001F5B4, symSize: 0x34 }
  - { offsetInCU: 0x3323B, offset: 0x483AA, size: 0x8, addend: 0x0, symName: '__ZNSt3__112__tuple_implINS_15__tuple_indicesIJLm0EEEEJOZN5dgrad3expEPNS3_6TensorEE3$_5EEC2B8ue170006IJLm0EEJS7_EJEJEJS6_EEENS1_IJXspT_EEEENS_13__tuple_typesIJDpT0_EEENS1_IJXspT1_EEEENSB_IJDpT2_EEEDpOT3_', symObjAddr: 0x173C4, symBinAddr: 0x10001F5E8, symSize: 0x34 }
  - { offsetInCU: 0x332CC, offset: 0x4843B, size: 0x8, addend: 0x0, symName: '__ZNSt3__112__tuple_leafILm0EOZN5dgrad3expEPNS1_6TensorEE3$_5Lb0EEC2B8ue170006IS4_vEEOT_', symObjAddr: 0x173F8, symBinAddr: 0x10001F61C, symSize: 0x20 }
  - { offsetInCU: 0x3330F, offset: 0x4847E, size: 0x8, addend: 0x0, symName: '__ZNSt3__15tupleIJONS_9allocatorIZN5dgrad3expEPNS2_6TensorEE3$_5EEEEC1B8ue170006IJS6_ELi0EEEDpOT_', symObjAddr: 0x17418, symBinAddr: 0x10001F63C, symSize: 0x34 }
  - { offsetInCU: 0x33359, offset: 0x484C8, size: 0x8, addend: 0x0, symName: '__ZNSt3__15tupleIJONS_9allocatorIZN5dgrad3expEPNS2_6TensorEE3$_5EEEEC2B8ue170006IJS6_ELi0EEEDpOT_', symObjAddr: 0x1744C, symBinAddr: 0x10001F670, symSize: 0x34 }
  - { offsetInCU: 0x333A3, offset: 0x48512, size: 0x8, addend: 0x0, symName: '__ZNSt3__112__tuple_implINS_15__tuple_indicesIJLm0EEEEJONS_9allocatorIZN5dgrad3expEPNS4_6TensorEE3$_5EEEEC1B8ue170006IJLm0EEJS9_EJEJEJS8_EEENS1_IJXspT_EEEENS_13__tuple_typesIJDpT0_EEENS1_IJXspT1_EEEENSD_IJDpT2_EEEDpOT3_', symObjAddr: 0x17480, symBinAddr: 0x10001F6A4, symSize: 0x34 }
  - { offsetInCU: 0x33434, offset: 0x485A3, size: 0x8, addend: 0x0, symName: '__ZNSt3__112__tuple_implINS_15__tuple_indicesIJLm0EEEEJONS_9allocatorIZN5dgrad3expEPNS4_6TensorEE3$_5EEEEC2B8ue170006IJLm0EEJS9_EJEJEJS8_EEENS1_IJXspT_EEEENS_13__tuple_typesIJDpT0_EEENS1_IJXspT1_EEEENSD_IJDpT2_EEEDpOT3_', symObjAddr: 0x174B4, symBinAddr: 0x10001F6D8, symSize: 0x34 }
  - { offsetInCU: 0x334C5, offset: 0x48634, size: 0x8, addend: 0x0, symName: '__ZNSt3__112__tuple_leafILm0EONS_9allocatorIZN5dgrad3expEPNS2_6TensorEE3$_5EELb0EEC2B8ue170006IS6_vEEOT_', symObjAddr: 0x174E8, symBinAddr: 0x10001F70C, symSize: 0x20 }
  - { offsetInCU: 0x33508, offset: 0x48677, size: 0x8, addend: 0x0, symName: '__ZNSt3__117__compressed_pairIZN5dgrad3expEPNS1_6TensorEE3$_5NS_9allocatorIS4_EEEC2B8ue170006IJOS4_EJOS6_EEENS_21piecewise_construct_tENS_5tupleIJDpT_EEENSC_IJDpT0_EEE', symObjAddr: 0x17508, symBinAddr: 0x10001F72C, symSize: 0x7C }
  - { offsetInCU: 0x33572, offset: 0x486E1, size: 0x8, addend: 0x0, symName: '__ZNSt3__122__compressed_pair_elemIZN5dgrad3expEPNS1_6TensorEE3$_5Li0ELb0EEC2B8ue170006IJOS4_EJLm0EEEENS_21piecewise_construct_tENS_5tupleIJDpT_EEENS_15__tuple_indicesIJXspT0_EEEE', symObjAddr: 0x17584, symBinAddr: 0x10001F7A8, symSize: 0x44 }
  - { offsetInCU: 0x335D5, offset: 0x48744, size: 0x8, addend: 0x0, symName: '__ZNSt3__122__compressed_pair_elemINS_9allocatorIZN5dgrad3expEPNS2_6TensorEE3$_5EELi1ELb1EEC2B8ue170006IJOS6_EJLm0EEEENS_21piecewise_construct_tENS_5tupleIJDpT_EEENS_15__tuple_indicesIJXspT0_EEEE', symObjAddr: 0x175C8, symBinAddr: 0x10001F7EC, symSize: 0x38 }
  - { offsetInCU: 0x33638, offset: 0x487A7, size: 0x8, addend: 0x0, symName: '__ZNSt3__122__compressed_pair_elemIZN5dgrad3expEPNS1_6TensorEE3$_5Li0ELb0EED2Ev', symObjAddr: 0x17600, symBinAddr: 0x10001F824, symSize: 0x2C }
  - { offsetInCU: 0x33664, offset: 0x487D3, size: 0x8, addend: 0x0, symName: '__ZNSt3__112__tuple_leafILm0EOZN5dgrad3expEPNS1_6TensorEE3$_5Lb0EE3getB8ue170006Ev', symObjAddr: 0x17650, symBinAddr: 0x10001F874, symSize: 0x18 }
  - { offsetInCU: 0x3368A, offset: 0x487F9, size: 0x8, addend: 0x0, symName: '__ZNSt3__112__tuple_leafILm0EONS_9allocatorIZN5dgrad3expEPNS2_6TensorEE3$_5EELb0EE3getB8ue170006Ev', symObjAddr: 0x1768C, symBinAddr: 0x10001F8B0, symSize: 0x18 }
  - { offsetInCU: 0x336B0, offset: 0x4881F, size: 0x8, addend: 0x0, symName: '__ZNSt3__110__function6__funcIZN5dgrad3expEPNS2_6TensorEE3$_5NS_9allocatorIS5_EEFvvEED2Ev', symObjAddr: 0x176A4, symBinAddr: 0x10001F8C8, symSize: 0x48 }
  - { offsetInCU: 0x336DD, offset: 0x4884C, size: 0x8, addend: 0x0, symName: '__ZNSt3__110__function12__alloc_funcIZN5dgrad3expEPNS2_6TensorEE3$_5NS_9allocatorIS5_EEFvvEED1Ev', symObjAddr: 0x176EC, symBinAddr: 0x10001F910, symSize: 0x2C }
  - { offsetInCU: 0x33709, offset: 0x48878, size: 0x8, addend: 0x0, symName: '__ZNSt3__110__function12__alloc_funcIZN5dgrad3expEPNS2_6TensorEE3$_5NS_9allocatorIS5_EEFvvEED2Ev', symObjAddr: 0x17718, symBinAddr: 0x10001F93C, symSize: 0x2C }
  - { offsetInCU: 0x33735, offset: 0x488A4, size: 0x8, addend: 0x0, symName: '__ZNSt3__117__compressed_pairIZN5dgrad3expEPNS1_6TensorEE3$_5NS_9allocatorIS4_EEED1Ev', symObjAddr: 0x17744, symBinAddr: 0x10001F968, symSize: 0x2C }
  - { offsetInCU: 0x33761, offset: 0x488D0, size: 0x8, addend: 0x0, symName: '__ZNSt3__117__compressed_pairIZN5dgrad3expEPNS1_6TensorEE3$_5NS_9allocatorIS4_EEED2Ev', symObjAddr: 0x17770, symBinAddr: 0x10001F994, symSize: 0x2C }
  - { offsetInCU: 0x3378D, offset: 0x488FC, size: 0x8, addend: 0x0, symName: '__ZNKSt3__110__function12__alloc_funcIZN5dgrad3expEPNS2_6TensorEE3$_5NS_9allocatorIS5_EEFvvEE15__get_allocatorB8ue170006Ev', symObjAddr: 0x1779C, symBinAddr: 0x10001F9C0, symSize: 0x24 }
  - { offsetInCU: 0x337DC, offset: 0x4894B, size: 0x8, addend: 0x0, symName: '__ZNSt3__110unique_ptrINS_10__function6__funcIZN5dgrad3expEPNS3_6TensorEE3$_5NS_9allocatorIS6_EEFvvEEENS_22__allocator_destructorINS7_ISA_EEEEEC1B8ue170006ILb1EvEEPSA_NS_16__dependent_typeINS_27__unique_ptr_deleter_sfinaeISD_EEXT_EE20__good_rval_ref_typeE', symObjAddr: 0x177C0, symBinAddr: 0x10001F9E4, symSize: 0x3C }
  - { offsetInCU: 0x3382D, offset: 0x4899C, size: 0x8, addend: 0x0, symName: '__ZNKSt3__110unique_ptrINS_10__function6__funcIZN5dgrad3expEPNS3_6TensorEE3$_5NS_9allocatorIS6_EEFvvEEENS_22__allocator_destructorINS7_ISA_EEEEE3getB8ue170006Ev', symObjAddr: 0x177FC, symBinAddr: 0x10001FA20, symSize: 0x28 }
  - { offsetInCU: 0x33853, offset: 0x489C2, size: 0x8, addend: 0x0, symName: '__ZNKSt3__110__function12__alloc_funcIZN5dgrad3expEPNS2_6TensorEE3$_5NS_9allocatorIS5_EEFvvEE8__targetB8ue170006Ev', symObjAddr: 0x17824, symBinAddr: 0x10001FA48, symSize: 0x24 }
  - { offsetInCU: 0x3387E, offset: 0x489ED, size: 0x8, addend: 0x0, symName: '__ZNSt3__19allocatorIZN5dgrad3expEPNS1_6TensorEE3$_5EC1B8ue170006INS_10__function6__funcIS4_S5_FvvEEEEERKNS0_IT_EE', symObjAddr: 0x17848, symBinAddr: 0x10001FA6C, symSize: 0x34 }
  - { offsetInCU: 0x338BB, offset: 0x48A2A, size: 0x8, addend: 0x0, symName: '__ZNSt3__110__function6__funcIZN5dgrad3expEPNS2_6TensorEE3$_5NS_9allocatorIS5_EEFvvEEC1B8ue170006ERKS5_OS7_', symObjAddr: 0x1787C, symBinAddr: 0x10001FAA0, symSize: 0x3C }
  - { offsetInCU: 0x33903, offset: 0x48A72, size: 0x8, addend: 0x0, symName: '__ZNSt3__110unique_ptrINS_10__function6__funcIZN5dgrad3expEPNS3_6TensorEE3$_5NS_9allocatorIS6_EEFvvEEENS_22__allocator_destructorINS7_ISA_EEEEE7releaseB8ue170006Ev', symObjAddr: 0x178B8, symBinAddr: 0x10001FADC, symSize: 0x44 }
  - { offsetInCU: 0x33938, offset: 0x48AA7, size: 0x8, addend: 0x0, symName: '__ZNSt3__110unique_ptrINS_10__function6__funcIZN5dgrad3expEPNS3_6TensorEE3$_5NS_9allocatorIS6_EEFvvEEENS_22__allocator_destructorINS7_ISA_EEEEED1B8ue170006Ev', symObjAddr: 0x178FC, symBinAddr: 0x10001FB20, symSize: 0x2C }
  - { offsetInCU: 0x33962, offset: 0x48AD1, size: 0x8, addend: 0x0, symName: '__ZNKSt3__117__compressed_pairIZN5dgrad3expEPNS1_6TensorEE3$_5NS_9allocatorIS4_EEE6secondB8ue170006Ev', symObjAddr: 0x17928, symBinAddr: 0x10001FB4C, symSize: 0x24 }
  - { offsetInCU: 0x33988, offset: 0x48AF7, size: 0x8, addend: 0x0, symName: '__ZNKSt3__122__compressed_pair_elemINS_9allocatorIZN5dgrad3expEPNS2_6TensorEE3$_5EELi1ELb1EE5__getB8ue170006Ev', symObjAddr: 0x1794C, symBinAddr: 0x10001FB70, symSize: 0x14 }
  - { offsetInCU: 0x339AE, offset: 0x48B1D, size: 0x8, addend: 0x0, symName: '__ZNSt3__110unique_ptrINS_10__function6__funcIZN5dgrad3expEPNS3_6TensorEE3$_5NS_9allocatorIS6_EEFvvEEENS_22__allocator_destructorINS7_ISA_EEEEEC2B8ue170006ILb1EvEEPSA_NS_16__dependent_typeINS_27__unique_ptr_deleter_sfinaeISD_EEXT_EE20__good_rval_ref_typeE', symObjAddr: 0x17960, symBinAddr: 0x10001FB84, symSize: 0x48 }
  - { offsetInCU: 0x339FF, offset: 0x48B6E, size: 0x8, addend: 0x0, symName: '__ZNKSt3__117__compressed_pairIZN5dgrad3expEPNS1_6TensorEE3$_5NS_9allocatorIS4_EEE5firstB8ue170006Ev', symObjAddr: 0x179A8, symBinAddr: 0x10001FBCC, symSize: 0x24 }
  - { offsetInCU: 0x33A25, offset: 0x48B94, size: 0x8, addend: 0x0, symName: '__ZNKSt3__122__compressed_pair_elemIZN5dgrad3expEPNS1_6TensorEE3$_5Li0ELb0EE5__getB8ue170006Ev', symObjAddr: 0x179CC, symBinAddr: 0x10001FBF0, symSize: 0x14 }
  - { offsetInCU: 0x33A4B, offset: 0x48BBA, size: 0x8, addend: 0x0, symName: '__ZNSt3__19allocatorIZN5dgrad3expEPNS1_6TensorEE3$_5EC2B8ue170006INS_10__function6__funcIS4_S5_FvvEEEEERKNS0_IT_EE', symObjAddr: 0x179E0, symBinAddr: 0x10001FC04, symSize: 0x30 }
  - { offsetInCU: 0x33A88, offset: 0x48BF7, size: 0x8, addend: 0x0, symName: '__ZNSt3__110__function6__funcIZN5dgrad3expEPNS2_6TensorEE3$_5NS_9allocatorIS5_EEFvvEEC2B8ue170006ERKS5_OS7_', symObjAddr: 0x17A10, symBinAddr: 0x10001FC34, symSize: 0x88 }
  - { offsetInCU: 0x33AD0, offset: 0x48C3F, size: 0x8, addend: 0x0, symName: '__ZNSt3__110__function12__alloc_funcIZN5dgrad3expEPNS2_6TensorEE3$_5NS_9allocatorIS5_EEFvvEEC1B8ue170006ERKS5_OS7_', symObjAddr: 0x17A98, symBinAddr: 0x10001FCBC, symSize: 0x3C }
  - { offsetInCU: 0x33B16, offset: 0x48C85, size: 0x8, addend: 0x0, symName: '__ZNSt3__110__function12__alloc_funcIZN5dgrad3expEPNS2_6TensorEE3$_5NS_9allocatorIS5_EEFvvEEC2B8ue170006ERKS5_OS7_', symObjAddr: 0x17AD4, symBinAddr: 0x10001FCF8, symSize: 0x5C }
  - { offsetInCU: 0x33B5C, offset: 0x48CCB, size: 0x8, addend: 0x0, symName: '__ZNSt3__117__compressed_pairIZN5dgrad3expEPNS1_6TensorEE3$_5NS_9allocatorIS4_EEEC1B8ue170006IJRKS4_EJOS6_EEENS_21piecewise_construct_tENS_5tupleIJDpT_EEENSD_IJDpT0_EEE', symObjAddr: 0x17B5C, symBinAddr: 0x10001FD80, symSize: 0x3C }
  - { offsetInCU: 0x33BC6, offset: 0x48D35, size: 0x8, addend: 0x0, symName: '__ZNSt3__15tupleIJRKZN5dgrad3expEPNS1_6TensorEE3$_5EEC1B8ue170006INS_4_AndELi0EEES6_', symObjAddr: 0x17B98, symBinAddr: 0x10001FDBC, symSize: 0x34 }
  - { offsetInCU: 0x33C0E, offset: 0x48D7D, size: 0x8, addend: 0x0, symName: '__ZNSt3__15tupleIJRKZN5dgrad3expEPNS1_6TensorEE3$_5EEC2B8ue170006INS_4_AndELi0EEES6_', symObjAddr: 0x17BCC, symBinAddr: 0x10001FDF0, symSize: 0x34 }
  - { offsetInCU: 0x33C56, offset: 0x48DC5, size: 0x8, addend: 0x0, symName: '__ZNSt3__112__tuple_implINS_15__tuple_indicesIJLm0EEEEJRKZN5dgrad3expEPNS3_6TensorEE3$_5EEC1B8ue170006IJLm0EEJS8_EJEJEJS8_EEENS1_IJXspT_EEEENS_13__tuple_typesIJDpT0_EEENS1_IJXspT1_EEEENSC_IJDpT2_EEEDpOT3_', symObjAddr: 0x17C00, symBinAddr: 0x10001FE24, symSize: 0x34 }
  - { offsetInCU: 0x33CE7, offset: 0x48E56, size: 0x8, addend: 0x0, symName: '__ZNSt3__112__tuple_implINS_15__tuple_indicesIJLm0EEEEJRKZN5dgrad3expEPNS3_6TensorEE3$_5EEC2B8ue170006IJLm0EEJS8_EJEJEJS8_EEENS1_IJXspT_EEEENS_13__tuple_typesIJDpT0_EEENS1_IJXspT1_EEEENSC_IJDpT2_EEEDpOT3_', symObjAddr: 0x17C34, symBinAddr: 0x10001FE58, symSize: 0x34 }
  - { offsetInCU: 0x33D78, offset: 0x48EE7, size: 0x8, addend: 0x0, symName: '__ZNSt3__112__tuple_leafILm0ERKZN5dgrad3expEPNS1_6TensorEE3$_5Lb0EEC2B8ue170006IS6_vEEOT_', symObjAddr: 0x17C68, symBinAddr: 0x10001FE8C, symSize: 0x20 }
  - { offsetInCU: 0x33DBB, offset: 0x48F2A, size: 0x8, addend: 0x0, symName: '__ZNSt3__117__compressed_pairIZN5dgrad3expEPNS1_6TensorEE3$_5NS_9allocatorIS4_EEEC2B8ue170006IJRKS4_EJOS6_EEENS_21piecewise_construct_tENS_5tupleIJDpT_EEENSD_IJDpT0_EEE', symObjAddr: 0x17C88, symBinAddr: 0x10001FEAC, symSize: 0x54 }
  - { offsetInCU: 0x33E25, offset: 0x48F94, size: 0x8, addend: 0x0, symName: '__ZNSt3__122__compressed_pair_elemIZN5dgrad3expEPNS1_6TensorEE3$_5Li0ELb0EEC2B8ue170006IJRKS4_EJLm0EEEENS_21piecewise_construct_tENS_5tupleIJDpT_EEENS_15__tuple_indicesIJXspT0_EEEE', symObjAddr: 0x17CDC, symBinAddr: 0x10001FF00, symSize: 0x44 }
  - { offsetInCU: 0x33E88, offset: 0x48FF7, size: 0x8, addend: 0x0, symName: '__ZZN5dgrad3expEPNS_6TensorEEN3$_5C1ERKS2_', symObjAddr: 0x17D44, symBinAddr: 0x10001FF68, symSize: 0x34 }
  - { offsetInCU: 0x33EBD, offset: 0x4902C, size: 0x8, addend: 0x0, symName: '__ZNSt3__112__tuple_leafILm0ERKZN5dgrad3expEPNS1_6TensorEE3$_5Lb0EE3getB8ue170006Ev', symObjAddr: 0x17D78, symBinAddr: 0x10001FF9C, symSize: 0x18 }
  - { offsetInCU: 0x33EE3, offset: 0x49052, size: 0x8, addend: 0x0, symName: '__ZZN5dgrad3expEPNS_6TensorEEN3$_5C2ERKS2_', symObjAddr: 0x17D90, symBinAddr: 0x10001FFB4, symSize: 0x54 }
  - { offsetInCU: 0x33F18, offset: 0x49087, size: 0x8, addend: 0x0, symName: '__ZNSt3__117__compressed_pairIPNS_10__function6__funcIZN5dgrad3expEPNS3_6TensorEE3$_5NS_9allocatorIS6_EEFvvEEENS_22__allocator_destructorINS7_ISA_EEEEE5firstB8ue170006Ev', symObjAddr: 0x17DE4, symBinAddr: 0x100020008, symSize: 0x24 }
  - { offsetInCU: 0x33F3E, offset: 0x490AD, size: 0x8, addend: 0x0, symName: '__ZNSt3__122__compressed_pair_elemIPNS_10__function6__funcIZN5dgrad3expEPNS3_6TensorEE3$_5NS_9allocatorIS6_EEFvvEEELi0ELb0EE5__getB8ue170006Ev', symObjAddr: 0x17E08, symBinAddr: 0x10002002C, symSize: 0x14 }
  - { offsetInCU: 0x33F64, offset: 0x490D3, size: 0x8, addend: 0x0, symName: '__ZNSt3__110unique_ptrINS_10__function6__funcIZN5dgrad3expEPNS3_6TensorEE3$_5NS_9allocatorIS6_EEFvvEEENS_22__allocator_destructorINS7_ISA_EEEEED2B8ue170006Ev', symObjAddr: 0x17E1C, symBinAddr: 0x100020040, symSize: 0x30 }
  - { offsetInCU: 0x33F8E, offset: 0x490FD, size: 0x8, addend: 0x0, symName: '__ZNSt3__110unique_ptrINS_10__function6__funcIZN5dgrad3expEPNS3_6TensorEE3$_5NS_9allocatorIS6_EEFvvEEENS_22__allocator_destructorINS7_ISA_EEEEE5resetB8ue170006EPSA_', symObjAddr: 0x17E4C, symBinAddr: 0x100020070, symSize: 0x78 }
  - { offsetInCU: 0x33FD2, offset: 0x49141, size: 0x8, addend: 0x0, symName: '__ZNSt3__117__compressed_pairIPNS_10__function6__funcIZN5dgrad3expEPNS3_6TensorEE3$_5NS_9allocatorIS6_EEFvvEEENS_22__allocator_destructorINS7_ISA_EEEEE6secondB8ue170006Ev', symObjAddr: 0x17EC4, symBinAddr: 0x1000200E8, symSize: 0x28 }
  - { offsetInCU: 0x33FF8, offset: 0x49167, size: 0x8, addend: 0x0, symName: '__ZNSt3__122__allocator_destructorINS_9allocatorINS_10__function6__funcIZN5dgrad3expEPNS4_6TensorEE3$_5NS1_IS7_EEFvvEEEEEEclB8ue170006EPSA_', symObjAddr: 0x17EEC, symBinAddr: 0x100020110, symSize: 0x34 }
  - { offsetInCU: 0x3402C, offset: 0x4919B, size: 0x8, addend: 0x0, symName: '__ZNSt3__122__compressed_pair_elemINS_22__allocator_destructorINS_9allocatorINS_10__function6__funcIZN5dgrad3expEPNS5_6TensorEE3$_5NS2_IS8_EEFvvEEEEEEELi1ELb0EE5__getB8ue170006Ev', symObjAddr: 0x17F20, symBinAddr: 0x100020144, symSize: 0x14 }
  - { offsetInCU: 0x34052, offset: 0x491C1, size: 0x8, addend: 0x0, symName: '__ZNSt3__116allocator_traitsINS_9allocatorINS_10__function6__funcIZN5dgrad3expEPNS4_6TensorEE3$_5NS1_IS7_EEFvvEEEEEE10deallocateB8ue170006ERSB_PSA_m', symObjAddr: 0x17F34, symBinAddr: 0x100020158, symSize: 0x34 }
  - { offsetInCU: 0x34094, offset: 0x49203, size: 0x8, addend: 0x0, symName: '__ZNSt3__19allocatorINS_10__function6__funcIZN5dgrad3expEPNS3_6TensorEE3$_5NS0_IS6_EEFvvEEEE10deallocateB8ue170006EPS9_m', symObjAddr: 0x17F68, symBinAddr: 0x10002018C, symSize: 0x44 }
  - { offsetInCU: 0x340D6, offset: 0x49245, size: 0x8, addend: 0x0, symName: '__ZNSt3__110__function6__funcIZN5dgrad3expEPNS2_6TensorEE3$_5NS_9allocatorIS5_EEFvvEEC1B8ue170006ERKS5_RKS7_', symObjAddr: 0x17FAC, symBinAddr: 0x1000201D0, symSize: 0x3C }
  - { offsetInCU: 0x3411E, offset: 0x4928D, size: 0x8, addend: 0x0, symName: '__ZNSt3__110__function6__funcIZN5dgrad3expEPNS2_6TensorEE3$_5NS_9allocatorIS5_EEFvvEEC2B8ue170006ERKS5_RKS7_', symObjAddr: 0x17FE8, symBinAddr: 0x10002020C, symSize: 0x88 }
  - { offsetInCU: 0x34166, offset: 0x492D5, size: 0x8, addend: 0x0, symName: '__ZNSt3__110__function12__alloc_funcIZN5dgrad3expEPNS2_6TensorEE3$_5NS_9allocatorIS5_EEFvvEEC1B8ue170006ERKS5_RKS7_', symObjAddr: 0x18070, symBinAddr: 0x100020294, symSize: 0x3C }
  - { offsetInCU: 0x341AC, offset: 0x4931B, size: 0x8, addend: 0x0, symName: '__ZNSt3__110__function12__alloc_funcIZN5dgrad3expEPNS2_6TensorEE3$_5NS_9allocatorIS5_EEFvvEEC2B8ue170006ERKS5_RKS7_', symObjAddr: 0x180AC, symBinAddr: 0x1000202D0, symSize: 0x5C }
  - { offsetInCU: 0x341F2, offset: 0x49361, size: 0x8, addend: 0x0, symName: '__ZNSt3__117__compressed_pairIZN5dgrad3expEPNS1_6TensorEE3$_5NS_9allocatorIS4_EEEC1B8ue170006IJRKS4_EJRKS6_EEENS_21piecewise_construct_tENS_5tupleIJDpT_EEENSE_IJDpT0_EEE', symObjAddr: 0x18134, symBinAddr: 0x100020358, symSize: 0x3C }
  - { offsetInCU: 0x3425C, offset: 0x493CB, size: 0x8, addend: 0x0, symName: '__ZNSt3__15tupleIJRKNS_9allocatorIZN5dgrad3expEPNS2_6TensorEE3$_5EEEEC1B8ue170006INS_4_AndELi0EEES8_', symObjAddr: 0x18170, symBinAddr: 0x100020394, symSize: 0x34 }
  - { offsetInCU: 0x342A4, offset: 0x49413, size: 0x8, addend: 0x0, symName: '__ZNSt3__15tupleIJRKNS_9allocatorIZN5dgrad3expEPNS2_6TensorEE3$_5EEEEC2B8ue170006INS_4_AndELi0EEES8_', symObjAddr: 0x181A4, symBinAddr: 0x1000203C8, symSize: 0x34 }
  - { offsetInCU: 0x342EC, offset: 0x4945B, size: 0x8, addend: 0x0, symName: '__ZNSt3__112__tuple_implINS_15__tuple_indicesIJLm0EEEEJRKNS_9allocatorIZN5dgrad3expEPNS4_6TensorEE3$_5EEEEC1B8ue170006IJLm0EEJSA_EJEJEJSA_EEENS1_IJXspT_EEEENS_13__tuple_typesIJDpT0_EEENS1_IJXspT1_EEEENSE_IJDpT2_EEEDpOT3_', symObjAddr: 0x181D8, symBinAddr: 0x1000203FC, symSize: 0x34 }
  - { offsetInCU: 0x3437D, offset: 0x494EC, size: 0x8, addend: 0x0, symName: '__ZNSt3__112__tuple_implINS_15__tuple_indicesIJLm0EEEEJRKNS_9allocatorIZN5dgrad3expEPNS4_6TensorEE3$_5EEEEC2B8ue170006IJLm0EEJSA_EJEJEJSA_EEENS1_IJXspT_EEEENS_13__tuple_typesIJDpT0_EEENS1_IJXspT1_EEEENSE_IJDpT2_EEEDpOT3_', symObjAddr: 0x1820C, symBinAddr: 0x100020430, symSize: 0x34 }
  - { offsetInCU: 0x3440E, offset: 0x4957D, size: 0x8, addend: 0x0, symName: '__ZNSt3__112__tuple_leafILm0ERKNS_9allocatorIZN5dgrad3expEPNS2_6TensorEE3$_5EELb0EEC2B8ue170006IS8_vEEOT_', symObjAddr: 0x18240, symBinAddr: 0x100020464, symSize: 0x20 }
  - { offsetInCU: 0x34451, offset: 0x495C0, size: 0x8, addend: 0x0, symName: '__ZNSt3__117__compressed_pairIZN5dgrad3expEPNS1_6TensorEE3$_5NS_9allocatorIS4_EEEC2B8ue170006IJRKS4_EJRKS6_EEENS_21piecewise_construct_tENS_5tupleIJDpT_EEENSE_IJDpT0_EEE', symObjAddr: 0x18260, symBinAddr: 0x100020484, symSize: 0x7C }
  - { offsetInCU: 0x344BB, offset: 0x4962A, size: 0x8, addend: 0x0, symName: '__ZNSt3__122__compressed_pair_elemINS_9allocatorIZN5dgrad3expEPNS2_6TensorEE3$_5EELi1ELb1EEC2B8ue170006IJRKS6_EJLm0EEEENS_21piecewise_construct_tENS_5tupleIJDpT_EEENS_15__tuple_indicesIJXspT0_EEEE', symObjAddr: 0x182DC, symBinAddr: 0x100020500, symSize: 0x38 }
  - { offsetInCU: 0x3451E, offset: 0x4968D, size: 0x8, addend: 0x0, symName: '__ZNSt3__112__tuple_leafILm0ERKNS_9allocatorIZN5dgrad3expEPNS2_6TensorEE3$_5EELb0EE3getB8ue170006Ev', symObjAddr: 0x18338, symBinAddr: 0x10002055C, symSize: 0x18 }
  - { offsetInCU: 0x34544, offset: 0x496B3, size: 0x8, addend: 0x0, symName: '__ZNSt3__110__function12__alloc_funcIZN5dgrad3expEPNS2_6TensorEE3$_5NS_9allocatorIS5_EEFvvEE7destroyB8ue170006Ev', symObjAddr: 0x18350, symBinAddr: 0x100020574, symSize: 0x24 }
  - { offsetInCU: 0x3456A, offset: 0x496D9, size: 0x8, addend: 0x0, symName: '__ZNSt3__110__function12__alloc_funcIZN5dgrad3expEPNS2_6TensorEE3$_5NS_9allocatorIS5_EEFvvEEclB8ue170006Ev', symObjAddr: 0x18374, symBinAddr: 0x100020598, symSize: 0x28 }
  - { offsetInCU: 0x34590, offset: 0x496FF, size: 0x8, addend: 0x0, symName: '__ZNSt3__128__invoke_void_return_wrapperIvLb1EE6__callB8ue170006IJRZN5dgrad3expEPNS3_6TensorEE3$_5EEEvDpOT_', symObjAddr: 0x1839C, symBinAddr: 0x1000205C0, symSize: 0x24 }
  - { offsetInCU: 0x345BF, offset: 0x4972E, size: 0x8, addend: 0x0, symName: '__ZNSt3__117__compressed_pairIZN5dgrad3expEPNS1_6TensorEE3$_5NS_9allocatorIS4_EEE5firstB8ue170006Ev', symObjAddr: 0x183C0, symBinAddr: 0x1000205E4, symSize: 0x24 }
  - { offsetInCU: 0x345EA, offset: 0x49759, size: 0x8, addend: 0x0, symName: '__ZZN5dgrad3expEPNS_6TensorEENK3$_5clEv', symObjAddr: 0x18408, symBinAddr: 0x10002062C, symSize: 0xBC }
  - { offsetInCU: 0x34630, offset: 0x4979F, size: 0x8, addend: 0x0, symName: '__ZNSt3__122__compressed_pair_elemIZN5dgrad3expEPNS1_6TensorEE3$_5Li0ELb0EE5__getB8ue170006Ev', symObjAddr: 0x184E8, symBinAddr: 0x1000206E8, symSize: 0x14 }
  - { offsetInCU: 0x34656, offset: 0x497C5, size: 0x8, addend: 0x0, symName: '__ZNSt3__110unique_ptrINS_10__function6__baseIFvvEEENS_22__allocator_destructorINS_9allocatorINS1_6__funcIZN5dgrad3expEPNS8_6TensorEE3$_5NS6_ISB_EES3_EEEEEEED2B8ue170006Ev', symObjAddr: 0x184FC, symBinAddr: 0x1000206FC, symSize: 0x30 }
  - { offsetInCU: 0x34680, offset: 0x497EF, size: 0x8, addend: 0x0, symName: '__ZNSt3__110unique_ptrINS_10__function6__baseIFvvEEENS_22__allocator_destructorINS_9allocatorINS1_6__funcIZN5dgrad3expEPNS8_6TensorEE3$_5NS6_ISB_EES3_EEEEEEE5resetB8ue170006EPSD_', symObjAddr: 0x1852C, symBinAddr: 0x10002072C, symSize: 0x78 }
  - { offsetInCU: 0x346C4, offset: 0x49833, size: 0x8, addend: 0x0, symName: '__ZZN5dgrad4tanhEPNS_6TensorEEN3$_6C1EOS2_', symObjAddr: 0x185A4, symBinAddr: 0x1000207A4, symSize: 0x34 }
  - { offsetInCU: 0x346F9, offset: 0x49868, size: 0x8, addend: 0x0, symName: '__ZNSt3__18functionIFvvEEC1IZN5dgrad4tanhEPNS4_6TensorEE3$_6vEET_', symObjAddr: 0x185D8, symBinAddr: 0x1000207D8, symSize: 0x34 }
  - { offsetInCU: 0x3473F, offset: 0x498AE, size: 0x8, addend: 0x0, symName: '__ZZN5dgrad4tanhEPNS_6TensorEEN3$_6C2EOS2_', symObjAddr: 0x1860C, symBinAddr: 0x10002080C, symSize: 0x54 }
  - { offsetInCU: 0x34774, offset: 0x498E3, size: 0x8, addend: 0x0, symName: '__ZNSt3__18functionIFvvEEC2IZN5dgrad4tanhEPNS4_6TensorEE3$_6vEET_', symObjAddr: 0x18660, symBinAddr: 0x100020860, symSize: 0x34 }
  - { offsetInCU: 0x347BA, offset: 0x49929, size: 0x8, addend: 0x0, symName: '__ZNSt3__110__function12__value_funcIFvvEEC1B8ue170006IZN5dgrad4tanhEPNS5_6TensorEE3$_6vEEOT_', symObjAddr: 0x18694, symBinAddr: 0x100020894, symSize: 0x50 }
  - { offsetInCU: 0x347FD, offset: 0x4996C, size: 0x8, addend: 0x0, symName: '__ZNSt3__19allocatorIZN5dgrad4tanhEPNS1_6TensorEE3$_6EC1B8ue170006Ev', symObjAddr: 0x186E4, symBinAddr: 0x1000208E4, symSize: 0x2C }
  - { offsetInCU: 0x34827, offset: 0x49996, size: 0x8, addend: 0x0, symName: '__ZNSt3__110__function12__value_funcIFvvEEC1B8ue170006IZN5dgrad4tanhEPNS5_6TensorEE3$_6NS_9allocatorIS8_EEEEOT_RKT0_', symObjAddr: 0x18710, symBinAddr: 0x100020910, symSize: 0x3C }
  - { offsetInCU: 0x34881, offset: 0x499F0, size: 0x8, addend: 0x0, symName: '__ZNSt3__19allocatorIZN5dgrad4tanhEPNS1_6TensorEE3$_6EC2B8ue170006Ev', symObjAddr: 0x1874C, symBinAddr: 0x10002094C, symSize: 0x2C }
  - { offsetInCU: 0x348AB, offset: 0x49A1A, size: 0x8, addend: 0x0, symName: '__ZNSt3__116__non_trivial_ifILb1ENS_9allocatorIZN5dgrad4tanhEPNS2_6TensorEE3$_6EEEC2B8ue170006Ev', symObjAddr: 0x18778, symBinAddr: 0x100020978, symSize: 0x14 }
  - { offsetInCU: 0x348D5, offset: 0x49A44, size: 0x8, addend: 0x0, symName: '__ZNSt3__110__function12__value_funcIFvvEEC2B8ue170006IZN5dgrad4tanhEPNS5_6TensorEE3$_6NS_9allocatorIS8_EEEEOT_RKT0_', symObjAddr: 0x1878C, symBinAddr: 0x10002098C, symSize: 0xF4 }
  - { offsetInCU: 0x34988, offset: 0x49AF7, size: 0x8, addend: 0x0, symName: '__ZNSt3__19allocatorINS_10__function6__funcIZN5dgrad4tanhEPNS3_6TensorEE3$_6NS0_IS6_EEFvvEEEEC1B8ue170006IS6_EERKNS0_IT_EE', symObjAddr: 0x18898, symBinAddr: 0x100020A98, symSize: 0x34 }
  - { offsetInCU: 0x349C5, offset: 0x49B34, size: 0x8, addend: 0x0, symName: '__ZNSt3__19allocatorINS_10__function6__funcIZN5dgrad4tanhEPNS3_6TensorEE3$_6NS0_IS6_EEFvvEEEE8allocateB8ue170006Em', symObjAddr: 0x188CC, symBinAddr: 0x100020ACC, symSize: 0x5C }
  - { offsetInCU: 0x34A08, offset: 0x49B77, size: 0x8, addend: 0x0, symName: '__ZNSt3__122__allocator_destructorINS_9allocatorINS_10__function6__funcIZN5dgrad4tanhEPNS4_6TensorEE3$_6NS1_IS7_EEFvvEEEEEEC1B8ue170006ERSB_m', symObjAddr: 0x18928, symBinAddr: 0x100020B28, symSize: 0x3C }
  - { offsetInCU: 0x34ADC, offset: 0x49C4B, size: 0x8, addend: 0x0, symName: '__ZNSt3__110unique_ptrINS_10__function6__baseIFvvEEENS_22__allocator_destructorINS_9allocatorINS1_6__funcIZN5dgrad4tanhEPNS8_6TensorEE3$_6NS6_ISB_EES3_EEEEEEEC1B8ue170006ILb1EvEEPSD_NS_16__dependent_typeINS_27__unique_ptr_deleter_sfinaeISF_EEXT_EE20__good_rval_ref_typeE', symObjAddr: 0x18964, symBinAddr: 0x100020B64, symSize: 0x3C }
  - { offsetInCU: 0x34B2D, offset: 0x49C9C, size: 0x8, addend: 0x0, symName: '__ZNKSt3__110unique_ptrINS_10__function6__baseIFvvEEENS_22__allocator_destructorINS_9allocatorINS1_6__funcIZN5dgrad4tanhEPNS8_6TensorEE3$_6NS6_ISB_EES3_EEEEEEE3getB8ue170006Ev', symObjAddr: 0x189A0, symBinAddr: 0x100020BA0, symSize: 0x28 }
  - { offsetInCU: 0x34B53, offset: 0x49CC2, size: 0x8, addend: 0x0, symName: '__ZNSt3__110__function6__funcIZN5dgrad4tanhEPNS2_6TensorEE3$_6NS_9allocatorIS5_EEFvvEEC1B8ue170006EOS5_OS7_', symObjAddr: 0x189C8, symBinAddr: 0x100020BC8, symSize: 0x3C }
  - { offsetInCU: 0x34B9B, offset: 0x49D0A, size: 0x8, addend: 0x0, symName: '__ZNSt3__110unique_ptrINS_10__function6__baseIFvvEEENS_22__allocator_destructorINS_9allocatorINS1_6__funcIZN5dgrad4tanhEPNS8_6TensorEE3$_6NS6_ISB_EES3_EEEEEEE7releaseB8ue170006Ev', symObjAddr: 0x18A04, symBinAddr: 0x100020C04, symSize: 0x44 }
  - { offsetInCU: 0x34BD0, offset: 0x49D3F, size: 0x8, addend: 0x0, symName: '__ZNSt3__110unique_ptrINS_10__function6__baseIFvvEEENS_22__allocator_destructorINS_9allocatorINS1_6__funcIZN5dgrad4tanhEPNS8_6TensorEE3$_6NS6_ISB_EES3_EEEEEEED1B8ue170006Ev', symObjAddr: 0x18A48, symBinAddr: 0x100020C48, symSize: 0x2C }
  - { offsetInCU: 0x34BFA, offset: 0x49D69, size: 0x8, addend: 0x0, symName: '__ZNSt3__19allocatorINS_10__function6__funcIZN5dgrad4tanhEPNS3_6TensorEE3$_6NS0_IS6_EEFvvEEEEC2B8ue170006IS6_EERKNS0_IT_EE', symObjAddr: 0x18A74, symBinAddr: 0x100020C74, symSize: 0x30 }
  - { offsetInCU: 0x34C37, offset: 0x49DA6, size: 0x8, addend: 0x0, symName: '__ZNSt3__116__non_trivial_ifILb1ENS_9allocatorINS_10__function6__funcIZN5dgrad4tanhEPNS4_6TensorEE3$_6NS1_IS7_EEFvvEEEEEEC2B8ue170006Ev', symObjAddr: 0x18AA4, symBinAddr: 0x100020CA4, symSize: 0x14 }
  - { offsetInCU: 0x34C6B, offset: 0x49DDA, size: 0x8, addend: 0x0, symName: '__ZNSt3__116allocator_traitsINS_9allocatorINS_10__function6__funcIZN5dgrad4tanhEPNS4_6TensorEE3$_6NS1_IS7_EEFvvEEEEEE8max_sizeB8ue170006ISB_vEEmRKSB_', symObjAddr: 0x18AB8, symBinAddr: 0x100020CB8, symSize: 0x24 }
  - { offsetInCU: 0x34C99, offset: 0x49E08, size: 0x8, addend: 0x0, symName: '__ZNKSt3__19allocatorINS_10__function6__funcIZN5dgrad4tanhEPNS3_6TensorEE3$_6NS0_IS6_EEFvvEEEE8max_sizeB8ue170006Ev', symObjAddr: 0x18ADC, symBinAddr: 0x100020CDC, symSize: 0x20 }
  - { offsetInCU: 0x34CBF, offset: 0x49E2E, size: 0x8, addend: 0x0, symName: '__ZNSt3__122__allocator_destructorINS_9allocatorINS_10__function6__funcIZN5dgrad4tanhEPNS4_6TensorEE3$_6NS1_IS7_EEFvvEEEEEEC2B8ue170006ERSB_m', symObjAddr: 0x18AFC, symBinAddr: 0x100020CFC, symSize: 0x2C }
  - { offsetInCU: 0x34D05, offset: 0x49E74, size: 0x8, addend: 0x0, symName: '__ZNSt3__110unique_ptrINS_10__function6__baseIFvvEEENS_22__allocator_destructorINS_9allocatorINS1_6__funcIZN5dgrad4tanhEPNS8_6TensorEE3$_6NS6_ISB_EES3_EEEEEEEC2B8ue170006ILb1EvEEPSD_NS_16__dependent_typeINS_27__unique_ptr_deleter_sfinaeISF_EEXT_EE20__good_rval_ref_typeE', symObjAddr: 0x18B28, symBinAddr: 0x100020D28, symSize: 0x48 }
  - { offsetInCU: 0x34D56, offset: 0x49EC5, size: 0x8, addend: 0x0, symName: '__ZNSt3__117__compressed_pairIPNS_10__function6__funcIZN5dgrad4tanhEPNS3_6TensorEE3$_6NS_9allocatorIS6_EEFvvEEENS_22__allocator_destructorINS7_ISA_EEEEEC1B8ue170006IRSB_SE_EEOT_OT0_', symObjAddr: 0x18B70, symBinAddr: 0x100020D70, symSize: 0x3C }
  - { offsetInCU: 0x34DAE, offset: 0x49F1D, size: 0x8, addend: 0x0, symName: '__ZNSt3__117__compressed_pairIPNS_10__function6__funcIZN5dgrad4tanhEPNS3_6TensorEE3$_6NS_9allocatorIS6_EEFvvEEENS_22__allocator_destructorINS7_ISA_EEEEEC2B8ue170006IRSB_SE_EEOT_OT0_', symObjAddr: 0x18BAC, symBinAddr: 0x100020DAC, symSize: 0x48 }
  - { offsetInCU: 0x34E06, offset: 0x49F75, size: 0x8, addend: 0x0, symName: '__ZNSt3__122__compressed_pair_elemIPNS_10__function6__funcIZN5dgrad4tanhEPNS3_6TensorEE3$_6NS_9allocatorIS6_EEFvvEEELi0ELb0EEC2B8ue170006IRSB_vEEOT_', symObjAddr: 0x18BF4, symBinAddr: 0x100020DF4, symSize: 0x24 }
  - { offsetInCU: 0x34E48, offset: 0x49FB7, size: 0x8, addend: 0x0, symName: '__ZNSt3__122__compressed_pair_elemINS_22__allocator_destructorINS_9allocatorINS_10__function6__funcIZN5dgrad4tanhEPNS5_6TensorEE3$_6NS2_IS8_EEFvvEEEEEEELi1ELb0EEC2B8ue170006ISD_vEEOT_', symObjAddr: 0x18C18, symBinAddr: 0x100020E18, symSize: 0x24 }
  - { offsetInCU: 0x34E8A, offset: 0x49FF9, size: 0x8, addend: 0x0, symName: '__ZNKSt3__117__compressed_pairIPNS_10__function6__funcIZN5dgrad4tanhEPNS3_6TensorEE3$_6NS_9allocatorIS6_EEFvvEEENS_22__allocator_destructorINS7_ISA_EEEEE5firstB8ue170006Ev', symObjAddr: 0x18C3C, symBinAddr: 0x100020E3C, symSize: 0x24 }
  - { offsetInCU: 0x34EB0, offset: 0x4A01F, size: 0x8, addend: 0x0, symName: '__ZNKSt3__122__compressed_pair_elemIPNS_10__function6__funcIZN5dgrad4tanhEPNS3_6TensorEE3$_6NS_9allocatorIS6_EEFvvEEELi0ELb0EE5__getB8ue170006Ev', symObjAddr: 0x18C60, symBinAddr: 0x100020E60, symSize: 0x14 }
  - { offsetInCU: 0x34ED6, offset: 0x4A045, size: 0x8, addend: 0x0, symName: '__ZNSt3__110__function6__funcIZN5dgrad4tanhEPNS2_6TensorEE3$_6NS_9allocatorIS5_EEFvvEEC2B8ue170006EOS5_OS7_', symObjAddr: 0x18C74, symBinAddr: 0x100020E74, symSize: 0x88 }
  - { offsetInCU: 0x34F1E, offset: 0x4A08D, size: 0x8, addend: 0x0, symName: '__ZNSt3__110__function12__alloc_funcIZN5dgrad4tanhEPNS2_6TensorEE3$_6NS_9allocatorIS5_EEFvvEEC1B8ue170006EOS5_OS7_', symObjAddr: 0x18CFC, symBinAddr: 0x100020EFC, symSize: 0x3C }
  - { offsetInCU: 0x34F64, offset: 0x4A0D3, size: 0x8, addend: 0x0, symName: '__ZNSt3__110__function6__funcIZN5dgrad4tanhEPNS2_6TensorEE3$_6NS_9allocatorIS5_EEFvvEED1Ev', symObjAddr: 0x18D38, symBinAddr: 0x100020F38, symSize: 0x2C }
  - { offsetInCU: 0x34F91, offset: 0x4A100, size: 0x8, addend: 0x0, symName: '__ZNSt3__110__function6__funcIZN5dgrad4tanhEPNS2_6TensorEE3$_6NS_9allocatorIS5_EEFvvEED0Ev', symObjAddr: 0x18D64, symBinAddr: 0x100020F64, symSize: 0x30 }
  - { offsetInCU: 0x34FBE, offset: 0x4A12D, size: 0x8, addend: 0x0, symName: '__ZNKSt3__110__function6__funcIZN5dgrad4tanhEPNS2_6TensorEE3$_6NS_9allocatorIS5_EEFvvEE7__cloneEv', symObjAddr: 0x18D94, symBinAddr: 0x100020F94, symSize: 0xFC }
  - { offsetInCU: 0x35010, offset: 0x4A17F, size: 0x8, addend: 0x0, symName: '__ZNKSt3__110__function6__funcIZN5dgrad4tanhEPNS2_6TensorEE3$_6NS_9allocatorIS5_EEFvvEE7__cloneEPNS0_6__baseIS8_EE', symObjAddr: 0x18E90, symBinAddr: 0x100021090, symSize: 0x58 }
  - { offsetInCU: 0x35047, offset: 0x4A1B6, size: 0x8, addend: 0x0, symName: '__ZNSt3__110__function6__funcIZN5dgrad4tanhEPNS2_6TensorEE3$_6NS_9allocatorIS5_EEFvvEE7destroyEv', symObjAddr: 0x18EE8, symBinAddr: 0x1000210E8, symSize: 0x28 }
  - { offsetInCU: 0x3506F, offset: 0x4A1DE, size: 0x8, addend: 0x0, symName: '__ZNSt3__110__function6__funcIZN5dgrad4tanhEPNS2_6TensorEE3$_6NS_9allocatorIS5_EEFvvEE18destroy_deallocateEv', symObjAddr: 0x18F10, symBinAddr: 0x100021110, symSize: 0x58 }
  - { offsetInCU: 0x350B2, offset: 0x4A221, size: 0x8, addend: 0x0, symName: '__ZNSt3__110__function6__funcIZN5dgrad4tanhEPNS2_6TensorEE3$_6NS_9allocatorIS5_EEFvvEEclEv', symObjAddr: 0x18F68, symBinAddr: 0x100021168, symSize: 0x28 }
  - { offsetInCU: 0x350DA, offset: 0x4A249, size: 0x8, addend: 0x0, symName: '__ZNKSt3__110__function6__funcIZN5dgrad4tanhEPNS2_6TensorEE3$_6NS_9allocatorIS5_EEFvvEE6targetERKSt9type_info', symObjAddr: 0x18F90, symBinAddr: 0x100021190, symSize: 0x60 }
  - { offsetInCU: 0x35111, offset: 0x4A280, size: 0x8, addend: 0x0, symName: '__ZNKSt3__110__function6__funcIZN5dgrad4tanhEPNS2_6TensorEE3$_6NS_9allocatorIS5_EEFvvEE11target_typeEv', symObjAddr: 0x18FF0, symBinAddr: 0x1000211F0, symSize: 0x18 }
  - { offsetInCU: 0x35139, offset: 0x4A2A8, size: 0x8, addend: 0x0, symName: '__ZNSt3__110__function12__alloc_funcIZN5dgrad4tanhEPNS2_6TensorEE3$_6NS_9allocatorIS5_EEFvvEEC2B8ue170006EOS5_OS7_', symObjAddr: 0x19008, symBinAddr: 0x100021208, symSize: 0x5C }
  - { offsetInCU: 0x3517F, offset: 0x4A2EE, size: 0x8, addend: 0x0, symName: '__ZNSt3__117__compressed_pairIZN5dgrad4tanhEPNS1_6TensorEE3$_6NS_9allocatorIS4_EEEC1B8ue170006IJOS4_EJOS6_EEENS_21piecewise_construct_tENS_5tupleIJDpT_EEENSC_IJDpT0_EEE', symObjAddr: 0x190BC, symBinAddr: 0x1000212BC, symSize: 0x3C }
  - { offsetInCU: 0x351E9, offset: 0x4A358, size: 0x8, addend: 0x0, symName: '__ZNSt3__15tupleIJOZN5dgrad4tanhEPNS1_6TensorEE3$_6EEC1B8ue170006IJS4_ELi0EEEDpOT_', symObjAddr: 0x190F8, symBinAddr: 0x1000212F8, symSize: 0x34 }
  - { offsetInCU: 0x35233, offset: 0x4A3A2, size: 0x8, addend: 0x0, symName: '__ZNSt3__15tupleIJOZN5dgrad4tanhEPNS1_6TensorEE3$_6EEC2B8ue170006IJS4_ELi0EEEDpOT_', symObjAddr: 0x1912C, symBinAddr: 0x10002132C, symSize: 0x34 }
  - { offsetInCU: 0x3527D, offset: 0x4A3EC, size: 0x8, addend: 0x0, symName: '__ZNSt3__112__tuple_implINS_15__tuple_indicesIJLm0EEEEJOZN5dgrad4tanhEPNS3_6TensorEE3$_6EEC1B8ue170006IJLm0EEJS7_EJEJEJS6_EEENS1_IJXspT_EEEENS_13__tuple_typesIJDpT0_EEENS1_IJXspT1_EEEENSB_IJDpT2_EEEDpOT3_', symObjAddr: 0x19160, symBinAddr: 0x100021360, symSize: 0x34 }
  - { offsetInCU: 0x3530E, offset: 0x4A47D, size: 0x8, addend: 0x0, symName: '__ZNSt3__112__tuple_implINS_15__tuple_indicesIJLm0EEEEJOZN5dgrad4tanhEPNS3_6TensorEE3$_6EEC2B8ue170006IJLm0EEJS7_EJEJEJS6_EEENS1_IJXspT_EEEENS_13__tuple_typesIJDpT0_EEENS1_IJXspT1_EEEENSB_IJDpT2_EEEDpOT3_', symObjAddr: 0x19194, symBinAddr: 0x100021394, symSize: 0x34 }
  - { offsetInCU: 0x3539F, offset: 0x4A50E, size: 0x8, addend: 0x0, symName: '__ZNSt3__112__tuple_leafILm0EOZN5dgrad4tanhEPNS1_6TensorEE3$_6Lb0EEC2B8ue170006IS4_vEEOT_', symObjAddr: 0x191C8, symBinAddr: 0x1000213C8, symSize: 0x20 }
  - { offsetInCU: 0x353E2, offset: 0x4A551, size: 0x8, addend: 0x0, symName: '__ZNSt3__15tupleIJONS_9allocatorIZN5dgrad4tanhEPNS2_6TensorEE3$_6EEEEC1B8ue170006IJS6_ELi0EEEDpOT_', symObjAddr: 0x191E8, symBinAddr: 0x1000213E8, symSize: 0x34 }
  - { offsetInCU: 0x3542C, offset: 0x4A59B, size: 0x8, addend: 0x0, symName: '__ZNSt3__15tupleIJONS_9allocatorIZN5dgrad4tanhEPNS2_6TensorEE3$_6EEEEC2B8ue170006IJS6_ELi0EEEDpOT_', symObjAddr: 0x1921C, symBinAddr: 0x10002141C, symSize: 0x34 }
  - { offsetInCU: 0x35476, offset: 0x4A5E5, size: 0x8, addend: 0x0, symName: '__ZNSt3__112__tuple_implINS_15__tuple_indicesIJLm0EEEEJONS_9allocatorIZN5dgrad4tanhEPNS4_6TensorEE3$_6EEEEC1B8ue170006IJLm0EEJS9_EJEJEJS8_EEENS1_IJXspT_EEEENS_13__tuple_typesIJDpT0_EEENS1_IJXspT1_EEEENSD_IJDpT2_EEEDpOT3_', symObjAddr: 0x19250, symBinAddr: 0x100021450, symSize: 0x34 }
  - { offsetInCU: 0x35507, offset: 0x4A676, size: 0x8, addend: 0x0, symName: '__ZNSt3__112__tuple_implINS_15__tuple_indicesIJLm0EEEEJONS_9allocatorIZN5dgrad4tanhEPNS4_6TensorEE3$_6EEEEC2B8ue170006IJLm0EEJS9_EJEJEJS8_EEENS1_IJXspT_EEEENS_13__tuple_typesIJDpT0_EEENS1_IJXspT1_EEEENSD_IJDpT2_EEEDpOT3_', symObjAddr: 0x19284, symBinAddr: 0x100021484, symSize: 0x34 }
  - { offsetInCU: 0x35598, offset: 0x4A707, size: 0x8, addend: 0x0, symName: '__ZNSt3__112__tuple_leafILm0EONS_9allocatorIZN5dgrad4tanhEPNS2_6TensorEE3$_6EELb0EEC2B8ue170006IS6_vEEOT_', symObjAddr: 0x192B8, symBinAddr: 0x1000214B8, symSize: 0x20 }
  - { offsetInCU: 0x355DB, offset: 0x4A74A, size: 0x8, addend: 0x0, symName: '__ZNSt3__117__compressed_pairIZN5dgrad4tanhEPNS1_6TensorEE3$_6NS_9allocatorIS4_EEEC2B8ue170006IJOS4_EJOS6_EEENS_21piecewise_construct_tENS_5tupleIJDpT_EEENSC_IJDpT0_EEE', symObjAddr: 0x192D8, symBinAddr: 0x1000214D8, symSize: 0x7C }
  - { offsetInCU: 0x35645, offset: 0x4A7B4, size: 0x8, addend: 0x0, symName: '__ZNSt3__122__compressed_pair_elemIZN5dgrad4tanhEPNS1_6TensorEE3$_6Li0ELb0EEC2B8ue170006IJOS4_EJLm0EEEENS_21piecewise_construct_tENS_5tupleIJDpT_EEENS_15__tuple_indicesIJXspT0_EEEE', symObjAddr: 0x19354, symBinAddr: 0x100021554, symSize: 0x44 }
  - { offsetInCU: 0x356A8, offset: 0x4A817, size: 0x8, addend: 0x0, symName: '__ZNSt3__122__compressed_pair_elemINS_9allocatorIZN5dgrad4tanhEPNS2_6TensorEE3$_6EELi1ELb1EEC2B8ue170006IJOS6_EJLm0EEEENS_21piecewise_construct_tENS_5tupleIJDpT_EEENS_15__tuple_indicesIJXspT0_EEEE', symObjAddr: 0x19398, symBinAddr: 0x100021598, symSize: 0x38 }
  - { offsetInCU: 0x3570B, offset: 0x4A87A, size: 0x8, addend: 0x0, symName: '__ZNSt3__122__compressed_pair_elemIZN5dgrad4tanhEPNS1_6TensorEE3$_6Li0ELb0EED2Ev', symObjAddr: 0x193D0, symBinAddr: 0x1000215D0, symSize: 0x2C }
  - { offsetInCU: 0x35737, offset: 0x4A8A6, size: 0x8, addend: 0x0, symName: '__ZNSt3__112__tuple_leafILm0EOZN5dgrad4tanhEPNS1_6TensorEE3$_6Lb0EE3getB8ue170006Ev', symObjAddr: 0x19420, symBinAddr: 0x100021620, symSize: 0x18 }
  - { offsetInCU: 0x3575D, offset: 0x4A8CC, size: 0x8, addend: 0x0, symName: '__ZNSt3__112__tuple_leafILm0EONS_9allocatorIZN5dgrad4tanhEPNS2_6TensorEE3$_6EELb0EE3getB8ue170006Ev', symObjAddr: 0x1945C, symBinAddr: 0x10002165C, symSize: 0x18 }
  - { offsetInCU: 0x35783, offset: 0x4A8F2, size: 0x8, addend: 0x0, symName: '__ZNSt3__110__function6__funcIZN5dgrad4tanhEPNS2_6TensorEE3$_6NS_9allocatorIS5_EEFvvEED2Ev', symObjAddr: 0x19474, symBinAddr: 0x100021674, symSize: 0x48 }
  - { offsetInCU: 0x357B0, offset: 0x4A91F, size: 0x8, addend: 0x0, symName: '__ZNSt3__110__function12__alloc_funcIZN5dgrad4tanhEPNS2_6TensorEE3$_6NS_9allocatorIS5_EEFvvEED1Ev', symObjAddr: 0x194BC, symBinAddr: 0x1000216BC, symSize: 0x2C }
  - { offsetInCU: 0x357DC, offset: 0x4A94B, size: 0x8, addend: 0x0, symName: '__ZNSt3__110__function12__alloc_funcIZN5dgrad4tanhEPNS2_6TensorEE3$_6NS_9allocatorIS5_EEFvvEED2Ev', symObjAddr: 0x194E8, symBinAddr: 0x1000216E8, symSize: 0x2C }
  - { offsetInCU: 0x35808, offset: 0x4A977, size: 0x8, addend: 0x0, symName: '__ZNSt3__117__compressed_pairIZN5dgrad4tanhEPNS1_6TensorEE3$_6NS_9allocatorIS4_EEED1Ev', symObjAddr: 0x19514, symBinAddr: 0x100021714, symSize: 0x2C }
  - { offsetInCU: 0x35834, offset: 0x4A9A3, size: 0x8, addend: 0x0, symName: '__ZNSt3__117__compressed_pairIZN5dgrad4tanhEPNS1_6TensorEE3$_6NS_9allocatorIS4_EEED2Ev', symObjAddr: 0x19540, symBinAddr: 0x100021740, symSize: 0x2C }
  - { offsetInCU: 0x35860, offset: 0x4A9CF, size: 0x8, addend: 0x0, symName: '__ZNKSt3__110__function12__alloc_funcIZN5dgrad4tanhEPNS2_6TensorEE3$_6NS_9allocatorIS5_EEFvvEE15__get_allocatorB8ue170006Ev', symObjAddr: 0x1956C, symBinAddr: 0x10002176C, symSize: 0x24 }
  - { offsetInCU: 0x358AF, offset: 0x4AA1E, size: 0x8, addend: 0x0, symName: '__ZNSt3__110unique_ptrINS_10__function6__funcIZN5dgrad4tanhEPNS3_6TensorEE3$_6NS_9allocatorIS6_EEFvvEEENS_22__allocator_destructorINS7_ISA_EEEEEC1B8ue170006ILb1EvEEPSA_NS_16__dependent_typeINS_27__unique_ptr_deleter_sfinaeISD_EEXT_EE20__good_rval_ref_typeE', symObjAddr: 0x19590, symBinAddr: 0x100021790, symSize: 0x3C }
  - { offsetInCU: 0x35900, offset: 0x4AA6F, size: 0x8, addend: 0x0, symName: '__ZNKSt3__110unique_ptrINS_10__function6__funcIZN5dgrad4tanhEPNS3_6TensorEE3$_6NS_9allocatorIS6_EEFvvEEENS_22__allocator_destructorINS7_ISA_EEEEE3getB8ue170006Ev', symObjAddr: 0x195CC, symBinAddr: 0x1000217CC, symSize: 0x28 }
  - { offsetInCU: 0x35926, offset: 0x4AA95, size: 0x8, addend: 0x0, symName: '__ZNKSt3__110__function12__alloc_funcIZN5dgrad4tanhEPNS2_6TensorEE3$_6NS_9allocatorIS5_EEFvvEE8__targetB8ue170006Ev', symObjAddr: 0x195F4, symBinAddr: 0x1000217F4, symSize: 0x24 }
  - { offsetInCU: 0x35951, offset: 0x4AAC0, size: 0x8, addend: 0x0, symName: '__ZNSt3__19allocatorIZN5dgrad4tanhEPNS1_6TensorEE3$_6EC1B8ue170006INS_10__function6__funcIS4_S5_FvvEEEEERKNS0_IT_EE', symObjAddr: 0x19618, symBinAddr: 0x100021818, symSize: 0x34 }
  - { offsetInCU: 0x3598E, offset: 0x4AAFD, size: 0x8, addend: 0x0, symName: '__ZNSt3__110__function6__funcIZN5dgrad4tanhEPNS2_6TensorEE3$_6NS_9allocatorIS5_EEFvvEEC1B8ue170006ERKS5_OS7_', symObjAddr: 0x1964C, symBinAddr: 0x10002184C, symSize: 0x3C }
  - { offsetInCU: 0x359D6, offset: 0x4AB45, size: 0x8, addend: 0x0, symName: '__ZNSt3__110unique_ptrINS_10__function6__funcIZN5dgrad4tanhEPNS3_6TensorEE3$_6NS_9allocatorIS6_EEFvvEEENS_22__allocator_destructorINS7_ISA_EEEEE7releaseB8ue170006Ev', symObjAddr: 0x19688, symBinAddr: 0x100021888, symSize: 0x44 }
  - { offsetInCU: 0x35A0B, offset: 0x4AB7A, size: 0x8, addend: 0x0, symName: '__ZNSt3__110unique_ptrINS_10__function6__funcIZN5dgrad4tanhEPNS3_6TensorEE3$_6NS_9allocatorIS6_EEFvvEEENS_22__allocator_destructorINS7_ISA_EEEEED1B8ue170006Ev', symObjAddr: 0x196CC, symBinAddr: 0x1000218CC, symSize: 0x2C }
  - { offsetInCU: 0x35A35, offset: 0x4ABA4, size: 0x8, addend: 0x0, symName: '__ZNKSt3__117__compressed_pairIZN5dgrad4tanhEPNS1_6TensorEE3$_6NS_9allocatorIS4_EEE6secondB8ue170006Ev', symObjAddr: 0x196F8, symBinAddr: 0x1000218F8, symSize: 0x24 }
  - { offsetInCU: 0x35A5B, offset: 0x4ABCA, size: 0x8, addend: 0x0, symName: '__ZNKSt3__122__compressed_pair_elemINS_9allocatorIZN5dgrad4tanhEPNS2_6TensorEE3$_6EELi1ELb1EE5__getB8ue170006Ev', symObjAddr: 0x1971C, symBinAddr: 0x10002191C, symSize: 0x14 }
  - { offsetInCU: 0x35A81, offset: 0x4ABF0, size: 0x8, addend: 0x0, symName: '__ZNSt3__110unique_ptrINS_10__function6__funcIZN5dgrad4tanhEPNS3_6TensorEE3$_6NS_9allocatorIS6_EEFvvEEENS_22__allocator_destructorINS7_ISA_EEEEEC2B8ue170006ILb1EvEEPSA_NS_16__dependent_typeINS_27__unique_ptr_deleter_sfinaeISD_EEXT_EE20__good_rval_ref_typeE', symObjAddr: 0x19730, symBinAddr: 0x100021930, symSize: 0x48 }
  - { offsetInCU: 0x35AD2, offset: 0x4AC41, size: 0x8, addend: 0x0, symName: '__ZNKSt3__117__compressed_pairIZN5dgrad4tanhEPNS1_6TensorEE3$_6NS_9allocatorIS4_EEE5firstB8ue170006Ev', symObjAddr: 0x19778, symBinAddr: 0x100021978, symSize: 0x24 }
  - { offsetInCU: 0x35AF8, offset: 0x4AC67, size: 0x8, addend: 0x0, symName: '__ZNKSt3__122__compressed_pair_elemIZN5dgrad4tanhEPNS1_6TensorEE3$_6Li0ELb0EE5__getB8ue170006Ev', symObjAddr: 0x1979C, symBinAddr: 0x10002199C, symSize: 0x14 }
  - { offsetInCU: 0x35B1E, offset: 0x4AC8D, size: 0x8, addend: 0x0, symName: '__ZNSt3__19allocatorIZN5dgrad4tanhEPNS1_6TensorEE3$_6EC2B8ue170006INS_10__function6__funcIS4_S5_FvvEEEEERKNS0_IT_EE', symObjAddr: 0x197B0, symBinAddr: 0x1000219B0, symSize: 0x30 }
  - { offsetInCU: 0x35B5B, offset: 0x4ACCA, size: 0x8, addend: 0x0, symName: '__ZNSt3__110__function6__funcIZN5dgrad4tanhEPNS2_6TensorEE3$_6NS_9allocatorIS5_EEFvvEEC2B8ue170006ERKS5_OS7_', symObjAddr: 0x197E0, symBinAddr: 0x1000219E0, symSize: 0x88 }
